MODULE windows x86 86B3627D12DF4F518CE02353F86171139 ETDaemon.pdb
INFO CODE_ID 587C3E7F303000 ETDaemon.exe
FUNC 1000 1c 0 `dynamic initializer for 'std::_Error_objects<int>::_Generic_object''
FUNC 1020 1c 0 `dynamic initializer for 'std::_Error_objects<int>::_Iostream_object''
FUNC 1040 1c 0 `dynamic initializer for 'std::_Error_objects<int>::_System_object''
FUNC 1060 12 0 `dynamic initializer for 'std::num_put<char,std::back_insert_iterator<std::basic_string<char,std::char_traits<char>,std::allocator<char> > > >::id''
FUNC 1080 12 0 `dynamic initializer for 'std::num_put<wchar_t,std::back_insert_iterator<std::basic_string<wchar_t,std::char_traits<wchar_t>,std::allocator<wchar_t> > > >::id''
FUNC 10a0 d 0 std::`dynamic initializer for '_Tuple_alloc''
FUNC 10b0 d 0 std::`dynamic initializer for 'allocator_arg''
FUNC 10c0 f 0 std::`dynamic initializer for 'ignore''
FUNC 10d0 d 0 std::`dynamic initializer for 'piecewise_construct''
FUNC 10e0 d 0 std::`dynamic initializer for 'allocator_arg''
FUNC 10f0 d 0 std::`dynamic initializer for 'piecewise_construct''
FUNC 1100 d 0 std::`dynamic initializer for 'allocator_arg''
FUNC 1110 d 0 std::`dynamic initializer for 'piecewise_construct''
FUNC 1120 d 0 std::`dynamic initializer for 'allocator_arg''
FUNC 1130 d 0 std::`dynamic initializer for 'piecewise_construct''
FUNC 1140 d 0 std::`dynamic initializer for 'allocator_arg''
FUNC 1150 d 0 std::`dynamic initializer for 'piecewise_construct''
FUNC 1160 d 0 std::`dynamic initializer for '_Tuple_alloc''
FUNC 1170 d 0 std::`dynamic initializer for 'allocator_arg''
FUNC 1180 f 0 std::`dynamic initializer for 'ignore''
FUNC 1190 d 0 std::`dynamic initializer for 'piecewise_construct''
FUNC 11a0 d 0 std::`dynamic initializer for '_Tuple_alloc''
FUNC 11b0 d 0 std::`dynamic initializer for 'allocator_arg''
FUNC 11c0 f 0 std::`dynamic initializer for 'ignore''
FUNC 11d0 d 0 std::`dynamic initializer for 'piecewise_construct''
FUNC 11e0 d 0 std::`dynamic initializer for '_Tuple_alloc''
FUNC 11f0 d 0 std::`dynamic initializer for 'allocator_arg''
FUNC 1200 f 0 std::`dynamic initializer for 'ignore''
FUNC 1210 d 0 std::`dynamic initializer for 'piecewise_construct''
FUNC 1220 d 0 std::`dynamic initializer for '_Tuple_alloc''
FUNC 1230 d 0 std::`dynamic initializer for 'allocator_arg''
FUNC 1240 f 0 std::`dynamic initializer for 'ignore''
FUNC 1250 d 0 std::`dynamic initializer for 'piecewise_construct''
FUNC 1260 d 0 std::`dynamic initializer for '_Tuple_alloc''
FUNC 1270 d 0 std::`dynamic initializer for 'allocator_arg''
FUNC 1280 f 0 std::`dynamic initializer for 'ignore''
FUNC 1290 d 0 std::`dynamic initializer for 'piecewise_construct''
FUNC 12a0 d 0 std::`dynamic initializer for '_Tuple_alloc''
FUNC 12b0 d 0 std::`dynamic initializer for 'allocator_arg''
FUNC 12c0 f 0 std::`dynamic initializer for 'ignore''
FUNC 12d0 d 0 std::`dynamic initializer for 'piecewise_construct''
FUNC 12e0 d 0 std::`dynamic initializer for '_Tuple_alloc''
FUNC 12f0 d 0 std::`dynamic initializer for 'allocator_arg''
FUNC 1300 f 0 std::`dynamic initializer for 'ignore''
FUNC 1310 d 0 std::`dynamic initializer for 'piecewise_construct''
FUNC 1320 d 0 std::`dynamic initializer for '_Tuple_alloc''
FUNC 1330 d 0 std::`dynamic initializer for 'allocator_arg''
FUNC 1340 f 0 std::`dynamic initializer for 'ignore''
FUNC 1350 d 0 std::`dynamic initializer for 'piecewise_construct''
FUNC 1360 d 0 std::`dynamic initializer for '_Tuple_alloc''
FUNC 1370 d 0 std::`dynamic initializer for 'allocator_arg''
FUNC 1380 f 0 std::`dynamic initializer for 'ignore''
FUNC 1390 d 0 std::`dynamic initializer for 'piecewise_construct''
FUNC 13a0 d 0 std::`dynamic initializer for '_Tuple_alloc''
FUNC 13b0 d 0 std::`dynamic initializer for 'allocator_arg''
FUNC 13c0 f 0 std::`dynamic initializer for 'ignore''
FUNC 13d0 d 0 std::`dynamic initializer for 'piecewise_construct''
FUNC 13e0 f 0 `dynamic initializer for 'staticQGenericEnginePluginInstance''
FUNC 13f0 f 0 `dynamic initializer for 'staticQNativeWifiEnginePluginInstance''
FUNC 1400 d 0 std::`dynamic initializer for '_Tuple_alloc''
FUNC 1410 d 0 std::`dynamic initializer for 'allocator_arg''
FUNC 1420 f 0 std::`dynamic initializer for 'ignore''
FUNC 1430 d 0 std::`dynamic initializer for 'piecewise_construct''
FUNC 1440 d 0 std::`dynamic initializer for '_Tuple_alloc''
FUNC 1450 d 0 std::`dynamic initializer for 'allocator_arg''
FUNC 1460 f 0 std::`dynamic initializer for 'ignore''
FUNC 1470 d 0 std::`dynamic initializer for 'piecewise_construct''
FUNC 1480 d 0 std::`dynamic initializer for '_Tuple_alloc''
FUNC 1490 d 0 std::`dynamic initializer for 'allocator_arg''
FUNC 14a0 f 0 std::`dynamic initializer for 'ignore''
FUNC 14b0 d 0 std::`dynamic initializer for 'piecewise_construct''
FUNC 14c0 d 0 std::`dynamic initializer for '_Tuple_alloc''
FUNC 14d0 d 0 std::`dynamic initializer for 'allocator_arg''
FUNC 14e0 f 0 std::`dynamic initializer for 'ignore''
FUNC 14f0 d 0 std::`dynamic initializer for 'piecewise_construct''
FUNC 1500 d 0 std::`dynamic initializer for '_Tuple_alloc''
FUNC 1510 d 0 std::`dynamic initializer for 'allocator_arg''
FUNC 1520 f 0 std::`dynamic initializer for 'ignore''
FUNC 1530 d 0 std::`dynamic initializer for 'piecewise_construct''
FUNC 1540 d 0 std::`dynamic initializer for '_Tuple_alloc''
FUNC 1550 d 0 std::`dynamic initializer for 'allocator_arg''
FUNC 1560 f 0 std::`dynamic initializer for 'ignore''
FUNC 1570 d 0 std::`dynamic initializer for 'piecewise_construct''
FUNC 1580 d 0 std::`dynamic initializer for '_Tuple_alloc''
FUNC 1590 d 0 std::`dynamic initializer for 'allocator_arg''
FUNC 15a0 f 0 std::`dynamic initializer for 'ignore''
FUNC 15b0 d 0 std::`dynamic initializer for 'piecewise_construct''
FUNC 15c0 d 0 std::`dynamic initializer for '_Tuple_alloc''
FUNC 15d0 d 0 std::`dynamic initializer for 'allocator_arg''
FUNC 15e0 f 0 std::`dynamic initializer for 'ignore''
FUNC 15f0 d 0 std::`dynamic initializer for 'piecewise_construct''
FUNC 1600 21 0 `dynamic initializer for 'Logging::CLIENT_APP_NAME''
FUNC 1630 21 0 `dynamic initializer for 'Logging::DAEMON_APP_NAME''
FUNC 1660 21 0 `dynamic initializer for 'Logging::_LOG_DIRNAME''
FUNC 1690 d 0 std::`dynamic initializer for '_Tuple_alloc''
FUNC 16a0 d 0 std::`dynamic initializer for 'allocator_arg''
FUNC 16b0 f 0 std::`dynamic initializer for 'ignore''
FUNC 16c0 d 0 std::`dynamic initializer for 'piecewise_construct''
FUNC 16d0 d 0 std::`dynamic initializer for '_Tuple_alloc''
FUNC 16e0 d 0 std::`dynamic initializer for 'allocator_arg''
FUNC 16f0 f 0 std::`dynamic initializer for 'ignore''
FUNC 1700 d 0 std::`dynamic initializer for 'piecewise_construct''
FUNC 1710 21 0 `dynamic initializer for 'DataStore::_CLIENT_CERT_FILENAME''
FUNC 1740 21 0 `dynamic initializer for 'DataStore::_CLIENT_KEY_FILENAME''
FUNC 1770 21 0 `dynamic initializer for 'DataStore::_CLIENT_NAME_FILENAME''
FUNC 17a0 21 0 `dynamic initializer for 'DataStore::_CLIENT_SCHEDULED_UPDATE''
FUNC 17d0 21 0 `dynamic initializer for 'DataStore::_EL_TOPO_DIRNAME''
FUNC 1800 21 0 `dynamic initializer for 'DataStore::_LATEST_CLIENT_NAME_FILENAME''
FUNC 1830 21 0 `dynamic initializer for 'DataStore::_ROOT_CERT_FILEMANE''
FUNC 1860 21 0 `dynamic initializer for 'DataStore::_USER_ID_FILENAME''
FUNC 1890 21 0 `dynamic initializer for 'DataStore::_USER_NAME_FILENAME''
FUNC 18c0 d 0 std::`dynamic initializer for '_Tuple_alloc''
FUNC 18d0 d 0 std::`dynamic initializer for 'allocator_arg''
FUNC 18e0 f 0 std::`dynamic initializer for 'ignore''
FUNC 18f0 d 0 std::`dynamic initializer for 'piecewise_construct''
FUNC 1900 21 0 `dynamic initializer for 'WinProcessUtils::_CLIENT_ID_KEY''
FUNC 1930 21 0 `dynamic initializer for 'WinProcessUtils::_PASSWORD_KEY''
FUNC 1960 21 0 `dynamic initializer for 'WinProcessUtils::_USER_ID_KEY''
FUNC 1990 d 0 std::`dynamic initializer for '_Tuple_alloc''
FUNC 19a0 d 0 std::`dynamic initializer for 'allocator_arg''
FUNC 19b0 f 0 std::`dynamic initializer for 'ignore''
FUNC 19c0 d 0 std::`dynamic initializer for 'piecewise_construct''
FUNC 19d0 d 0 std::`dynamic initializer for '_Tuple_alloc''
FUNC 19e0 d 0 std::`dynamic initializer for 'allocator_arg''
FUNC 19f0 f 0 std::`dynamic initializer for 'ignore''
FUNC 1a00 d 0 std::`dynamic initializer for 'piecewise_construct''
FUNC 1a10 21 0 `dynamic initializer for 'SocketUtils::CONNECTION_TO_DAEMON_ACCEPTED''
FUNC 1a40 21 0 `dynamic initializer for 'SocketUtils::CONNECTION_TO_DAEMON_REFUSED''
FUNC 1a70 21 0 `dynamic initializer for 'SocketUtils::CONNECT_TO_VPN_COMMAND''
FUNC 1aa0 21 0 `dynamic initializer for 'SocketUtils::DATA_SEPARATOR''
FUNC 1ad0 21 0 `dynamic initializer for 'SocketUtils::DISCONNECT_FROM_VPN_COMMAND''
FUNC 1b00 21 0 `dynamic initializer for 'SocketUtils::INITIALIZE_COMMAND''
FUNC 1b30 21 0 `dynamic initializer for 'SocketUtils::LOCALHOST''
FUNC 1b60 21 0 `dynamic initializer for 'SocketUtils::PING_COMMAND''
FUNC 1b90 21 0 `dynamic initializer for 'SocketUtils::PROCEED_UPDATE_NOW''
FUNC 1bc0 21 0 `dynamic initializer for 'SocketUtils::TERMINATE_SESSION_COMMAND''
FUNC 1bf0 d 0 std::`dynamic initializer for '_Tuple_alloc''
FUNC 1c00 d 0 std::`dynamic initializer for 'allocator_arg''
FUNC 1c10 f 0 std::`dynamic initializer for 'ignore''
FUNC 1c20 d 0 std::`dynamic initializer for 'piecewise_construct''
FUNC 1c30 21 0 `dynamic initializer for 'Request::_CONTENT_TYPE_HEADER_NAME''
FUNC 1c60 21 0 `dynamic initializer for 'Request::_ET_API_VERSION''
FUNC 1c90 21 0 `dynamic initializer for 'Request::_ET_CLIENT_ID_HEADER_NAME''
FUNC 1cc0 21 0 `dynamic initializer for 'Request::_ET_PASSWORD_HEADER_NAME''
FUNC 1cf0 21 0 `dynamic initializer for 'Request::_ET_USER_ID_HEADER_NAME''
FUNC 1d20 21 0 `dynamic initializer for 'Request::_JSON_CONTENT_TYPE_HEADER_VALUE''
FUNC 1d50 d 0 std::`dynamic initializer for '_Tuple_alloc''
FUNC 1d60 d 0 std::`dynamic initializer for 'allocator_arg''
FUNC 1d70 f 0 std::`dynamic initializer for 'ignore''
FUNC 1d80 d 0 std::`dynamic initializer for 'piecewise_construct''
FUNC 1d90 d 0 std::`dynamic initializer for '_Tuple_alloc''
FUNC 1da0 d 0 std::`dynamic initializer for 'allocator_arg''
FUNC 1db0 f 0 std::`dynamic initializer for 'ignore''
FUNC 1dc0 d 0 std::`dynamic initializer for 'piecewise_construct''
FUNC 1dd0 d 0 std::`dynamic initializer for '_Tuple_alloc''
FUNC 1de0 d 0 std::`dynamic initializer for 'allocator_arg''
FUNC 1df0 f 0 std::`dynamic initializer for 'ignore''
FUNC 1e00 d 0 std::`dynamic initializer for 'piecewise_construct''
FUNC 1e10 d 0 std::`dynamic initializer for '_Tuple_alloc''
FUNC 1e20 d 0 std::`dynamic initializer for 'allocator_arg''
FUNC 1e30 f 0 std::`dynamic initializer for 'ignore''
FUNC 1e40 d 0 std::`dynamic initializer for 'piecewise_construct''
FUNC 1e50 d 0 std::`dynamic initializer for '_Tuple_alloc''
FUNC 1e60 d 0 std::`dynamic initializer for 'allocator_arg''
FUNC 1e70 f 0 std::`dynamic initializer for 'ignore''
FUNC 1e80 d 0 std::`dynamic initializer for 'piecewise_construct''
FUNC 1e90 d 0 std::`dynamic initializer for '_Tuple_alloc''
FUNC 1ea0 d 0 std::`dynamic initializer for 'allocator_arg''
FUNC 1eb0 f 0 std::`dynamic initializer for 'ignore''
FUNC 1ec0 d 0 std::`dynamic initializer for 'piecewise_construct''
FUNC 1ed0 d 0 std::`dynamic initializer for '_Tuple_alloc''
FUNC 1ee0 d 0 std::`dynamic initializer for 'allocator_arg''
FUNC 1ef0 f 0 std::`dynamic initializer for 'ignore''
FUNC 1f00 d 0 std::`dynamic initializer for 'piecewise_construct''
FUNC 1f10 d 0 std::`dynamic initializer for '_Tuple_alloc''
FUNC 1f20 d 0 std::`dynamic initializer for 'allocator_arg''
FUNC 1f30 f 0 std::`dynamic initializer for 'ignore''
FUNC 1f40 d 0 std::`dynamic initializer for 'piecewise_construct''
FUNC 1f50 d 0 std::`dynamic initializer for '_Tuple_alloc''
FUNC 1f60 d 0 std::`dynamic initializer for 'allocator_arg''
FUNC 1f70 f 0 std::`dynamic initializer for 'ignore''
FUNC 1f80 d 0 std::`dynamic initializer for 'piecewise_construct''
FUNC 1f90 d 0 std::`dynamic initializer for '_Tuple_alloc''
FUNC 1fa0 d 0 std::`dynamic initializer for 'allocator_arg''
FUNC 1fb0 f 0 std::`dynamic initializer for 'ignore''
FUNC 1fc0 d 0 std::`dynamic initializer for 'piecewise_construct''
FUNC 1fd0 d 0 std::`dynamic initializer for '_Tuple_alloc''
FUNC 1fe0 d 0 std::`dynamic initializer for 'allocator_arg''
FUNC 1ff0 f 0 std::`dynamic initializer for 'ignore''
FUNC 2000 d 0 std::`dynamic initializer for 'piecewise_construct''
FUNC 2010 d 0 std::`dynamic initializer for '_Tuple_alloc''
FUNC 2020 d 0 std::`dynamic initializer for 'allocator_arg''
FUNC 2030 f 0 std::`dynamic initializer for 'ignore''
FUNC 2040 d 0 std::`dynamic initializer for 'piecewise_construct''
FUNC 2050 d 0 std::`dynamic initializer for 'allocator_arg''
FUNC 2060 d 0 std::`dynamic initializer for 'piecewise_construct''
FUNC 2070 d 0 std::`dynamic initializer for '_Tuple_alloc''
FUNC 2080 d 0 std::`dynamic initializer for 'allocator_arg''
FUNC 2090 f 0 std::`dynamic initializer for 'ignore''
FUNC 20a0 d 0 std::`dynamic initializer for 'piecewise_construct''
FUNC 20b0 d 0 std::`dynamic initializer for '_Tuple_alloc''
FUNC 20c0 d 0 std::`dynamic initializer for 'allocator_arg''
FUNC 20d0 f 0 std::`dynamic initializer for 'ignore''
FUNC 20e0 d 0 std::`dynamic initializer for 'piecewise_construct''
FUNC 20f0 d 0 std::`dynamic initializer for '_Tuple_alloc''
FUNC 2100 d 0 std::`dynamic initializer for 'allocator_arg''
FUNC 2110 f 0 std::`dynamic initializer for 'ignore''
FUNC 2120 d 0 std::`dynamic initializer for 'piecewise_construct''
FUNC 2130 21 0 `dynamic initializer for 'Serializer::KEY''
FUNC 2160 11 0 `dynamic initializer for 'Serializer::KEYVALUE_SEPARATOR''
FUNC 2180 11 0 `dynamic initializer for 'Serializer::SEPARATOR''
FUNC 21a0 d 0 std::`dynamic initializer for 'allocator_arg''
FUNC 21b0 d 0 std::`dynamic initializer for 'piecewise_construct''
FUNC 21c0 d 0 std::`dynamic initializer for '_Tuple_alloc''
FUNC 21d0 d 0 std::`dynamic initializer for 'allocator_arg''
FUNC 21e0 f 0 std::`dynamic initializer for 'ignore''
FUNC 21f0 d 0 std::`dynamic initializer for 'piecewise_construct''
FUNC 2200 d 0 std::`dynamic initializer for 'allocator_arg''
FUNC 2210 d 0 std::`dynamic initializer for 'piecewise_construct''
FUNC 2220 21 0 `dynamic initializer for 'WebsiteUtils::_ET_PROTO''
FUNC 2250 21 0 `dynamic initializer for 'WebsiteUtils::_ET_SERVER_HOSTNAME''
FUNC 2280 d 0 std::`dynamic initializer for 'allocator_arg''
FUNC 2290 d 0 std::`dynamic initializer for 'piecewise_construct''
FUNC 22a0 d 0 std::`dynamic initializer for '_Tuple_alloc''
FUNC 22b0 d 0 std::`dynamic initializer for 'allocator_arg''
FUNC 22c0 f 0 std::`dynamic initializer for 'ignore''
FUNC 22d0 d 0 std::`dynamic initializer for 'piecewise_construct''
FUNC 22e0 d 0 std::`dynamic initializer for '_Tuple_alloc''
FUNC 22f0 d 0 std::`dynamic initializer for 'allocator_arg''
FUNC 2300 f 0 std::`dynamic initializer for 'ignore''
FUNC 2310 d 0 std::`dynamic initializer for 'piecewise_construct''
FUNC 2320 21 0 `dynamic initializer for 'StatusRequest::_ET_STATUS_VERSION_HEADER_NAME''
FUNC 2350 d 0 std::`dynamic initializer for '_Tuple_alloc''
FUNC 2360 d 0 std::`dynamic initializer for 'allocator_arg''
FUNC 2370 f 0 std::`dynamic initializer for 'ignore''
FUNC 2380 d 0 std::`dynamic initializer for 'piecewise_construct''
FUNC 2390 d 0 std::`dynamic initializer for '_Tuple_alloc''
FUNC 23a0 d 0 std::`dynamic initializer for 'allocator_arg''
FUNC 23b0 f 0 std::`dynamic initializer for 'ignore''
FUNC 23c0 d 0 std::`dynamic initializer for 'piecewise_construct''
FUNC 23d0 d 0 std::`dynamic initializer for '_Tuple_alloc''
FUNC 23e0 d 0 std::`dynamic initializer for 'allocator_arg''
FUNC 23f0 f 0 std::`dynamic initializer for 'ignore''
FUNC 2400 d 0 std::`dynamic initializer for 'piecewise_construct''
FUNC 2410 d 0 std::`dynamic initializer for '_Tuple_alloc''
FUNC 2420 d 0 std::`dynamic initializer for 'allocator_arg''
FUNC 2430 f 0 std::`dynamic initializer for 'ignore''
FUNC 2440 d 0 std::`dynamic initializer for 'piecewise_construct''
FUNC 2450 d 0 std::`dynamic initializer for '_Tuple_alloc''
FUNC 2460 d 0 std::`dynamic initializer for 'allocator_arg''
FUNC 2470 f 0 std::`dynamic initializer for 'ignore''
FUNC 2480 d 0 std::`dynamic initializer for 'piecewise_construct''
FUNC 2490 6a 0 `dynamic initializer for 'ServerMessage::messageStringKeys''
FUNC 2500 d 0 std::`dynamic initializer for '_Tuple_alloc''
FUNC 2510 d 0 std::`dynamic initializer for 'allocator_arg''
FUNC 2520 f 0 std::`dynamic initializer for 'ignore''
FUNC 2530 d 0 std::`dynamic initializer for 'piecewise_construct''
FUNC 2540 d 0 std::`dynamic initializer for '_Tuple_alloc''
FUNC 2550 d 0 std::`dynamic initializer for 'allocator_arg''
FUNC 2560 f 0 std::`dynamic initializer for 'ignore''
FUNC 2570 d 0 std::`dynamic initializer for 'piecewise_construct''
FUNC 2580 21 0 `dynamic initializer for 'Deserializer::KEY''
FUNC 25b0 11 0 `dynamic initializer for 'Deserializer::KEYVALUE_SEPARATOR''
FUNC 25d0 11 0 `dynamic initializer for 'Deserializer::SEPARATOR''
FUNC 25f0 d 0 std::`dynamic initializer for '_Tuple_alloc''
FUNC 2600 d 0 std::`dynamic initializer for 'allocator_arg''
FUNC 2610 f 0 std::`dynamic initializer for 'ignore''
FUNC 2620 d 0 std::`dynamic initializer for 'piecewise_construct''
FUNC 2630 d 0 std::`dynamic initializer for '_Tuple_alloc''
FUNC 2640 d 0 std::`dynamic initializer for 'allocator_arg''
FUNC 2650 f 0 std::`dynamic initializer for 'ignore''
FUNC 2660 d 0 std::`dynamic initializer for 'piecewise_construct''
FUNC 2670 d 0 std::`dynamic initializer for '_Tuple_alloc''
FUNC 2680 d 0 std::`dynamic initializer for 'allocator_arg''
FUNC 2690 f 0 std::`dynamic initializer for 'ignore''
FUNC 26a0 d 0 std::`dynamic initializer for 'piecewise_construct''
FUNC 2790 8b 0 QtBreakpad::init(QString const &,bool (*)(void *,_EXCEPTION_POINTERS *,MDRawAssertionInfo *),bool (*)(wchar_t const *,wchar_t const *,void *,_EXCEPTION_POINTERS *,MDRawAssertionInfo *,bool),void *)
FUNC 2820 87 0 QtBreakpad::init(QString const &,bool (*)(QFile &,void *),void *)
FUNC 28b0 3d 0 QtBreakpad::replaceInstance(QtBreakpad *)
FUNC 28f0 28 0 QtBreakpad::QtBreakpad(QString const &,bool (*)(void *,_EXCEPTION_POINTERS *,MDRawAssertionInfo *),bool (*)(wchar_t const *,wchar_t const *,void *,_EXCEPTION_POINTERS *,MDRawAssertionInfo *,bool),void *)
FUNC 2920 a2 0 QtBreakpad::QtBreakpad(QString const &,bool (*)(QFile &,void *),void *)
FUNC 29d0 62 0 QtBreakpad::~QtBreakpad()
FUNC 2a40 bf 0 QtBreakpad::buildBreakpadHandler(QString const &,bool (*)(void *,_EXCEPTION_POINTERS *,MDRawAssertionInfo *),bool (*)(wchar_t const *,wchar_t const *,void *,_EXCEPTION_POINTERS *,MDRawAssertionInfo *,bool),void *)
FUNC 2b00 173 0 QtBreakpad::qMinidumpWrapper(wchar_t const *,wchar_t const *,QtBreakpad::QMinidumpContextWrapper *,_EXCEPTION_POINTERS *,MDRawAssertionInfo *,bool)
FUNC 2c80 3b 0 std::_Allocate<char>(unsigned int,char *)
FUNC 2cc0 40 0 std::_Allocate<wchar_t>(unsigned int,wchar_t *)
FUNC 2d00 31 0 QAtomicOpsBySize<4>::deref<int>(int &)
FUNC 2d40 1d 0 std::_Wrap_alloc<std::allocator<char> >::destroy<char *>(char * *)
FUNC 2d60 a 0 QGenericAtomicOps<QAtomicOpsBySize<4> >::load<int>(int const &)
FUNC 2d70 33 0 QAtomicOpsBySize<4>::ref<int>(int &)
FUNC 2db0 18 0 std::_String_alloc<0,std::_String_base_types<wchar_t,std::allocator<wchar_t> > >::_String_alloc<0,std::_String_base_types<wchar_t,std::allocator<wchar_t> > >(std::allocator<wchar_t> const &)
FUNC 2dd0 22 0 std::_String_val<std::_Simple_types<char> >::_String_val<std::_Simple_types<char> >()
FUNC 2e00 3b 0 std::basic_string<char,std::char_traits<char>,std::allocator<char> >::basic_string<char,std::char_traits<char>,std::allocator<char> >(char const *)
FUNC 2e40 3b 0 std::basic_string<wchar_t,std::char_traits<wchar_t>,std::allocator<wchar_t> >::basic_string<wchar_t,std::char_traits<wchar_t>,std::allocator<wchar_t> >(wchar_t const *)
FUNC 2e80 24 0 QString::QString(QString &&)
FUNC 2eb0 29 0 QString::QString(QString const &)
FUNC 2ee0 1f 0 std::_Generic_error_category::_Generic_error_category()
FUNC 2f00 e 0 std::_Ignore::_Ignore()
FUNC 2f10 1f 0 std::_Iostream_error_category::_Iostream_error_category()
FUNC 2f30 1f 0 std::_System_error_category::_System_error_category()
FUNC 2f50 17 0 std::error_category::error_category()
FUNC 2f70 21 0 std::error_condition::error_condition(int,std::error_category const &)
FUNC 2fa0 17 0 std::basic_string<wchar_t,std::char_traits<wchar_t>,std::allocator<wchar_t> >::~basic_string<wchar_t,std::char_traits<wchar_t>,std::allocator<wchar_t> >()
FUNC 2fc0 b 0 QtBreakpad::QMinidumpContextWrapper::~QMinidumpContextWrapper()
FUNC 2fd0 2a 0 QString::~QString()
FUNC 3000 13 0 std::_Generic_error_category::~_Generic_error_category()
FUNC 3020 13 0 std::_System_error_category::~_System_error_category()
FUNC 3040 14 0 std::error_category::~error_category()
FUNC 3060 8 0 operator new(unsigned int,void *)
FUNC 3070 5 0 qt_noop()
FUNC 3080 2a 0 std::error_category::operator==(std::error_category const &)
FUNC 30b0 59 0 std::error_condition::operator==(std::error_condition const &)
FUNC 3110 a9 0 operator+(QString const &,char const *)
FUNC 31c0 19 0 QString::operator+=(QString const &)
FUNC 31e0 2c 0 google_breakpad::ExceptionHandler::`scalar deleting destructor'(unsigned int)
FUNC 3210 2c 0 QtBreakpad::QMinidumpContextWrapper::`scalar deleting destructor'(unsigned int)
FUNC 3240 2c 0 QtBreakpad::`scalar deleting destructor'(unsigned int)
FUNC 3270 2c 0 std::_Generic_error_category::`scalar deleting destructor'(unsigned int)
FUNC 32a0 2c 0 std::_System_error_category::`scalar deleting destructor'(unsigned int)
FUNC 32d0 2c 0 std::error_category::`scalar deleting destructor'(unsigned int)
FUNC 3300 1b5 0 std::basic_string<char,std::char_traits<char>,std::allocator<char> >::_Copy(unsigned int,unsigned int)
FUNC 34c0 1b5 0 std::basic_string<wchar_t,std::char_traits<wchar_t>,std::allocator<wchar_t> >::_Copy(unsigned int,unsigned int)
FUNC 3680 34 0 std::basic_string<char,std::char_traits<char>,std::allocator<char> >::_Eos(unsigned int)
FUNC 36c0 39 0 std::basic_string<wchar_t,std::char_traits<wchar_t>,std::allocator<wchar_t> >::_Eos(unsigned int)
FUNC 3700 a7 0 std::basic_string<char,std::char_traits<char>,std::allocator<char> >::_Grow(unsigned int,bool)
FUNC 37b0 a7 0 std::basic_string<wchar_t,std::char_traits<wchar_t>,std::allocator<wchar_t> >::_Grow(unsigned int,bool)
FUNC 3860 3b 0 std::basic_string<char,std::char_traits<char>,std::allocator<char> >::_Inside(char const *)
FUNC 38a0 3e 0 std::basic_string<wchar_t,std::char_traits<wchar_t>,std::allocator<wchar_t> >::_Inside(wchar_t const *)
FUNC 38e0 32 0 std::_String_val<std::_Simple_types<char> >::_Myptr()
FUNC 3920 32 0 std::_String_val<std::_Simple_types<wchar_t> >::_Myptr()
FUNC 3960 9b 0 std::basic_string<char,std::char_traits<char>,std::allocator<char> >::_Tidy(bool,unsigned int)
FUNC 3a00 9b 0 std::basic_string<wchar_t,std::char_traits<wchar_t>,std::allocator<wchar_t> >::_Tidy(bool,unsigned int)
FUNC 3aa0 16 0 std::basic_string<wchar_t,std::char_traits<wchar_t>,std::allocator<wchar_t> >::_Xlen()
FUNC 3ac0 16 0 std::basic_string<wchar_t,std::char_traits<wchar_t>,std::allocator<wchar_t> >::_Xran()
FUNC 3ae0 19 0 std::_Wrap_alloc<std::allocator<char> >::allocate(unsigned int)
FUNC 3b00 19 0 std::_Wrap_alloc<std::allocator<wchar_t> >::allocate(unsigned int)
FUNC 3b20 1b 0 std::allocator<char>::allocate(unsigned int)
FUNC 3b40 1b 0 std::allocator<wchar_t>::allocate(unsigned int)
FUNC 3b60 ac 0 std::basic_string<char,std::char_traits<char>,std::allocator<char> >::assign(std::basic_string<char,std::char_traits<char>,std::allocator<char> > const &,unsigned int,unsigned int)
FUNC 3c10 26 0 std::basic_string<char,std::char_traits<char>,std::allocator<char> >::assign(char const *)
FUNC 3c40 7d 0 std::basic_string<char,std::char_traits<char>,std::allocator<char> >::assign(char const *,unsigned int)
FUNC 3cc0 af 0 std::basic_string<wchar_t,std::char_traits<wchar_t>,std::allocator<wchar_t> >::assign(std::basic_string<wchar_t,std::char_traits<wchar_t>,std::allocator<wchar_t> > const &,unsigned int,unsigned int)
FUNC 3d70 26 0 std::basic_string<wchar_t,std::char_traits<wchar_t>,std::allocator<wchar_t> >::assign(wchar_t const *)
FUNC 3da0 7f 0 std::basic_string<wchar_t,std::char_traits<wchar_t>,std::allocator<wchar_t> >::assign(wchar_t const *,unsigned int)
FUNC 3e20 f 0 std::char_traits<char>::assign(char &,char const &)
FUNC 3e30 11 0 std::char_traits<wchar_t>::assign(wchar_t &,wchar_t const &)
FUNC 3e50 30 0 std::char_traits<char>::copy(char *,char const *,unsigned int)
FUNC 3e80 30 0 std::char_traits<wchar_t>::copy(wchar_t *,wchar_t const *,unsigned int)
FUNC 3eb0 15 0 QTypedArrayData<unsigned short>::deallocate(QArrayData *)
FUNC 3ed0 19 0 std::allocator<wchar_t>::deallocate(wchar_t *,unsigned int)
FUNC 3ef0 4c 0 std::_System_error_category::default_error_condition(int)
FUNC 3f40 20 0 std::error_category::default_error_condition(int)
FUNC 3f60 17 0 QBasicAtomicInteger<int>::deref()
FUNC 3f80 34 0 QtPrivate::RefCount::deref()
FUNC 3fc0 47 0 std::error_category::equivalent(std::error_code const &,int)
FUNC 4010 2f 0 std::error_category::equivalent(int,std::error_condition const &)
FUNC 4040 2f 0 std::basic_string<char,std::char_traits<char>,std::allocator<char> >::erase(unsigned int)
FUNC 4070 87 0 std::basic_string<char,std::char_traits<char>,std::allocator<char> >::erase(unsigned int,unsigned int)
FUNC 4100 2f 0 std::basic_string<wchar_t,std::char_traits<wchar_t>,std::allocator<wchar_t> >::erase(unsigned int)
FUNC 4130 8d 0 std::basic_string<wchar_t,std::char_traits<wchar_t>,std::allocator<wchar_t> >::erase(unsigned int,unsigned int)
FUNC 41c0 54 0 QString::fromUtf8(char const *,int)
FUNC 4220 100 0 QString::fromWCharArray(wchar_t const *,int)
FUNC 4320 a 0 std::generic_category()
FUNC 4330 2d 0 std::char_traits<char>::length(char const *)
FUNC 4360 2e 0 std::char_traits<wchar_t>::length(wchar_t const *)
FUNC 4390 17 0 QBasicAtomicInteger<int>::load()
FUNC 43b0 17 0 std::_Wrap_alloc<std::allocator<char> >::max_size()
FUNC 43d0 17 0 std::_Wrap_alloc<std::allocator<wchar_t> >::max_size()
FUNC 43f0 e 0 std::allocator<char>::max_size()
FUNC 4400 10 0 std::allocator<wchar_t>::max_size()
FUNC 4410 d 0 std::allocator_traits<std::allocator<char> >::max_size(std::allocator<char> const &)
FUNC 4420 d 0 std::allocator_traits<std::allocator<wchar_t> >::max_size(std::allocator<wchar_t> const &)
FUNC 4430 3e 0 std::basic_string<char,std::char_traits<char>,std::allocator<char> >::max_size()
FUNC 4470 3e 0 std::basic_string<wchar_t,std::char_traits<wchar_t>,std::allocator<wchar_t> >::max_size()
FUNC 44b0 53 0 std::_Generic_error_category::message(int)
FUNC 4510 55 0 std::_Iostream_error_category::message(int)
FUNC 4570 53 0 std::_System_error_category::message(int)
FUNC 45d0 31 0 std::char_traits<char>::move(char *,char const *,unsigned int)
FUNC 4610 30 0 std::char_traits<wchar_t>::move(wchar_t *,wchar_t const *,unsigned int)
FUNC 4640 10 0 std::_Generic_error_category::name()
FUNC 4650 10 0 std::_Iostream_error_category::name()
FUNC 4660 10 0 std::_System_error_category::name()
FUNC 4670 17 0 QBasicAtomicInteger<int>::ref()
FUNC 4690 32 0 QtPrivate::RefCount::ref()
FUNC 46d0 a 0 QArrayData::sharedNull()
FUNC 46e0 11 0 std::basic_string<wchar_t,std::char_traits<wchar_t>,std::allocator<wchar_t> >::size()
FUNC 4700 a 0 std::system_category()
FUNC 4710 1b 0 wmemcpy
FUNC 4730 1c 0 wmemmove
FUNC 4750 ba 0 google_breakpad::ExceptionHandler::ExceptionHandler(std::basic_string<wchar_t,std::char_traits<wchar_t>,std::allocator<wchar_t> > const &,bool (*)(void *,_EXCEPTION_POINTERS *,MDRawAssertionInfo *),bool (*)(wchar_t const *,wchar_t const *,void *,_EXCEPTION_POINTERS *,MDRawAssertionInfo *,bool),void *,int)
FUNC 4810 c0 0 google_breakpad::ExceptionHandler::ExceptionHandler(std::basic_string<wchar_t,std::char_traits<wchar_t>,std::allocator<wchar_t> > const &,bool (*)(void *,_EXCEPTION_POINTERS *,MDRawAssertionInfo *),bool (*)(wchar_t const *,wchar_t const *,void *,_EXCEPTION_POINTERS *,MDRawAssertionInfo *,bool),void *,int,_MINIDUMP_TYPE,wchar_t const *,google_breakpad::CustomClientInfo const *)
FUNC 48d0 c0 0 google_breakpad::ExceptionHandler::ExceptionHandler(std::basic_string<wchar_t,std::char_traits<wchar_t>,std::allocator<wchar_t> > const &,bool (*)(void *,_EXCEPTION_POINTERS *,MDRawAssertionInfo *),bool (*)(wchar_t const *,wchar_t const *,void *,_EXCEPTION_POINTERS *,MDRawAssertionInfo *,bool),void *,int,_MINIDUMP_TYPE,void *,google_breakpad::CustomClientInfo const *)
FUNC 4990 bc 0 google_breakpad::ExceptionHandler::ExceptionHandler(std::basic_string<wchar_t,std::char_traits<wchar_t>,std::allocator<wchar_t> > const &,bool (*)(void *,_EXCEPTION_POINTERS *,MDRawAssertionInfo *),bool (*)(wchar_t const *,wchar_t const *,void *,_EXCEPTION_POINTERS *,MDRawAssertionInfo *,bool),void *,int,google_breakpad::CrashGenerationClient *)
FUNC 4a50 2a7 0 google_breakpad::ExceptionHandler::~ExceptionHandler()
FUNC 4d00 23 0 google_breakpad::ExceptionHandler::RequestUpload(unsigned long)
FUNC 4d30 88 0 google_breakpad::ExceptionHandler::WriteMinidump()
FUNC 4dc0 51 0 google_breakpad::ExceptionHandler::WriteMinidumpForException(_EXCEPTION_POINTERS *)
FUNC 4e20 8f 0 google_breakpad::ExceptionHandler::WriteMinidump(std::basic_string<wchar_t,std::char_traits<wchar_t>,std::allocator<wchar_t> > const &,bool (*)(wchar_t const *,wchar_t const *,void *,_EXCEPTION_POINTERS *,MDRawAssertionInfo *,bool),void *)
FUNC 4eb0 1d0 0 google_breakpad::ExceptionHandler::WriteMinidumpForChild(void *,unsigned long,std::basic_string<wchar_t,std::char_traits<wchar_t>,std::allocator<wchar_t> > const &,bool (*)(wchar_t const *,wchar_t const *,void *,_EXCEPTION_POINTERS *,MDRawAssertionInfo *,bool),void *)
FUNC 5080 a3 0 google_breakpad::ExceptionHandler::RegisterAppMemory(void *,unsigned int)
FUNC 5130 87 0 google_breakpad::ExceptionHandler::UnregisterAppMemory(void *)
FUNC 51c0 489 0 google_breakpad::ExceptionHandler::Initialize(std::basic_string<wchar_t,std::char_traits<wchar_t>,std::allocator<wchar_t> > const &,bool (*)(void *,_EXCEPTION_POINTERS *,MDRawAssertionInfo *),bool (*)(wchar_t const *,wchar_t const *,void *,_EXCEPTION_POINTERS *,MDRawAssertionInfo *,bool),void *,int,_MINIDUMP_TYPE,wchar_t const *,void *,google_breakpad::CrashGenerationClient *,google_breakpad::CustomClientInfo const *)
FUNC 5650 88 0 google_breakpad::ExceptionHandler::ExceptionHandlerThreadMain(void *)
FUNC 56e0 156 0 google_breakpad::ExceptionHandler::HandleException(_EXCEPTION_POINTERS *)
FUNC 5840 233 0 google_breakpad::ExceptionHandler::HandleInvalidParameter(wchar_t const *,wchar_t const *,wchar_t const *,unsigned int,unsigned int)
FUNC 5a80 1c4 0 google_breakpad::ExceptionHandler::HandlePureVirtualCall()
FUNC 5c50 d3 0 google_breakpad::ExceptionHandler::WriteMinidumpOnHandlerThread(_EXCEPTION_POINTERS *,MDRawAssertionInfo *)
FUNC 5d30 cc 0 google_breakpad::ExceptionHandler::WriteMinidumpWithException(unsigned long,_EXCEPTION_POINTERS *,MDRawAssertionInfo *)
FUNC 5e00 cc 0 google_breakpad::ExceptionHandler::MinidumpWriteDumpCallback(void *,_MINIDUMP_CALLBACK_INPUT * const,_MINIDUMP_CALLBACK_OUTPUT *)
FUNC 5ed0 32d 0 google_breakpad::ExceptionHandler::WriteMinidumpWithExceptionForProcess(unsigned long,_EXCEPTION_POINTERS *,MDRawAssertionInfo *,void *,bool)
FUNC 6200 144 0 google_breakpad::ExceptionHandler::UpdateNextID()
FUNC 6350 3f 0 std::_Allocate<std::_List_node<google_breakpad::AppMemory,void *> >(unsigned int,std::_List_node<google_breakpad::AppMemory,void *> *)
FUNC 6390 e0 0 std::_List_buy<google_breakpad::AppMemory,std::allocator<google_breakpad::AppMemory> >::_Buynode<google_breakpad::AppMemory const &>(std::_List_node<google_breakpad::AppMemory,void *> *,std::_List_node<google_breakpad::AppMemory,void *> *,google_breakpad::AppMemory const &)
FUNC 6470 2d 0 std::_Find<std::_List_unchecked_iterator<std::_List_val<std::_List_simple_types<google_breakpad::AppMemory> > >,void *>(std::_List_unchecked_iterator<std::_List_val<std::_List_simple_types<google_breakpad::AppMemory> > >,std::_List_unchecked_iterator<std::_List_val<std::_List_simple_types<google_breakpad::AppMemory> > >,void * const &)
FUNC 64a0 4d 0 std::_Find<std::_List_unchecked_iterator<std::_List_val<std::_List_simple_types<google_breakpad::AppMemory> > >,void *>(std::_List_unchecked_iterator<std::_List_val<std::_List_simple_types<google_breakpad::AppMemory> > >,std::_List_unchecked_iterator<std::_List_val<std::_List_simple_types<google_breakpad::AppMemory> > >,void * const &,std::integral_constant<bool,0>)
FUNC 64f0 7c 0 std::list<google_breakpad::AppMemory,std::allocator<google_breakpad::AppMemory> >::_Insert<google_breakpad::AppMemory const &>(std::_List_unchecked_const_iterator<std::_List_val<std::_List_simple_types<google_breakpad::AppMemory> >,std::_Iterator_base0>,google_breakpad::AppMemory const &)
FUNC 6570 35 0 std::_Move<google_breakpad::ExceptionHandler * *,google_breakpad::ExceptionHandler * *>(google_breakpad::ExceptionHandler * *,google_breakpad::ExceptionHandler * *,google_breakpad::ExceptionHandler * *,std::_Scalar_ptr_iterator_tag)
FUNC 65b0 11 0 std::_Rechecked<std::_List_val<std::_List_simple_types<google_breakpad::AppMemory> > >(std::_List_iterator<std::_List_val<std::_List_simple_types<google_breakpad::AppMemory> > > &,std::_List_unchecked_iterator<std::_List_val<std::_List_simple_types<google_breakpad::AppMemory> > >)
FUNC 65d0 14 0 std::_Unchecked<std::_List_val<std::_List_simple_types<google_breakpad::AppMemory> > >(std::_List_iterator<std::_List_val<std::_List_simple_types<google_breakpad::AppMemory> > >)
FUNC 65f0 49 0 std::basic_string<wchar_t,std::char_traits<wchar_t>,std::allocator<wchar_t> >::assign<std::_String_iterator<std::_String_val<std::_Simple_types<wchar_t> > > >(std::_String_iterator<std::_String_val<std::_Simple_types<wchar_t> > >,std::_String_iterator<std::_String_val<std::_Simple_types<wchar_t> > >)
FUNC 6640 86 0 std::allocator<std::_List_node<google_breakpad::AppMemory,void *> >::construct<std::_List_node<google_breakpad::AppMemory,void *> *,std::_List_node<google_breakpad::AppMemory,void *> * &>(std::_List_node<google_breakpad::AppMemory,void *> * *,std::_List_node<google_breakpad::AppMemory,void *> * &)
FUNC 66d0 1e 0 std::allocator_traits<std::allocator<google_breakpad::ExceptionHandler *> >::construct<google_breakpad::ExceptionHandler *,google_breakpad::ExceptionHandler * &>(std::allocator<google_breakpad::ExceptionHandler *> &,google_breakpad::ExceptionHandler * *,google_breakpad::ExceptionHandler * &)
FUNC 66f0 2a 0 std::_Wrap_alloc<std::allocator<google_breakpad::ExceptionHandler *> >::construct<google_breakpad::ExceptionHandler *,google_breakpad::ExceptionHandler * const &>(google_breakpad::ExceptionHandler * *,google_breakpad::ExceptionHandler * const &)
FUNC 6720 1e 0 std::allocator_traits<std::allocator<google_breakpad::ExceptionHandler *> >::construct<google_breakpad::ExceptionHandler *,google_breakpad::ExceptionHandler * const &>(std::allocator<google_breakpad::ExceptionHandler *> &,google_breakpad::ExceptionHandler * *,google_breakpad::ExceptionHandler * const &)
FUNC 6740 2a 0 std::_Wrap_alloc<std::allocator<std::_List_node<google_breakpad::AppMemory,void *> > >::construct<google_breakpad::AppMemory,google_breakpad::AppMemory const &>(google_breakpad::AppMemory *,google_breakpad::AppMemory const &)
FUNC 6770 98 0 std::allocator<std::_List_node<google_breakpad::AppMemory,void *> >::construct<google_breakpad::AppMemory,google_breakpad::AppMemory const &>(google_breakpad::AppMemory *,google_breakpad::AppMemory const &)
FUNC 6810 1e 0 std::allocator_traits<std::allocator<std::_List_node<google_breakpad::AppMemory,void *> > >::construct<google_breakpad::AppMemory,google_breakpad::AppMemory const &>(std::allocator<std::_List_node<google_breakpad::AppMemory,void *> > &,google_breakpad::AppMemory *,google_breakpad::AppMemory const &)
FUNC 6830 d 0 std::allocator<std::_List_node<google_breakpad::AppMemory,void *> >::destroy<std::_List_node<google_breakpad::AppMemory,void *> *>(std::_List_node<google_breakpad::AppMemory,void *> * *)
FUNC 6840 11 0 std::allocator_traits<std::allocator<std::_List_node<google_breakpad::AppMemory,void *> > >::destroy<std::_List_node<google_breakpad::AppMemory,void *> *>(std::allocator<std::_List_node<google_breakpad::AppMemory,void *> > &,std::_List_node<google_breakpad::AppMemory,void *> * *)
FUNC 6860 59 0 std::find<std::_List_iterator<std::_List_val<std::_List_simple_types<google_breakpad::AppMemory> > >,void *>(std::_List_iterator<std::_List_val<std::_List_simple_types<google_breakpad::AppMemory> > >,std::_List_iterator<std::_List_val<std::_List_simple_types<google_breakpad::AppMemory> > >,void * const &)
FUNC 68c0 49 0 std::max<unsigned __int64>(unsigned __int64 const &,unsigned __int64 const &)
FUNC 6910 49 0 std::min<unsigned __int64>(unsigned __int64 const &,unsigned __int64 const &)
FUNC 6960 25 0 std::_List_alloc<0,std::_List_base_types<google_breakpad::AppMemory,std::allocator<google_breakpad::AppMemory> > >::_List_alloc<0,std::_List_base_types<google_breakpad::AppMemory,std::allocator<google_breakpad::AppMemory> > >(std::allocator<google_breakpad::AppMemory> const &)
FUNC 6990 1c 0 std::_List_buy<google_breakpad::AppMemory,std::allocator<google_breakpad::AppMemory> >::_List_buy<google_breakpad::AppMemory,std::allocator<google_breakpad::AppMemory> >(std::allocator<google_breakpad::AppMemory> const &)
FUNC 69b0 20 0 std::_List_unchecked_iterator<std::_List_val<std::_List_simple_types<google_breakpad::AppMemory> > >::_List_unchecked_iterator<std::_List_val<std::_List_simple_types<google_breakpad::AppMemory> > >(std::_List_node<google_breakpad::AppMemory,void *> *,std::_List_val<std::_List_simple_types<google_breakpad::AppMemory> > const *)
FUNC 69d0 16 0 std::_List_const_iterator<std::_List_val<std::_List_simple_types<google_breakpad::AppMemory> > >::_List_const_iterator<std::_List_val<std::_List_simple_types<google_breakpad::AppMemory> > >()
FUNC 69f0 20 0 std::_List_iterator<std::_List_val<std::_List_simple_types<google_breakpad::AppMemory> > >::_List_iterator<std::_List_val<std::_List_simple_types<google_breakpad::AppMemory> > >(std::_List_node<google_breakpad::AppMemory,void *> *,std::_List_val<std::_List_simple_types<google_breakpad::AppMemory> > const *)
FUNC 6a10 24 0 std::_List_unchecked_const_iterator<std::_List_val<std::_List_simple_types<google_breakpad::AppMemory> >,std::_Iterator_base0>::_List_unchecked_const_iterator<std::_List_val<std::_List_simple_types<google_breakpad::AppMemory> >,std::_Iterator_base0>(std::_List_node<google_breakpad::AppMemory,void *> *,std::_List_val<std::_List_simple_types<google_breakpad::AppMemory> > const *)
FUNC 6a40 17 0 std::_List_unchecked_const_iterator<std::_List_val<std::_List_simple_types<google_breakpad::AppMemory> >,std::_Iterator_base0>::_List_unchecked_const_iterator<std::_List_val<std::_List_simple_types<google_breakpad::AppMemory> >,std::_Iterator_base0>()
FUNC 6a60 21 0 std::_List_val<std::_List_simple_types<google_breakpad::AppMemory> >::_List_val<std::_List_simple_types<google_breakpad::AppMemory> >()
FUNC 6a90 24 0 std::_String_const_iterator<std::_String_val<std::_Simple_types<wchar_t> > >::_String_const_iterator<std::_String_val<std::_Simple_types<wchar_t> > >(wchar_t const *,std::_Container_base0 const *)
FUNC 6ac0 20 0 std::_String_iterator<std::_String_val<std::_Simple_types<wchar_t> > >::_String_iterator<std::_String_val<std::_Simple_types<wchar_t> > >(wchar_t *,std::_Container_base0 const *)
FUNC 6ae0 2b 0 std::_Vector_val<std::_Simple_types<google_breakpad::ExceptionHandler *> >::_Vector_val<std::_Simple_types<google_breakpad::ExceptionHandler *> >()
FUNC 6b10 2d 0 std::basic_string<wchar_t,std::char_traits<wchar_t>,std::allocator<wchar_t> >::basic_string<wchar_t,std::char_traits<wchar_t>,std::allocator<wchar_t> >()
FUNC 6b40 21 0 std::list<google_breakpad::AppMemory,std::allocator<google_breakpad::AppMemory> >::list<google_breakpad::AppMemory,std::allocator<google_breakpad::AppMemory> >()
FUNC 6b70 83 0 google_breakpad::AutoExceptionHandler::AutoExceptionHandler()
FUNC 6c00 21 0 google_breakpad::MinidumpCallbackContext::MinidumpCallbackContext()
FUNC 6c30 19 0 std::_List_alloc<0,std::_List_base_types<google_breakpad::AppMemory,std::allocator<google_breakpad::AppMemory> > >::~_List_alloc<0,std::_List_base_types<google_breakpad::AppMemory,std::allocator<google_breakpad::AppMemory> > >()
FUNC 6c50 13 0 std::_List_buy<google_breakpad::AppMemory,std::allocator<google_breakpad::AppMemory> >::~_List_buy<google_breakpad::AppMemory,std::allocator<google_breakpad::AppMemory> >()
FUNC 6c70 1b 0 std::list<google_breakpad::AppMemory,std::allocator<google_breakpad::AppMemory> >::~list<google_breakpad::AppMemory,std::allocator<google_breakpad::AppMemory> >()
FUNC 6c90 37 0 google_breakpad::scoped_ptr<google_breakpad::CrashGenerationClient>::~scoped_ptr<google_breakpad::CrashGenerationClient>()
FUNC 6cd0 4a 0 google_breakpad::AutoExceptionHandler::~AutoExceptionHandler()
FUNC 6d20 a9 0 std::basic_string<wchar_t,std::char_traits<wchar_t>,std::allocator<wchar_t> >::operator=(std::basic_string<wchar_t,std::char_traits<wchar_t>,std::allocator<wchar_t> > &&)
FUNC 6dd0 74 0 std::basic_string<wchar_t,std::char_traits<wchar_t>,std::allocator<wchar_t> >::operator=(std::basic_string<wchar_t,std::char_traits<wchar_t>,std::allocator<wchar_t> > const &)
FUNC 6e50 19 0 std::basic_string<wchar_t,std::char_traits<wchar_t>,std::allocator<wchar_t> >::operator=(wchar_t const *)
FUNC 6e70 2e 0 std::_List_const_iterator<std::_List_val<std::_List_simple_types<google_breakpad::AppMemory> > >::operator==(std::_List_const_iterator<std::_List_val<std::_List_simple_types<google_breakpad::AppMemory> > > const &)
FUNC 6ea0 3a 0 std::_String_const_iterator<std::_String_val<std::_Simple_types<wchar_t> > >::operator==(std::_String_const_iterator<std::_String_val<std::_Simple_types<wchar_t> > > const &)
FUNC 6ee0 47 0 google_breakpad::AppMemory::operator==(void const *)
FUNC 6f30 35 0 std::_List_unchecked_const_iterator<std::_List_val<std::_List_simple_types<google_breakpad::AppMemory> >,std::_Iterator_base0>::operator!=(std::_List_unchecked_const_iterator<std::_List_val<std::_List_simple_types<google_breakpad::AppMemory> >,std::_Iterator_base0> const &)
FUNC 6f70 35 0 std::_Vector_const_iterator<std::_Vector_val<std::_Simple_types<google_breakpad::ExceptionHandler *> > >::operator!=(std::_Vector_const_iterator<std::_Vector_val<std::_Simple_types<google_breakpad::ExceptionHandler *> > > const &)
FUNC 6fb0 1c 0 std::_List_unchecked_const_iterator<std::_List_val<std::_List_simple_types<google_breakpad::AppMemory> >,std::_Iterator_base0>::operator->()
FUNC 6fd0 19 0 std::_List_const_iterator<std::_List_val<std::_List_simple_types<google_breakpad::AppMemory> > >::operator*()
FUNC 6ff0 13 0 std::_List_iterator<std::_List_val<std::_List_simple_types<google_breakpad::AppMemory> > >::operator*()
FUNC 7010 13 0 std::_String_iterator<std::_String_val<std::_Simple_types<wchar_t> > >::operator*()
FUNC 7030 2a 0 std::_List_const_iterator<std::_List_val<std::_List_simple_types<google_breakpad::AppMemory> > >::operator++(int)
FUNC 7060 23 0 std::_List_const_iterator<std::_List_val<std::_List_simple_types<google_breakpad::AppMemory> > >::operator++()
FUNC 7090 16 0 std::_List_unchecked_iterator<std::_List_val<std::_List_simple_types<google_breakpad::AppMemory> > >::operator++()
FUNC 70b0 1b 0 std::_Vector_const_iterator<std::_Vector_val<std::_Simple_types<google_breakpad::ExceptionHandler *> > >::operator++()
FUNC 70d0 16 0 std::_Vector_iterator<std::_Vector_val<std::_Simple_types<google_breakpad::ExceptionHandler *> > >::operator++()
FUNC 70f0 25 0 std::_String_const_iterator<std::_String_val<std::_Simple_types<wchar_t> > >::operator-(std::_String_const_iterator<std::_String_val<std::_Simple_types<wchar_t> > > const &)
FUNC 7120 23 0 std::_String_iterator<std::_String_val<std::_Simple_types<wchar_t> > >::operator-(std::_String_const_iterator<std::_String_val<std::_Simple_types<wchar_t> > > const &)
FUNC 7150 2d 0 std::_Vector_iterator<std::_Vector_val<std::_Simple_types<google_breakpad::ExceptionHandler *> > >::operator-(int)
FUNC 7180 20 0 std::_Vector_const_iterator<std::_Vector_val<std::_Simple_types<google_breakpad::ExceptionHandler *> > >::operator+=(int)
FUNC 71a0 1c 0 std::_Vector_iterator<std::_Vector_val<std::_Simple_types<google_breakpad::ExceptionHandler *> > >::operator+=(int)
FUNC 71c0 1b 0 std::_Vector_iterator<std::_Vector_val<std::_Simple_types<google_breakpad::ExceptionHandler *> > >::operator-=(int)
FUNC 71e0 2c 0 std::vector<google_breakpad::ExceptionHandler *,std::allocator<google_breakpad::ExceptionHandler *> >::`scalar deleting destructor'(unsigned int)
FUNC 7210 2c 0 google_breakpad::CrashGenerationClient::`scalar deleting destructor'(unsigned int)
FUNC 7240 2f 0 google_breakpad::ExceptionHandler::IsOutOfProcess()
FUNC 7270 7c 0 std::basic_string<wchar_t,std::char_traits<wchar_t>,std::allocator<wchar_t> >::_Assign_rv(std::basic_string<wchar_t,std::char_traits<wchar_t>,std::allocator<wchar_t> > &&)
FUNC 72f0 17 0 std::_List_alloc<0,std::_List_base_types<google_breakpad::AppMemory,std::allocator<google_breakpad::AppMemory> > >::_Buyheadnode()
FUNC 7310 11f 0 std::_List_alloc<0,std::_List_base_types<google_breakpad::AppMemory,std::allocator<google_breakpad::AppMemory> > >::_Buynode0(std::_List_node<google_breakpad::AppMemory,void *> *,std::_List_node<google_breakpad::AppMemory,void *> *)
FUNC 7430 7a 0 std::_List_alloc<0,std::_List_base_types<google_breakpad::AppMemory,std::allocator<google_breakpad::AppMemory> > >::_Freeheadnode(std::_List_node<google_breakpad::AppMemory,void *> *)
FUNC 74b0 a3 0 std::_List_buy<google_breakpad::AppMemory,std::allocator<google_breakpad::AppMemory> >::_Freenode(std::_List_node<google_breakpad::AppMemory,void *> *)
FUNC 7560 18 0 std::_List_alloc<0,std::_List_base_types<google_breakpad::AppMemory,std::allocator<google_breakpad::AppMemory> > >::_Getal()
FUNC 7580 3d 0 std::list<google_breakpad::AppMemory,std::allocator<google_breakpad::AppMemory> >::_Incsize(unsigned int)
FUNC 75c0 20 0 std::list<google_breakpad::AppMemory,std::allocator<google_breakpad::AppMemory> >::_Make_iter(std::_List_const_iterator<std::_List_val<std::_List_simple_types<google_breakpad::AppMemory> > >)
FUNC 75e0 20 0 std::vector<google_breakpad::ExceptionHandler *,std::allocator<google_breakpad::ExceptionHandler *> >::_Make_iter(std::_Vector_const_iterator<std::_Vector_val<std::_Simple_types<google_breakpad::ExceptionHandler *> > >)
FUNC 7600 b 0 std::_List_val<std::_List_simple_types<google_breakpad::AppMemory> >::_Myval(std::_List_node<google_breakpad::AppMemory,void *> *)
FUNC 7610 29 0 std::basic_string<wchar_t,std::char_traits<wchar_t>,std::allocator<wchar_t> >::_Pdif(std::_String_const_iterator<std::_String_val<std::_Simple_types<wchar_t> > >,std::_String_const_iterator<std::_String_val<std::_Simple_types<wchar_t> > >)
FUNC 7640 b 0 std::_List_val<std::_List_simple_types<google_breakpad::AppMemory> >::_Prevnode(std::_List_node<google_breakpad::AppMemory,void *> *)
FUNC 7650 13 0 std::list<google_breakpad::AppMemory,std::allocator<google_breakpad::AppMemory> >::_Tidy()
FUNC 7670 27 0 std::_List_iterator<std::_List_val<std::_List_simple_types<google_breakpad::AppMemory> > >::_Unchecked()
FUNC 76a0 22 0 std::vector<google_breakpad::ExceptionHandler *,std::allocator<google_breakpad::ExceptionHandler *> >::begin()
FUNC 76d0 80 0 std::list<google_breakpad::AppMemory,std::allocator<google_breakpad::AppMemory> >::_Unlinknode(std::_List_const_iterator<std::_List_val<std::_List_simple_types<google_breakpad::AppMemory> > >)
FUNC 7750 16 0 std::vector<google_breakpad::ExceptionHandler *,std::allocator<google_breakpad::ExceptionHandler *> >::_Xran()
FUNC 7770 19 0 std::_Wrap_alloc<std::allocator<std::_List_node<google_breakpad::AppMemory,void *> > >::allocate(unsigned int)
FUNC 7790 1b 0 std::allocator<std::_List_node<google_breakpad::AppMemory,void *> >::allocate(unsigned int)
FUNC 77b0 21 0 std::basic_string<wchar_t,std::char_traits<wchar_t>,std::allocator<wchar_t> >::assign(std::basic_string<wchar_t,std::char_traits<wchar_t>,std::allocator<wchar_t> > const &)
FUNC 77e0 2d 0 std::vector<google_breakpad::ExceptionHandler *,std::allocator<google_breakpad::ExceptionHandler *> >::at(unsigned int)
FUNC 7810 2d 0 std::vector<google_breakpad::ExceptionHandler *,std::allocator<google_breakpad::ExceptionHandler *> >::back()
FUNC 7840 25 0 std::basic_string<wchar_t,std::char_traits<wchar_t>,std::allocator<wchar_t> >::begin()
FUNC 7870 2d 0 std::list<google_breakpad::AppMemory,std::allocator<google_breakpad::AppMemory> >::begin()
FUNC 78a0 13 0 std::basic_string<wchar_t,std::char_traits<wchar_t>,std::allocator<wchar_t> >::c_str()
FUNC 78c0 85 0 std::list<google_breakpad::AppMemory,std::allocator<google_breakpad::AppMemory> >::clear()
FUNC 7950 1d 0 std::_Wrap_alloc<std::allocator<std::_List_node<google_breakpad::AppMemory,void *> > >::deallocate(std::_List_node<google_breakpad::AppMemory,void *> *,unsigned int)
FUNC 7970 2e 0 std::basic_string<wchar_t,std::char_traits<wchar_t>,std::allocator<wchar_t> >::end()
FUNC 79a0 22 0 std::list<google_breakpad::AppMemory,std::allocator<google_breakpad::AppMemory> >::end()
FUNC 79d0 23 0 std::vector<google_breakpad::ExceptionHandler *,std::allocator<google_breakpad::ExceptionHandler *> >::end()
FUNC 7a00 4a 0 std::list<google_breakpad::AppMemory,std::allocator<google_breakpad::AppMemory> >::erase(std::_List_const_iterator<std::_List_val<std::_List_simple_types<google_breakpad::AppMemory> > >)
FUNC 7a50 62 0 std::vector<google_breakpad::ExceptionHandler *,std::allocator<google_breakpad::ExceptionHandler *> >::erase(std::_Vector_const_iterator<std::_Vector_val<std::_Simple_types<google_breakpad::ExceptionHandler *> > >)
FUNC 7ac0 20 0 std::list<google_breakpad::AppMemory,std::allocator<google_breakpad::AppMemory> >::front()
FUNC 7ae0 14 0 google_breakpad::ExceptionHandler::get_handle_debug_exceptions()
FUNC 7b00 17 0 std::_Wrap_alloc<std::allocator<std::_List_node<google_breakpad::AppMemory,void *> > >::max_size()
FUNC 7b20 10 0 std::allocator<std::_List_node<google_breakpad::AppMemory,void *> >::max_size()
FUNC 7b30 d 0 std::allocator_traits<std::allocator<std::_List_node<google_breakpad::AppMemory,void *> > >::max_size(std::allocator<std::_List_node<google_breakpad::AppMemory,void *> > const &)
FUNC 7b40 20 0 std::list<google_breakpad::AppMemory,std::allocator<google_breakpad::AppMemory> >::max_size()
FUNC 7b60 11 0 std::pointer_traits<google_breakpad::AppMemory const *>::pointer_to(google_breakpad::AppMemory const &)
FUNC 7b80 39 0 std::vector<google_breakpad::ExceptionHandler *,std::allocator<google_breakpad::ExceptionHandler *> >::pop_back()
FUNC 7bc0 30 0 std::list<google_breakpad::AppMemory,std::allocator<google_breakpad::AppMemory> >::push_back(google_breakpad::AppMemory const &)
FUNC 7bf0 21 0 google_breakpad::scoped_ptr<google_breakpad::CrashGenerationClient>::release()
FUNC 7c20 31c 0 std::basic_string<wchar_t,std::char_traits<wchar_t>,std::allocator<wchar_t> >::replace(unsigned int,unsigned int,std::basic_string<wchar_t,std::char_traits<wchar_t>,std::allocator<wchar_t> > const &,unsigned int,unsigned int)
FUNC 7f40 184 0 std::basic_string<wchar_t,std::char_traits<wchar_t>,std::allocator<wchar_t> >::replace(unsigned int,unsigned int,wchar_t const *,unsigned int)
FUNC 80d0 b3 0 std::basic_string<wchar_t,std::char_traits<wchar_t>,std::allocator<wchar_t> >::replace(std::_String_const_iterator<std::_String_val<std::_Simple_types<wchar_t> > >,std::_String_const_iterator<std::_String_val<std::_Simple_types<wchar_t> > >,std::_String_iterator<std::_String_val<std::_Simple_types<wchar_t> > >,std::_String_iterator<std::_String_val<std::_Simple_types<wchar_t> > >)
FUNC 8190 4b 0 google_breakpad::scoped_ptr<google_breakpad::CrashGenerationClient>::reset(google_breakpad::CrashGenerationClient *)
FUNC 81e0 35 0 google_breakpad::ExceptionHandler::set_dump_path(std::basic_string<wchar_t,std::char_traits<wchar_t>,std::allocator<wchar_t> > const &)
FUNC 8220 e2 0 google_breakpad::WindowsStringUtils::safe_mbstowcs(std::basic_string<char,std::char_traits<char>,std::allocator<char> > const &,std::basic_string<wchar_t,std::char_traits<wchar_t>,std::allocator<wchar_t> > *)
FUNC 8310 e2 0 google_breakpad::WindowsStringUtils::safe_wcstombs(std::basic_string<wchar_t,std::char_traits<wchar_t>,std::allocator<wchar_t> > const &,std::basic_string<char,std::char_traits<char>,std::allocator<char> > *)
FUNC 8400 b5 0 google_breakpad::WindowsStringUtils::GetBaseName(std::basic_string<wchar_t,std::char_traits<wchar_t>,std::allocator<wchar_t> > const &)
FUNC 84c0 34 0 std::_Destroy_range<std::_Wrap_alloc<std::allocator<char> > >(char *,char *,std::_Wrap_alloc<std::allocator<char> > &)
FUNC 8500 30 0 std::_Fill_n<wchar_t *,unsigned int,wchar_t>(wchar_t *,unsigned int,wchar_t const &)
FUNC 8530 17 0 std::_Uninit_def_fill_n<char,unsigned int,char>(char *,unsigned int,std::_Wrap_alloc<std::allocator<char> > &,char *,std::_Scalar_ptr_iterator_tag)
FUNC 8550 22 0 std::_Uninit_def_fill_n<wchar_t,unsigned int,wchar_t>(wchar_t *,unsigned int,std::_Wrap_alloc<std::allocator<wchar_t> > &,wchar_t *,std::_Scalar_ptr_iterator_tag)
FUNC 8580 41 0 std::_Uninitialized_default_fill_n<char *,unsigned int,std::_Wrap_alloc<std::allocator<char> > >(char *,unsigned int,std::_Wrap_alloc<std::allocator<char> > &)
FUNC 85d0 41 0 std::_Uninitialized_default_fill_n<wchar_t *,unsigned int,std::_Wrap_alloc<std::allocator<wchar_t> > >(wchar_t *,unsigned int,std::_Wrap_alloc<std::allocator<wchar_t> > &)
FUNC 8620 18 0 std::_Vector_alloc<0,std::_Vec_base_types<char,std::allocator<char> > >::_Vector_alloc<0,std::_Vec_base_types<char,std::allocator<char> > >(std::allocator<char> const &)
FUNC 8640 1c 0 std::_Wrap_alloc<std::allocator<wchar_t> >::_Wrap_alloc<std::allocator<wchar_t> >(std::allocator<wchar_t> const &)
FUNC 8660 48 0 std::basic_string<wchar_t,std::char_traits<wchar_t>,std::allocator<wchar_t> >::basic_string<wchar_t,std::char_traits<wchar_t>,std::allocator<wchar_t> >(std::basic_string<wchar_t,std::char_traits<wchar_t>,std::allocator<wchar_t> > &&)
FUNC 86b0 53 0 std::basic_string<wchar_t,std::char_traits<wchar_t>,std::allocator<wchar_t> >::basic_string<wchar_t,std::char_traits<wchar_t>,std::allocator<wchar_t> >(std::basic_string<wchar_t,std::char_traits<wchar_t>,std::allocator<wchar_t> > const &)
FUNC 8710 cb 0 std::vector<char,std::allocator<char> >::vector<char,std::allocator<char> >(unsigned int)
FUNC 87e0 ce 0 std::vector<wchar_t,std::allocator<wchar_t> >::vector<wchar_t,std::allocator<wchar_t> >(unsigned int)
FUNC 88b0 13 0 std::vector<char,std::allocator<char> >::~vector<char,std::allocator<char> >()
FUNC 88d0 13 0 std::vector<wchar_t,std::allocator<wchar_t> >::~vector<wchar_t,std::allocator<wchar_t> >()
FUNC 88f0 19 0 std::basic_string<char,std::char_traits<char>,std::allocator<char> >::operator=(char const *)
FUNC 8910 15 0 std::vector<char,std::allocator<char> >::operator[](unsigned int)
FUNC 8930 18 0 std::vector<wchar_t,std::allocator<wchar_t> >::operator[](unsigned int)
FUNC 8950 86 0 std::vector<char,std::allocator<char> >::_Buy(unsigned int)
FUNC 89e0 89 0 std::vector<wchar_t,std::allocator<wchar_t> >::_Buy(unsigned int)
FUNC 8a70 2f 0 std::vector<char,std::allocator<char> >::_Destroy(char *,char *)
FUNC 8aa0 20 0 std::_Fill_n(char *,unsigned int,char)
FUNC 8ac0 75 0 std::vector<char,std::allocator<char> >::_Tidy()
FUNC 8b40 77 0 std::vector<wchar_t,std::allocator<wchar_t> >::_Tidy()
FUNC 8bc0 13 0 std::basic_string<char,std::char_traits<char>,std::allocator<char> >::c_str()
FUNC 8be0 34 0 std::char_traits<wchar_t>::find(wchar_t const *,unsigned int,wchar_t const &)
FUNC 8c20 2a 0 std::basic_string<wchar_t,std::char_traits<wchar_t>,std::allocator<wchar_t> >::find_last_of(wchar_t const *,unsigned int)
FUNC 8c50 a0 0 std::basic_string<wchar_t,std::char_traits<wchar_t>,std::allocator<wchar_t> >::find_last_of(wchar_t const *,unsigned int,unsigned int)
FUNC 8cf0 20 0 std::vector<char,std::allocator<char> >::max_size()
FUNC 8d10 20 0 std::vector<wchar_t,std::allocator<wchar_t> >::max_size()
FUNC 8d30 36 0 wmemchr
FUNC 8d70 110 0 google_breakpad::GUIDString::GUIDToWString(_GUID *)
FUNC 8e80 110 0 google_breakpad::GUIDString::GUIDToSymbolServerWString(_GUID *)
FUNC 8f90 a5 0 google_breakpad::CrashGenerationClient::CrashGenerationClient(wchar_t const *,_MINIDUMP_TYPE,google_breakpad::CustomClientInfo const *)
FUNC 9040 a0 0 google_breakpad::CrashGenerationClient::CrashGenerationClient(void *,_MINIDUMP_TYPE,google_breakpad::CustomClientInfo const *)
FUNC 90e0 55 0 google_breakpad::CrashGenerationClient::~CrashGenerationClient()
FUNC 9140 51 0 google_breakpad::CrashGenerationClient::Register()
FUNC 91a0 96 0 google_breakpad::CrashGenerationClient::RequestUpload(unsigned long)
FUNC 9240 73 0 google_breakpad::CrashGenerationClient::RequestDump(_EXCEPTION_POINTERS *,MDRawAssertionInfo *)
FUNC 92c0 1b 0 google_breakpad::CrashGenerationClient::RequestDump(_EXCEPTION_POINTERS *)
FUNC 92e0 1b 0 google_breakpad::CrashGenerationClient::RequestDump(MDRawAssertionInfo *)
FUNC 9300 b3 0 google_breakpad::CrashGenerationClient::DuplicatePipeToClientProcess(wchar_t const *,void *)
FUNC 93c0 66 0 google_breakpad::CrashGenerationClient::ConnectToServer()
FUNC 9430 ef 0 google_breakpad::CrashGenerationClient::RegisterClient(void *)
FUNC 9520 4e 0 google_breakpad::CrashGenerationClient::ValidateResponse(google_breakpad::ProtocolMessage const &)
FUNC 9570 29 0 google_breakpad::CrashGenerationClient::IsRegistered()
FUNC 95a0 98 0 google_breakpad::CrashGenerationClient::ConnectToPipe(wchar_t const *,unsigned long,unsigned long)
FUNC 9640 78 0 google_breakpad::CrashGenerationClient::SignalCrashEventAndWait()
FUNC 96c0 71 0 google_breakpad::ProtocolMessage::ProtocolMessage(google_breakpad::MessageTag,unsigned long,_MINIDUMP_TYPE,unsigned long *,_EXCEPTION_POINTERS * *,MDRawAssertionInfo *,google_breakpad::CustomClientInfo const &,void *,void *,void *)
FUNC 9740 74 0 google_breakpad::ProtocolMessage::ProtocolMessage()
FUNC 97c0 a9 0 QtServiceController::QtServiceController(QString const &)
FUNC 9870 41 0 QtServiceController::~QtServiceController()
FUNC 98c0 39 0 QtServiceController::serviceName()
FUNC 9900 cf 0 QtServiceController::install(QString const &,QString const &,QString const &)
FUNC 99d0 70 0 QtServiceController::start()
FUNC 9a40 8 0 qGetPtrHelper<QtServiceControllerPrivate>
FUNC 9a50 20b 0 QtServiceBase::QtServiceBase(int,char * *,QString const &)
FUNC 9c60 4b 0 QtServiceBase::~QtServiceBase()
FUNC 9cb0 34 0 QtServiceBase::serviceName()
FUNC 9cf0 34 0 QtServiceBase::serviceDescription()
FUNC 9d30 1f 0 QtServiceBase::setServiceDescription(QString const &)
FUNC 9d50 14 0 QtServiceBase::startupType()
FUNC 9d70 19 0 QtServiceBase::setStartupType(QtServiceController::StartupType)
FUNC 9d90 1e 0 QtServiceBase::serviceFlags()
FUNC 9db0 c84 0 QtServiceBase::exec()
FUNC aa40 a 0 QtServiceBase::instance()
FUNC aa50 b 0 QtServiceBase::stop()
FUNC aa60 b 0 QtServiceBase::pause()
FUNC aa70 b 0 QtServiceBase::resume()
FUNC aa80 d 0 QtServiceBase::processCommand(int)
FUNC aa90 b3 0 QtServiceBasePrivate::QtServiceBasePrivate(QString const &)
FUNC ab50 68 0 QtServiceBasePrivate::~QtServiceBasePrivate()
FUNC abc0 1c 0 QtServiceBasePrivate::startService()
FUNC abe0 247 0 QtServiceBasePrivate::run(bool,QStringList const &)
FUNC ae30 3f 0 QtServiceStarter::metaObject()
FUNC ae70 3d 0 QtServiceStarter::qt_metacast(char const *)
FUNC aeb0 8a 0 QtServiceStarter::qt_metacall(QMetaObject::Call,int,void * *)
FUNC af40 2c 0 QtServiceStarter::qt_static_metacall(QObject *,QMetaObject::Call,int,void * *)
FUNC af70 19 0 QFlags<QArrayData::AllocationOption>::QFlags<QArrayData::AllocationOption>(int QFlags<QArrayData::AllocationOption>::Private::*)
FUNC af90 17 0 QList<QString>::QList<QString>()
FUNC afb0 24 0 QByteArray::QByteArray(QByteArray const &)
FUNC afe0 1b 0 QChar::QChar(char)
FUNC b000 1e 0 QChar::QChar(int)
FUNC b020 41 0 QLatin1String::QLatin1String(char const *)
FUNC b070 3d 0 QMessageLogContext::QMessageLogContext(char const *,int,char const *,char const *)
FUNC b0b0 29 0 QMessageLogger::QMessageLogger(char const *,int,char const *)
FUNC b0e0 2f 0 QString::QString(QLatin1String)
FUNC b110 16 0 QStringList::QStringList()
FUNC b130 16 0 QtServiceControllerPrivate::QtServiceControllerPrivate()
FUNC b150 2c 0 QtServiceStarter::QtServiceStarter(QtServiceBasePrivate *)
FUNC b180 2a 0 QList<QByteArray>::~QList<QByteArray>()
FUNC b1b0 2a 0 QList<QString>::~QList<QString>()
FUNC b1e0 2a 0 QVector<char *>::~QVector<char *>()
FUNC b210 2a 0 QByteArray::~QByteArray()
FUNC b240 13 0 QtServiceControllerPrivate::~QtServiceControllerPrivate()
FUNC b260 1c 0 QStringList::operator<<(QString const &)
FUNC b280 2d 0 QList<QByteArray>::operator[](int)
FUNC b2b0 15 0 QScopedPointer<QObjectData,QScopedPointerDeleter<QObjectData> >::operator->()
FUNC b2d0 1d 0 QFlags<QArrayData::AllocationOption>::operator|=(QArrayData::AllocationOption)
FUNC b2f0 2c 0 QByteArray::`scalar deleting destructor'(unsigned int)
FUNC b320 2c 0 QString::`scalar deleting destructor'(unsigned int)
FUNC b350 2c 0 QtServiceBase::`scalar deleting destructor'(unsigned int)
FUNC b380 2c 0 QtServiceBasePrivate::`scalar deleting destructor'(unsigned int)
FUNC b3b0 2c 0 QtServiceController::`scalar deleting destructor'(unsigned int)
FUNC b3e0 2c 0 QtServiceControllerPrivate::`scalar deleting destructor'(unsigned int)
FUNC b410 16f 0 QList<QByteArray>::append(QByteArray const &)
FUNC b580 16f 0 QList<QString>::append(QString const &)
FUNC b6f0 25 0 QList<QString>::at(int)
FUNC b720 24 0 QListData::at(int)
FUNC b750 1c 0 QListData::begin()
FUNC b770 3a 0 QString::contains(QChar,Qt::CaseSensitivity)
FUNC b7b0 1a 0 QtServiceController::d_func()
FUNC b7d0 13 0 QTypedArrayData<char *>::data()
FUNC b7f0 1f 0 QVector<char *>::data()
FUNC b810 1b 0 QArrayData::data()
FUNC b830 1d 0 QByteArray::data()
FUNC b850 3d 0 QList<QByteArray>::dealloc(QListData::Data *)
FUNC b890 3d 0 QList<QString>::dealloc(QListData::Data *)
FUNC b8d0 15 0 QTypedArrayData<char>::deallocate(QArrayData *)
FUNC b8f0 15 0 QTypedArrayData<char *>::deallocate(QArrayData *)
FUNC b910 24 0 QVector<char *>::destruct(char * *,char * *)
FUNC b940 24 0 QList<QByteArray>::detach()
FUNC b970 24 0 QList<QString>::detach()
FUNC b9a0 64 0 QVector<char *>::detach()
FUNC ba10 4e 0 QByteArray::detach()
FUNC ba60 65 0 QArrayData::detachFlags()
FUNC bad0 da 0 QList<QByteArray>::detach_helper(int)
FUNC bbb0 1c 0 QList<QByteArray>::detach_helper()
FUNC bbd0 da 0 QList<QString>::detach_helper(int)
FUNC bcb0 1c 0 QList<QString>::detach_helper()
FUNC bcd0 186 0 QList<QByteArray>::detach_helper_grow(int,int)
FUNC be60 186 0 QList<QString>::detach_helper_grow(int,int)
FUNC bff0 19 0 QListData::dispose()
FUNC c010 1e 0 QTypedArrayData<char *>::end(char * *)
FUNC c030 1c 0 QListData::end()
FUNC c050 37 0 QVector<char *>::freeData(QTypedArrayData<char *> *)
FUNC c090 54 0 QString::fromLocal8Bit(char const *,int)
FUNC c0f0 a 0 QCoreApplication::instance()
FUNC c100 31 0 QVector<char *>::isDetached()
FUNC c140 37 0 QtPrivate::RefCount::isShared()
FUNC c180 11 0 QLatin1String::latin1()
FUNC c1a0 e6 0 QList<QByteArray>::node_construct(QList<QByteArray>::Node *,QByteArray const &)
FUNC c290 e6 0 QList<QString>::node_construct(QList<QString>::Node *,QString const &)
FUNC c380 223 0 QList<QByteArray>::node_copy(QList<QByteArray>::Node *,QList<QByteArray>::Node *,QList<QByteArray>::Node *)
FUNC c5b0 223 0 QList<QString>::node_copy(QList<QString>::Node *,QList<QString>::Node *,QList<QString>::Node *)
FUNC c7e0 78 0 QList<QByteArray>::node_destruct(QList<QByteArray>::Node *,QList<QByteArray>::Node *)
FUNC c860 52 0 QList<QByteArray>::node_destruct(QList<QByteArray>::Node *)
FUNC c8c0 78 0 QList<QString>::node_destruct(QList<QString>::Node *,QList<QString>::Node *)
FUNC c940 52 0 QList<QString>::node_destruct(QList<QString>::Node *)
FUNC c9a0 3ba 0 QVector<char *>::reallocData(int,int,QFlags<QArrayData::AllocationOption>)
FUNC cd60 49 0 QList<QString>::removeAt(int)
FUNC cdb0 1d 0 QListData::size()
FUNC cdd0 16 0 QtServiceStarter::slotStart()
FUNC cdf0 24 0 QList<QString>::Node::t()
FUNC ce20 19 0 QTypedArrayData<char *>::unsharableEmpty()
FUNC ce40 7b 0 QtServiceController::isInstalled()
FUNC cec0 be 0 QtServiceController::isRunning()
FUNC cf80 1e3 0 QtServiceController::serviceDescription()
FUNC d170 12e 0 QtServiceController::startupType()
FUNC d2a0 1e1 0 QtServiceController::serviceFilePath()
FUNC d490 8f 0 QtServiceController::uninstall()
FUNC d520 13f 0 QtServiceController::start(QStringList const &)
FUNC d660 13d 0 QtServiceController::stop()
FUNC d7a0 a3 0 QtServiceController::pause()
FUNC d850 a3 0 QtServiceController::resume()
FUNC d900 d3 0 QtServiceController::sendCommand(int)
FUNC d9e0 8 0 qGetPtrHelper<QtServiceControllerPrivate>
FUNC d9f0 57 0 QtServiceBase::setServiceFlags(QFlags<QtServiceBase::ServiceFlag>)
FUNC da50 146 0 QtServiceBase::logMessage(QString const &,QtServiceBase::MessageType,int,unsigned int,QByteArray const &)
FUNC dba0 8 0 qGetPtrHelper<QtServiceBasePrivate>
FUNC dbb0 27d 0 QtServiceBasePrivate::install(QString const &,QString const &)
FUNC de30 3fe 0 QtServiceBasePrivate::start()
FUNC e230 6e 0 QtServiceBasePrivate::filePath()
FUNC e2a0 f2 0 QtServiceBasePrivate::sysInit()
FUNC e3a0 b 0 QtServiceBasePrivate::sysSetPath()
FUNC e3b0 4b 0 QtServiceBasePrivate::sysCleanup()
FUNC e400 1cc 0 winServiceInit
FUNC e5d0 3f 0 QtServiceControllerHandler::metaObject()
FUNC e610 3d 0 QtServiceControllerHandler::qt_metacast(char const *)
FUNC e650 32 0 QtServiceControllerHandler::qt_metacall(QMetaObject::Call,int,void * *)
FUNC e690 5 0 QtServiceControllerHandler::qt_static_metacall(QObject *,QMetaObject::Call,int,void * *)
FUNC e6a0 2c 0 QtServiceControllerHandler::QtServiceControllerHandler(QtServiceSysPrivate *)
FUNC e6d0 1c 0 QtServiceControllerHandler::customEvent(QEvent *)
FUNC e6f0 97 0 QtServiceSysPrivate::QtServiceSysPrivate()
FUNC e790 38 0 QtServiceSysPrivate::setStatus(unsigned long)
FUNC e7d0 41 0 QtServiceSysPrivate::setServiceFlags(QFlags<QtServiceBase::ServiceFlag>)
FUNC e820 82 0 QtServiceSysPrivate::serviceFlags(QFlags<QtServiceBase::ServiceFlag>)
FUNC e8b0 136 0 QtServiceSysPrivate::serviceMain(unsigned long,wchar_t * *)
FUNC e9f0 430 0 QtServiceSysPrivate::handler(unsigned long)
FUNC ee20 105 0 QtServiceSysPrivate::handleCustomEvent(QEvent *)
FUNC ef30 3a 0 QtServiceAppEventFilter::nativeEventFilter(QByteArray const &,void *,long *)
FUNC ef70 47 0 ``anonymous namespace'::Q_QGS_qtServiceAppEventFilter::innerFunction'::`8'::Cleanup::~Cleanup
FUNC efc0 1f 0 QGenericAtomicOps<QAtomicOpsBySize<4> >::loadAcquire<int>(int const &)
FUNC efe0 d 0 QGenericAtomicOps<QAtomicOpsBySize<4> >::store<int,int>(int &,int)
FUNC eff0 23 0 QList<QString>::QList<QString>(QList<QString> &&)
FUNC f020 dd 0 QList<QString>::QList<QString>(QList<QString> const &)
FUNC f100 6f 0 QVector<wchar_t const *>::QVector<wchar_t const *>(int)
FUNC f170 2f 0 HandlerThread::HandlerThread()
FUNC f1a0 18 0 QByteArray::QByteArray()
FUNC f1c0 1e 0 QChar::QChar(QLatin1Char)
FUNC f1e0 18 0 QLatin1Char::QLatin1Char(char)
FUNC f200 38 0 QMutexLocker::QMutexLocker(QBasicMutex *)
FUNC f240 45 0 QString::QString(char const *)
FUNC f290 25 0 QStringList::QStringList(QList<QString> &&)
FUNC f2c0 1f 0 QtServiceAppEventFilter::QtServiceAppEventFilter()
FUNC f2e0 13 0 HandlerThread::~HandlerThread()
FUNC f300 13 0 QMutexLocker::~QMutexLocker()
FUNC f320 13 0 QtServiceAppEventFilter::~QtServiceAppEventFilter()
FUNC f340 13 0 QtServiceControllerHandler::~QtServiceControllerHandler()
FUNC f360 86 0 QtServiceSysPrivate::~QtServiceSysPrivate()
FUNC f3f0 28 0 QFlags<QtServiceBase::ServiceFlag>::operator!()
FUNC f420 20 0 QVector<wchar_t const *>::operator[](int)
FUNC f440 2e 0 QFlags<QtServiceBase::ServiceFlag>::operator&(QtServiceBase::ServiceFlag)
FUNC f470 23 0 QGlobalStatic<QtServiceAppEventFilter,&`anonymous namespace'::Q_QGS_qtServiceAppEventFilter::innerFunction(void),QBasicAtomicInteger<int> A0x419c5a08::Q_QGS_qtServiceAppEventFilter::guard>::operator()()
FUNC f4a0 2c 0 HandlerThread::`scalar deleting destructor'(unsigned int)
FUNC f4d0 2c 0 QtServiceAppEventFilter::`scalar deleting destructor'(unsigned int)
FUNC f500 2c 0 QtServiceSysPrivate::`scalar deleting destructor'(unsigned int)
FUNC f530 29 0 QtServiceSysPrivate::available()
FUNC f560 15 0 QTypedArrayData<wchar_t const *>::begin(wchar_t const * *)
FUNC f580 11 0 HandlerThread::calledOk()
FUNC f5a0 1a 0 QtServiceBase::d_func()
FUNC f5c0 78 0 QVector<wchar_t const *>::defaultConstruct(wchar_t const * *,wchar_t const * *)
FUNC f640 f0 0 `anonymous namespace'::Q_QGS_qtServiceAppEventFilter::innerFunction()
FUNC f730 2f 0 QGlobalStatic<QtServiceAppEventFilter,&`anonymous namespace'::Q_QGS_qtServiceAppEventFilter::innerFunction(void),QBasicAtomicInteger<int> A0x419c5a08::Q_QGS_qtServiceAppEventFilter::guard>::isDestroyed()
FUNC f760 17 0 QBasicAtomicInteger<int>::loadAcquire()
FUNC f780 19f 0 QList<QString>::mid(int,int)
FUNC f920 13 0 QMutexLocker::mutex()
FUNC f940 1f 0 QString::prepend(QLatin1String)
FUNC f960 45 0 QList<QString>::reserve(int)
FUNC f9b0 1e2 0 HandlerThread::run()
FUNC fba0 11 0 HandlerThread::runningAsConsole()
FUNC fbc0 a 0 QTypedArrayData<char>::sharedNull()
FUNC fbd0 1d 0 QBasicAtomicInteger<int>::store(int)
FUNC fbf0 12 0 QEvent::type()
FUNC fc10 12 0 QLatin1Char::unicode()
FUNC fc30 31 0 QMutexLocker::unlock()
FUNC fc70 a9 0 main
FUNC fd20 b3 0 EtDaemon::EtDaemon(int,char * *)
FUNC fde0 86 0 EtDaemon::~EtDaemon()
FUNC fe70 d9 0 EtDaemon::start()
FUNC ff50 b 0 EtDaemon::stop()
FUNC ff60 206 0 EtDaemon::init()
FUNC 10170 37 0 QtService<QCoreApplication>::QtService<QCoreApplication>(int,char * *,QString const &)
FUNC 101b0 1c 0 QtService<QCoreApplication>::~QtService<QCoreApplication>()
FUNC 101d0 2c 0 QtService<QCoreApplication>::`scalar deleting destructor'(unsigned int)
FUNC 10200 2c 0 EtDaemon::`scalar deleting destructor'(unsigned int)
FUNC 10230 11 0 QtService<QCoreApplication>::application()
FUNC 10250 93 0 QtService<QCoreApplication>::createApplication(int &,char * *)
FUNC 102f0 10 0 QtService<QCoreApplication>::executeApplication()
FUNC 10300 332 0 ServerSocket::ServerSocket()
FUNC 10640 9b 0 ServerSocket::~ServerSocket()
FUNC 106e0 199 0 ServerSocket::on_newConnection()
FUNC 10880 ba 0 ServerSocket::on_timerTick()
FUNC 10940 30 0 ServerSocket::on_socketDisconnected()
FUNC 10970 51 0 ServerSocket::on_socketError(QAbstractSocket::SocketError)
FUNC 109d0 8d 0 ServerSocket::on_socketStateChanged(QAbstractSocket::SocketState)
FUNC 10a60 94 0 ServerSocket::on_readyRead()
FUNC 10b00 51 0 ServerSocket::on_clientRemotelyDisconnected(int)
FUNC 10b60 71f 0 ServerSocket::processLineFromSocket(QString)
FUNC 11280 bb 0 ServerSocket::terminateSessionAndVpn()
FUNC 11340 e7 0 ServerSocket::closeSocketIfOpened()
FUNC 11430 2f 0 ServerSocket::stopPinging()
FUNC 11460 49 0 ServerSocket::startPinging()
FUNC 114b0 b9 0 ServerSocket::isCurrentClientProcessStillAlive()
FUNC 11570 ed 0 QVector<QString>::QVector<QString>(QVector<QString> const &)
FUNC 11660 2a 0 QVector<QString>::~QVector<QString>()
FUNC 11690 3e 0 QVector<QString>::operator=(QVector<QString> &&)
FUNC 116d0 7c 0 QString::operator=(char const *)
FUNC 11750 2d 0 QList<QString>::operator[](int)
FUNC 11780 7e 0 operator+(QString const &,QString const &)
FUNC 11800 84 0 operator+(char const *,QString const &)
FUNC 11890 2c 0 ServerSocket::`scalar deleting destructor'(unsigned int)
FUNC 118c0 19 0 QTypedArrayData<QString>::allocate(unsigned int,QFlags<QArrayData::AllocationOption>)
FUNC 118e0 1f 0 QVector<QString>::begin()
FUNC 11900 76 0 QVector<QString>::clear()
FUNC 11980 15 0 QString::compare(QString const &,QString const &,Qt::CaseSensitivity)
FUNC 119a0 cc 0 QVector<QString>::copyConstruct(QString const *,QString const *,QString *)
FUNC 11a70 b7 0 QVector<QString>::defaultConstruct(QString *,QString *)
FUNC 11b30 3b 0 QVector<QString>::destruct(QString *,QString *)
FUNC 11b70 64 0 QVector<QString>::detach()
FUNC 11be0 1f 0 QVector<QString>::end()
FUNC 11c00 37 0 QVector<QString>::freeData(QTypedArrayData<QString> *)
FUNC 11c40 13 0 QList<QString>::length()
FUNC 11c60 3dd 0 QVector<QString>::reallocData(int,int,QFlags<QArrayData::AllocationOption>)
FUNC 12040 39 0 StopSessionRequest::StopSessionRequest()
FUNC 12080 219 0 VpnConnector::VpnConnector()
FUNC 122a0 6b 0 VpnConnector::~VpnConnector()
FUNC 12310 6e 0 VpnConnector::connectToVpn(QString)
FUNC 12380 34 0 VpnConnector::terminateVpnConnection()
FUNC 123c0 6e 0 VpnConnector::on_stateChangedEvent()
FUNC 12430 95 0 VpnConnector::on_processStateChanged(QProcess::ProcessState)
FUNC 124d0 14a 0 VpnConnector::on_processError(QProcess::ProcessError)
FUNC 12620 b6 0 VpnConnector::on_processReadyReadStandardError()
FUNC 126e0 b6 0 VpnConnector::on_processReadyReadStandardOutput()
FUNC 127a0 95 0 VpnConnector::on_socketStateChanged(QAbstractSocket::SocketState)
FUNC 12840 d9 0 VpnConnector::on_socketError(QAbstractSocket::SocketError)
FUNC 12920 c3 0 VpnConnector::on_socketReadyRead()
FUNC 129f0 65 0 VpnConnector::on_timerTick()
FUNC 12a60 6b 0 VpnConnector::startNewConnection()
FUNC 12ad0 7f 0 VpnConnector::endCurrentConnection()
FUNC 12b50 4a 0 VpnConnector::endCurrentProcess()
FUNC 12ba0 147 0 VpnConnector::sendManagementCommand(QString)
FUNC 12cf0 4e8 0 VpnConnector::buildOpenVpnCommandArgsList(QStringList &)
FUNC 131e0 1f9 0 VpnConnector::startProcess()
FUNC 133e0 df 0 VpnConnector::connectSocket()
FUNC 134c0 43 0 VpnConnector::startVpn()
FUNC 13510 be 0 VpnConnector::cleanupQProcess()
FUNC 135d0 2da 0 std::operator<<<char,std::char_traits<char>,std::allocator<char> >(std::basic_ostream<char,std::char_traits<char> > &,std::basic_string<char,std::char_traits<char>,std::allocator<char> > const &)
FUNC 138b0 329 0 std::operator<<<std::char_traits<char> >(std::basic_ostream<char,std::char_traits<char> > &,char const *)
FUNC 13be0 48 0 std::basic_string<char,std::char_traits<char>,std::allocator<char> >::basic_string<char,std::char_traits<char>,std::allocator<char> >(std::basic_string<char,std::char_traits<char>,std::allocator<char> > &&)
FUNC 13c30 3f 0 std::basic_string<char,std::char_traits<char>,std::allocator<char> >::basic_string<char,std::char_traits<char>,std::allocator<char> >(char const *,unsigned int)
FUNC 13c70 2d 0 std::basic_string<char,std::char_traits<char>,std::allocator<char> >::basic_string<char,std::char_traits<char>,std::allocator<char> >()
FUNC 13ca0 7e 0 std::basic_stringbuf<char,std::char_traits<char>,std::allocator<char> >::basic_stringbuf<char,std::char_traits<char>,std::allocator<char> >(int)
FUNC 13d20 d3 0 std::basic_stringstream<char,std::char_traits<char>,std::allocator<char> >::basic_stringstream<char,std::char_traits<char>,std::allocator<char> >(int)
FUNC 13e00 39 0 std::fpos<int>::fpos<int>(__int64)
FUNC 13e40 a9 0 ETCustomException::ETCustomException(std::basic_string<char,std::char_traits<char>,std::allocator<char> >,std::basic_string<char,std::char_traits<char>,std::allocator<char> >)
FUNC 13ef0 17 0 ETException::ETException()
FUNC 13f10 41 0 QString::QString(QByteArray const &)
FUNC 13f60 60 0 std::basic_ostream<char,std::char_traits<char> >::_Sentry_base::_Sentry_base(std::basic_ostream<char,std::char_traits<char> > &)
FUNC 13fc0 cd 0 std::basic_ostream<char,std::char_traits<char> >::sentry::sentry(std::basic_ostream<char,std::char_traits<char> > &)
FUNC 14090 17 0 std::basic_string<char,std::char_traits<char>,std::allocator<char> >::~basic_string<char,std::char_traits<char>,std::allocator<char> >()
FUNC 140b0 25 0 std::basic_stringbuf<char,std::char_traits<char>,std::allocator<char> >::~basic_stringbuf<char,std::char_traits<char>,std::allocator<char> >()
FUNC 140e0 52 0 std::basic_stringstream<char,std::char_traits<char>,std::allocator<char> >::~basic_stringstream<char,std::char_traits<char>,std::allocator<char> >()
FUNC 14140 55 0 std::basic_ostream<char,std::char_traits<char> >::_Sentry_base::~_Sentry_base()
FUNC 141a0 2b 0 std::basic_ostream<char,std::char_traits<char> >::sentry::~sentry()
FUNC 141d0 74 0 std::basic_string<char,std::char_traits<char>,std::allocator<char> >::operator=(std::basic_string<char,std::char_traits<char>,std::allocator<char> > const &)
FUNC 14250 20 0 QByteArray::operator=(QByteArray &&)
FUNC 14270 6f 0 QString::operator=(QString::Null const &)
FUNC 142e0 22 0 std::fpos<int>::operator __int64()
FUNC 14310 11 0 std::basic_ostream<char,std::char_traits<char> >::sentry::operator bool()
FUNC 14330 86 0 operator+(char const *,QByteArray const &)
FUNC 143c0 19 0 QByteArray::operator+=(QByteArray const &)
FUNC 143e0 22 0 std::basic_stringstream<char,std::char_traits<char>,std::allocator<char> >::`vbase destructor'()
FUNC 14410 2c 0 std::basic_stringbuf<char,std::char_traits<char>,std::allocator<char> >::`scalar deleting destructor'(unsigned int)
FUNC 14440 35 0 std::basic_stringstream<char,std::char_traits<char>,std::allocator<char> >::`scalar deleting destructor'(unsigned int)
FUNC 14480 2c 0 VpnConnector::`scalar deleting destructor'(unsigned int)
FUNC 144b0 7c 0 std::basic_string<char,std::char_traits<char>,std::allocator<char> >::_Assign_rv(std::basic_string<char,std::char_traits<char>,std::allocator<char> > &&)
FUNC 14530 5d 0 std::basic_stringbuf<char,std::char_traits<char>,std::allocator<char> >::_Getstate(int)
FUNC 14590 101 0 std::basic_stringbuf<char,std::char_traits<char>,std::allocator<char> >::_Init(char const *,unsigned int,int)
FUNC 146a0 98 0 std::basic_stringbuf<char,std::char_traits<char>,std::allocator<char> >::_Tidy()
FUNC 14740 21 0 std::basic_string<char,std::char_traits<char>,std::allocator<char> >::assign(std::basic_string<char,std::char_traits<char>,std::allocator<char> > const &)
FUNC 14770 13 0 std::basic_string<char,std::char_traits<char>,std::allocator<char> >::data()
FUNC 14790 8 0 std::char_traits<char>::eof()
FUNC 147a0 2b 0 std::char_traits<char>::eq(char const &,char const &)
FUNC 147d0 27 0 std::char_traits<char>::eq_int_type(int const &,int const &)
FUNC 14800 39 0 QString::fromStdString(std::basic_string<char,std::char_traits<char>,std::allocator<char> > const &)
FUNC 14840 2b 0 QByteArray::isEmpty()
FUNC 14870 44 0 QStringList::join(QString const &)
FUNC 148c0 42 0 std::char_traits<char>::not_eof(int const &)
FUNC 14910 2f1 0 std::basic_stringbuf<char,std::char_traits<char>,std::allocator<char> >::overflow(int)
FUNC 14c10 f0 0 std::basic_stringbuf<char,std::char_traits<char>,std::allocator<char> >::pbackfail(int)
FUNC 14d00 45 0 qstrnlen(char const *,unsigned int)
FUNC 14d50 2b8 0 std::basic_stringbuf<char,std::char_traits<char>,std::allocator<char> >::seekoff(__int64,int,int)
FUNC 15010 1fe 0 std::basic_stringbuf<char,std::char_traits<char>,std::allocator<char> >::seekpos(std::fpos<int>,int)
FUNC 15210 148 0 std::basic_stringbuf<char,std::char_traits<char>,std::allocator<char> >::str()
FUNC 15360 31 0 std::basic_stringstream<char,std::char_traits<char>,std::allocator<char> >::str()
FUNC 153a0 3c 0 QByteArray::toStdString()
FUNC 153e0 80 0 QString::toStdString()
FUNC 15460 a 0 std::char_traits<char>::to_char_type(int const &)
FUNC 15470 b 0 std::char_traits<char>::to_int_type(char const &)
FUNC 15480 fd 0 std::basic_stringbuf<char,std::char_traits<char>,std::allocator<char> >::underflow()
FUNC 15580 11a 0 ETCustomException::what()
FUNC 156a0 2f 0 ETException::what()
FUNC 156d0 29 0 QIODevice::write(QByteArray const &)
FUNC 15700 140 0 SilentUpdater::SilentUpdater()
FUNC 15840 95 0 SilentUpdater::~SilentUpdater()
FUNC 158e0 db 0 SilentUpdater::forceUpdateNow()
FUNC 159c0 107 0 SilentUpdater::getActivityReport()
FUNC 15ad0 ed 0 SilentUpdater::startUpdate(Update *)
FUNC 15bc0 36 0 SilentUpdater::resetState()
FUNC 15c00 227 0 SilentUpdater::shouldReplaceExistingUpdate(Update *)
FUNC 15e30 2a1 0 SilentUpdater::updaterPath()
FUNC 160e0 1e6 0 SilentUpdater::on_timerTick()
FUNC 162d0 1e4 0 SilentUpdater::on_updateAvailable(QString)
FUNC 164c0 51 0 SilentUpdater::on_activityRequestSucceeded(Response *)
FUNC 16520 31 0 SilentUpdater::on_activityRequestFailed(QNetworkReply::NetworkError)
FUNC 16560 2f 0 SilentUpdater::on_activityRequestTimeout()
FUNC 16590 32 0 SilentUpdater::on_installerRequestFailed(QNetworkReply::NetworkError)
FUNC 165d0 30 0 SilentUpdater::on_installerRequestTimeout()
FUNC 16600 63f 0 SilentUpdater::on_installerAvailable(QString)
FUNC 16c40 19 0 QDateTime::operator>(QDateTime const &)
FUNC 16c60 2c 0 SilentUpdater::`scalar deleting destructor'(unsigned int)
FUNC 16c90 2c 0 Update::`scalar deleting destructor'(unsigned int)
FUNC 16cc0 1d 0 QString::data()
FUNC 16ce0 3d 0 QString::detach()
FUNC 16d20 13 0 QString::size()
FUNC 16d40 32 0 swprintf(wchar_t *,wchar_t const *,...)
FUNC 16d80 62 0 QString::toWCharArray(wchar_t *)
FUNC 16df0 55 0 std::to_string(unsigned long)
FUNC 16e50 a8 0 InstallerRequest::InstallerRequest(Update *)
FUNC 16f00 1c 0 InstallerRequest::~InstallerRequest()
FUNC 16f20 2a4 0 InstallerRequest::sendHttpRequest()
FUNC 171d0 7d 0 InstallerRequest::on_httpReadyRead()
FUNC 17250 50 0 InstallerRequest::on_httpDownloadFinished()
FUNC 172a0 19 0 InstallerRequest::on_error(QNetworkReply::NetworkError)
FUNC 172c0 2c 0 InstallerRequest::`scalar deleting destructor'(unsigned int)
FUNC 172f0 2b 0 StaticQGenericEnginePluginPluginInstance::StaticQGenericEnginePluginPluginInstance()
FUNC 17320 2b 0 StaticQNativeWifiEnginePluginPluginInstance::StaticQNativeWifiEnginePluginPluginInstance()
FUNC 17350 3f 0 ServerSocket::metaObject()
FUNC 17390 3d 0 ServerSocket::qt_metacast(char const *)
FUNC 173d0 8e 0 ServerSocket::qt_metacall(QMetaObject::Call,int,void * *)
FUNC 17460 18c 0 ServerSocket::qt_static_metacall(QObject *,QMetaObject::Call,int,void * *)
FUNC 175f0 a 0 QtPrivate::QMetaTypeIdHelper<QAbstractSocket::SocketError,1>::qt_metatype_id()
FUNC 17600 a 0 qMetaTypeId<QAbstractSocket::SocketState>()
FUNC 17610 74 0 qRegisterMetaType<QAbstractSocket::SocketError>(char const *,QAbstractSocket::SocketError *,QtPrivate::MetaTypeDefinedHelper<QAbstractSocket::SocketError,1>::DefinedType)
FUNC 17690 a 0 qRegisterMetaType<QAbstractSocket::SocketError>()
FUNC 176a0 74 0 qRegisterMetaType<QAbstractSocket::SocketState>(char const *,QAbstractSocket::SocketState *,QtPrivate::MetaTypeDefinedHelper<QAbstractSocket::SocketState,1>::DefinedType)
FUNC 17720 a 0 qRegisterMetaType<QAbstractSocket::SocketState>()
FUNC 17730 d4 0 qRegisterNormalizedMetaType<QAbstractSocket::SocketError>(QByteArray const &,QAbstractSocket::SocketError *,QtPrivate::MetaTypeDefinedHelper<QAbstractSocket::SocketError,1>::DefinedType)
FUNC 17810 d4 0 qRegisterNormalizedMetaType<QAbstractSocket::SocketState>(QByteArray const &,QAbstractSocket::SocketState *,QtPrivate::MetaTypeDefinedHelper<QAbstractSocket::SocketState,1>::DefinedType)
FUNC 178f0 11 0 QGenericAtomicOps<QAtomicOpsBySize<4> >::releaseMemoryFence<int>(int const &)
FUNC 17910 19 0 QGenericAtomicOps<QAtomicOpsBySize<4> >::storeRelease<int,int>(int &,int)
FUNC 17930 6f 0 QtMetaTypePrivate::QMetaTypeFunctionHelper<QAbstractSocket::SocketState,1>::Create(void const *)
FUNC 179a0 a 0 QMetaTypeId2<QAbstractSocket::SocketError>::qt_metatype_id()
FUNC 179b0 a 0 QMetaTypeId2<QAbstractSocket::SocketState>::qt_metatype_id()
FUNC 179c0 47 0 QMetaTypeId<QAbstractSocket::SocketError>::qt_metatype_id()
FUNC 17a10 47 0 QMetaTypeId<QAbstractSocket::SocketState>::qt_metatype_id()
FUNC 17a60 7 0 QtPrivate::IsPair<QAbstractSocket::SocketError>::registerConverter(int)
FUNC 17a70 1d 0 QBasicAtomicInteger<int>::storeRelease(int)
FUNC 17a90 3f 0 VpnConnector::metaObject()
FUNC 17ad0 3d 0 VpnConnector::qt_metacast(char const *)
FUNC 17b10 8e 0 VpnConnector::qt_metacall(QMetaObject::Call,int,void * *)
FUNC 17ba0 1bc 0 VpnConnector::qt_static_metacall(QObject *,QMetaObject::Call,int,void * *)
FUNC 17d60 3f 0 SilentUpdater::metaObject()
FUNC 17da0 3d 0 SilentUpdater::qt_metacast(char const *)
FUNC 17de0 8e 0 SilentUpdater::qt_metacall(QMetaObject::Call,int,void * *)
FUNC 17e70 230 0 SilentUpdater::qt_static_metacall(QObject *,QMetaObject::Call,int,void * *)
FUNC 180a0 2d 0 qMax<unsigned int>(unsigned int const &,unsigned int const &)
FUNC 180d0 a 0 qRegisterMetaType<Response *>()
FUNC 180e0 74 0 qRegisterMetaType<QNetworkReply::NetworkError>(char const *,QNetworkReply::NetworkError *,QtPrivate::MetaTypeDefinedHelper<QNetworkReply::NetworkError,1>::DefinedType)
FUNC 18160 a 0 qRegisterMetaType<QNetworkReply::NetworkError>()
FUNC 18170 d4 0 qRegisterNormalizedMetaType<Response *>(QByteArray const &,Response * *,QtPrivate::MetaTypeDefinedHelper<Response *,1>::DefinedType)
FUNC 18250 d4 0 qRegisterNormalizedMetaType<QNetworkReply::NetworkError>(QByteArray const &,QNetworkReply::NetworkError *,QtPrivate::MetaTypeDefinedHelper<QNetworkReply::NetworkError,1>::DefinedType)
FUNC 18330 59 0 QtMetaTypePrivate::QMetaTypeFunctionHelper<QNetworkReply::NetworkError,1>::Construct(void *,void const *)
FUNC 18390 1a 0 QtMetaTypePrivate::QMetaTypeFunctionHelper<Response *,1>::Delete(void *)
FUNC 183b0 a 0 QMetaTypeId2<Response *>::qt_metatype_id()
FUNC 183c0 a 0 QMetaTypeId2<QNetworkReply::NetworkError>::qt_metatype_id()
FUNC 183d0 47 0 QMetaTypeId<QNetworkReply::NetworkError>::qt_metatype_id()
FUNC 18420 a 0 QtPrivate::QMetaTypeIdHelper<Response *,1>::qt_metatype_id()
FUNC 18430 a 0 qMetaTypeId<QNetworkReply::NetworkError>()
FUNC 18440 d1 0 QMetaTypeIdQObject<Response *,1>::qt_metatype_id()
FUNC 18520 9c 0 QByteArray::reserve(int)
FUNC 185c0 a 0 QtPrivate::MetaObjectForType<Response *,1>::value()
FUNC 185d0 7 0 QtPrivate::MetaObjectForType<QNetworkReply::NetworkError,0>::value()
FUNC 185e0 3f 0 InstallerRequest::metaObject()
FUNC 18620 3d 0 InstallerRequest::qt_metacast(char const *)
FUNC 18660 8e 0 InstallerRequest::qt_metacall(QMetaObject::Call,int,void * *)
FUNC 186f0 1cc 0 InstallerRequest::qt_static_metacall(QObject *,QMetaObject::Call,int,void * *)
FUNC 188c0 73 0 InstallerRequest::sig_installerAvailable(QString)
FUNC 18940 33 0 InstallerRequest::sig_RequestFailed(QNetworkReply::NetworkError)
FUNC 18980 130 0 BreakpadHandler::init(QString)
FUNC 18ab0 cf 0 BreakpadHandler::getInstance()
FUNC 18b80 e2 0 BreakpadHandler::BreakpadHandler(QString)
FUNC 18c70 37 0 BreakpadHandler::~BreakpadHandler()
FUNC 18cb0 15d 0 BreakpadHandler::qMinidumpCallback(QFile &,void *)
FUNC 18e10 15c 0 BreakpadHandler::getTempDirPath(QString *)
FUNC 18f70 7f 0 operator+(QString const &,QChar)
FUNC 18ff0 a4 0 QString::operator+=(QChar)
FUNC 190a0 2c 0 BreakpadContext::`scalar deleting destructor'(unsigned int)
FUNC 190d0 a9 0 CommandLineParser::getInstance()
FUNC 19180 f1 0 CommandLineParser::createInstance(int,char * * const)
FUNC 19280 8d 0 CommandLineParser::~CommandLineParser()
FUNC 19310 7d 0 CommandLineParser::silentUpdaterPingInterval()
FUNC 19390 7d 0 CommandLineParser::updatePingerPingInterval()
FUNC 19410 350 0 CommandLineParser::CommandLineParser(QStringList)
FUNC 19760 1c 0 QStringList::QStringList(QStringList const &)
FUNC 19780 2c 0 QCommandLineOption::`scalar deleting destructor'(unsigned int)
FUNC 197b0 2c 0 QCommandLineParser::`scalar deleting destructor'(unsigned int)
FUNC 197e0 2d 0 std::exception::`scalar deleting destructor'(unsigned int)
FUNC 19810 7e 0 ErrorReportTest::handleMainArgs(int,char * * const)
FUNC 19890 33 0 ErrorReportTest::crash()
FUNC 198d0 1d 0 ErrorReportTest::exception()
FUNC 198f0 bd 0 ErrorReportTest::fatalError()
FUNC 199b0 e 0 StringsHelper::StringsHelper()
FUNC 199c0 ec 0 StringsHelper::basicCheck(QString)
FUNC 19ab0 af 0 StringsHelper::base64Encode(QString)
FUNC 19b60 b3 0 StringsHelper::base64Decode(QString)
FUNC 19c20 86 0 StringsHelper::trim(std::basic_string<char,std::char_traits<char>,std::allocator<char> >)
FUNC 19cb0 2d 0 StringsHelper::LPTSTRtoQString(wchar_t * const)
FUNC 19ce0 2d 0 StringsHelper::LPTSTRtoQString(wchar_t const *)
FUNC 19d10 48 0 QString::operator==(char const *)
FUNC 19d60 76 0 QByteArray::append(QString const &)
FUNC 19de0 35 0 std::char_traits<char>::find(char const *,unsigned int,char const &)
FUNC 19e20 2a 0 std::basic_string<char,std::char_traits<char>,std::allocator<char> >::find_last_not_of(char const *,unsigned int)
FUNC 19e50 91 0 std::basic_string<char,std::char_traits<char>,std::allocator<char> >::find_last_not_of(char const *,unsigned int,unsigned int)
FUNC 19ef0 86 0 Logging::getInstance()
FUNC 19f80 93 0 Logging::debug(QString)
FUNC 1a020 93 0 Logging::info(QString)
FUNC 1a0c0 93 0 Logging::error(QString)
FUNC 1a160 31 0 Logging::getAppName()
FUNC 1a1a0 253 0 Logging::getRecentLogs(QString)
FUNC 1a400 154 0 Logging::setPath(QDir const *,QString)
FUNC 1a560 65 0 Logging::Logging()
FUNC 1a5d0 76 0 Logging::~Logging()
FUNC 1a650 213 0 Logging::log(QString,QString)
FUNC 1a870 12f 0 Logging::readFile(QString *,QFile *,int)
FUNC 1a9a0 1b8 0 Logging::readLastCharacters(QFile *,int *)
FUNC 1ab60 22b 0 Logging::getLogPath(QDir const *,int,bool,QString)
FUNC 1ad90 33 0 std::vector<QDir const *,std::allocator<QDir const *> >::_Umove<QDir const * *>(QDir const * *,QDir const * *,QDir const * *)
FUNC 1add0 45 0 std::_Uninit_move<QDir const * *,QDir const * *,std::_Wrap_alloc<std::allocator<QDir const *> > >(QDir const * *,QDir const * *,QDir const * *,std::_Wrap_alloc<std::allocator<QDir const *> > &)
FUNC 1ae20 32 0 std::_Uninit_move<QDir const *,QDir const *,QDir const *>(QDir const * *,QDir const * *,QDir const * *,std::_Wrap_alloc<std::allocator<QDir const *> > &,QDir const * *,std::_Scalar_ptr_iterator_tag)
FUNC 1ae60 47 0 std::_Uninitialized_move<QDir const * *,QDir const * *,std::_Wrap_alloc<std::allocator<QDir const *> > >(QDir const * *,QDir const * *,QDir const * *,std::_Wrap_alloc<std::allocator<QDir const *> > &)
FUNC 1aeb0 8 0 std::addressof<QDir const * const>(QDir const * const &)
FUNC 1aec0 33 0 std::endl<char,std::char_traits<char> >(std::basic_ostream<char,std::char_traits<char> > &)
FUNC 1af00 1d 0 QFlags<QIODevice::OpenModeFlag>::QFlags<QIODevice::OpenModeFlag>(QFlag)
FUNC 1af20 47 0 QStringRef::QStringRef(QString const *)
FUNC 1af70 13 0 std::vector<QDir const *,std::allocator<QDir const *> >::~vector<QDir const *,std::allocator<QDir const *> >()
FUNC 1af90 f 0 operator<<(QTextStream &,QTextStream & (*)(QTextStream &))
FUNC 1afa0 18 0 std::vector<QDir const *,std::allocator<QDir const *> >::operator[](unsigned int)
FUNC 1afc0 2e 0 QFlags<QIODevice::OpenModeFlag>::operator|(QIODevice::OpenModeFlag)
FUNC 1aff0 26 0 operator|(QDir::Filter,QDir::Filter)
FUNC 1b020 19 0 QString::operator+=(QStringRef const &)
FUNC 1b040 78 0 std::vector<QDir const *,std::allocator<QDir const *> >::_Tidy()
FUNC 1b0c0 16 0 std::vector<QDir const *,std::allocator<QDir const *> >::_Xlen()
FUNC 1b0e0 19 0 std::vector<QDir const *,std::allocator<QDir const *> >::capacity()
FUNC 1b100 3f 0 std::allocator<QDir const *>::construct(QDir const * *,QDir const * const &)
FUNC 1b140 d 0 std::allocator_traits<std::allocator<QDir const *> >::max_size(std::allocator<QDir const *> const &)
FUNC 1b150 20 0 std::vector<QDir const *,std::allocator<QDir const *> >::max_size()
FUNC 1b170 19 0 std::vector<QDir const *,std::allocator<QDir const *> >::size()
FUNC 1b190 12d 0 LocalStateHolder::createInstance(int,int,QString)
FUNC 1b2c0 c8 0 LocalStateHolder::getInstance()
FUNC 1b390 24 0 LocalStateHolder::hasInstance()
FUNC 1b3c0 3e 0 LocalStateHolder::destroyInstance()
FUNC 1b400 16 0 LocalStateHolder::~LocalStateHolder()
FUNC 1b420 10 0 LocalStateHolder::getUserId()
FUNC 1b430 31 0 LocalStateHolder::getB64Password()
FUNC 1b470 11 0 LocalStateHolder::getClientId()
FUNC 1b490 1dc 0 LocalStateHolder::updateETState(rapidjson::GenericDocument<rapidjson::UTF8<char>,rapidjson::MemoryPoolAllocator<rapidjson::CrtAllocator> > const *)
FUNC 1b670 11 0 LocalStateHolder::getLatestETState()
FUNC 1b690 c2 0 LocalStateHolder::LocalStateHolder(int,int,QString)
FUNC 1b760 2c 0 ETState::`scalar deleting destructor'(unsigned int)
FUNC 1b790 2c 0 LocalStateHolder::`scalar deleting destructor'(unsigned int)
FUNC 1b7c0 86 0 DataStore::getInstance()
FUNC 1b850 b 0 DataStore::~DataStore()
FUNC 1b860 1a2 0 DataStore::getLatestClientInfo(QString *,QString *)
FUNC 1ba10 2e8 0 DataStore::saveNewClientInfo(QString,int,QString)
FUNC 1bd00 a1 0 DataStore::saveLatestClientInfo()
FUNC 1bdb0 114 0 DataStore::getLatestScheduledUpdate(Update *)
FUNC 1bed0 85 0 DataStore::saveScheduledUpdate(Update *)
FUNC 1bf60 108 0 DataStore::deleteScheduledUpdate()
FUNC 1c070 2c7 0 DataStore::retrieveExistingClientIds(QString,QString,int *,int *)
FUNC 1c340 f9 0 DataStore::saveCerts(CertificateContainer const *)
FUNC 1c440 148 0 DataStore::getClientDataDir()
FUNC 1c590 4b 0 DataStore::resetClientDataDir()
FUNC 1c5e0 10 0 DataStore::getUserDataRootDir()
FUNC 1c5f0 11 0 DataStore::getSystemDataRootDir()
FUNC 1c610 cc 0 DataStore::setUserDataRootDir(QString)
FUNC 1c6e0 185 0 DataStore::resetUserDataRootDir()
FUNC 1c870 3a 0 DataStore::getRootCertPath()
FUNC 1c8b0 3a 0 DataStore::getClientCertPath()
FUNC 1c8f0 3a 0 DataStore::getClientKeyPath()
FUNC 1c930 84 0 DataStore::setSystemLogging(QString)
FUNC 1c9c0 84 0 DataStore::setClientLogging(QString)
FUNC 1ca50 19d 0 DataStore::DataStore()
FUNC 1cbf0 1f7 0 DataStore::getUserDataRootDirPath(QString *)
FUNC 1cdf0 1f7 0 DataStore::getSystemDataRootDirPath(QString *)
FUNC 1cff0 59 0 std::basic_string<char,std::char_traits<char>,std::allocator<char> >::basic_string<char,std::char_traits<char>,std::allocator<char> ><std::_String_iterator<std::_String_val<std::_Simple_types<wchar_t> > >,void>(std::_String_iterator<std::_String_val<std::_Simple_types<wchar_t> > >,std::_String_iterator<std::_String_val<std::_Simple_types<wchar_t> > >)
FUNC 1d050 dd 0 std::basic_string<char,std::char_traits<char>,std::allocator<char> >::_Construct<std::_String_iterator<std::_String_val<std::_Simple_types<wchar_t> > > >(std::_String_iterator<std::_String_val<std::_Simple_types<wchar_t> > >,std::_String_iterator<std::_String_val<std::_Simple_types<wchar_t> > >,std::forward_iterator_tag)
FUNC 1d130 1b 0 std::_Distance2<std::_String_iterator<std::_String_val<std::_Simple_types<wchar_t> > >,unsigned int>(std::_String_iterator<std::_String_val<std::_Simple_types<wchar_t> > >,std::_String_iterator<std::_String_val<std::_Simple_types<wchar_t> > >,unsigned int &,std::random_access_iterator_tag)
FUNC 1d150 32 0 std::_Distance<std::_String_iterator<std::_String_val<std::_Simple_types<wchar_t> > >,unsigned int>(std::_String_iterator<std::_String_val<std::_Simple_types<wchar_t> > >,std::_String_iterator<std::_String_val<std::_Simple_types<wchar_t> > >,unsigned int &)
FUNC 1d190 13 0 std::_Iter_cat<std::_String_iterator<std::_String_val<std::_Simple_types<wchar_t> > > >(std::_String_iterator<std::_String_val<std::_Simple_types<wchar_t> > > const &)
FUNC 1d1b0 63 0 QListIterator<QString>::QListIterator<QString>(QList<QString> const &)
FUNC 1d220 53 0 std::basic_string<char,std::char_traits<char>,std::allocator<char> >::basic_string<char,std::char_traits<char>,std::allocator<char> >(std::basic_string<char,std::char_traits<char>,std::allocator<char> > const &)
FUNC 1d280 7f 0 ETIOException::ETIOException(std::basic_string<char,std::char_traits<char>,std::allocator<char> >)
FUNC 1d300 c6 0 ETIONotFoundException::ETIONotFoundException(std::basic_string<char,std::char_traits<char>,std::allocator<char> >,std::basic_string<char,std::char_traits<char>,std::allocator<char> >)
FUNC 1d3d0 13 0 QListIterator<QString>::~QListIterator<QString>()
FUNC 1d3f0 16 0 ETIOException::~ETIOException()
FUNC 1d410 2e 0 QList<QString>::const_iterator::operator!=(QList<QString>::const_iterator const &)
FUNC 1d440 15 0 QList<QString>::const_iterator::operator*()
FUNC 1d460 1b 0 std::_String_const_iterator<std::_String_val<std::_Simple_types<wchar_t> > >::operator++()
FUNC 1d480 16 0 std::_String_iterator<std::_String_val<std::_Simple_types<wchar_t> > >::operator++()
FUNC 1d4a0 33 0 QList<QString>::const_iterator::operator++(int)
FUNC 1d4e0 2c 0 QDir::`scalar deleting destructor'(unsigned int)
FUNC 1d510 4a 0 std::basic_string<char,std::char_traits<char>,std::allocator<char> >::_Chassign(unsigned int,unsigned int,char)
FUNC 1d560 76 0 std::basic_string<char,std::char_traits<char>,std::allocator<char> >::append(unsigned int,char)
FUNC 1d5e0 1a 0 std::char_traits<char>::assign(char *,unsigned int,char)
FUNC 1d600 21 0 QList<QString>::constBegin()
FUNC 1d630 21 0 QList<QString>::constEnd()
FUNC 1d660 25 0 QListIterator<QString>::hasNext()
FUNC 1d690 25 0 QListIterator<QString>::next()
FUNC 1d6c0 4f 0 std::basic_string<char,std::char_traits<char>,std::allocator<char> >::reserve(unsigned int)
FUNC 1d710 fc 0 ETIOException::what()
FUNC 1d810 14b 0 ETIONotFoundException::what()
FUNC 1d960 e 0 WinProcessUtils::WinProcessUtils()
FUNC 1d970 b 0 WinProcessUtils::~WinProcessUtils()
FUNC 1d980 64 0 WinProcessUtils::StartProcess(wchar_t const *,unsigned long)
FUNC 1d9f0 1da 0 WinProcessUtils::SerializeClientInfo(QString,QString,QString,wchar_t const *,int)
FUNC 1dbd0 1ac 0 WinProcessUtils::ParseClientInfo(QString *,QString *,QString *,wchar_t const *)
FUNC 1dd80 1d 0 WinProcessUtils::CreateSharedMemory(wchar_t const *,int)
FUNC 1dda0 1b 0 WinProcessUtils::CreateSharedMemory(int)
FUNC 1ddc0 13c 0 WinProcessUtils::WriteMessageToSharedMemory(void *,wchar_t const *,int)
FUNC 1df00 58 0 WinProcessUtils::ReadMessageFromSharedMemory(void *,wchar_t const *,int)
FUNC 1df60 3b 0 WinProcessUtils::GetInheritableHandle(void *,void * *)
FUNC 1dfa0 2e 0 WinProcessUtils::SetEnvironmentVar(wchar_t const *,wchar_t *,int)
FUNC 1dfd0 34 0 WinProcessUtils::ReadEnvironmentVariable(wchar_t const *,wchar_t *,int)
FUNC 1e010 17 0 WinProcessUtils::Print(wchar_t const *)
FUNC 1e030 21f 0 WinProcessUtils::processNameFromPid(unsigned long)
FUNC 1e250 2c 0 Serializer::`scalar deleting destructor'(unsigned int)
FUNC 1e280 86 0 EventAggregator::getInstance()
FUNC 1e310 13 0 EventAggregator::raiseStateChangeEvent()
FUNC 1e330 13 0 EventAggregator::raiseAuthSucceededEvent()
FUNC 1e350 19 0 EventAggregator::raiseAuthFailedEvent(int)
FUNC 1e370 13 0 EventAggregator::raiseLogOffRequestedEvent()
FUNC 1e390 1a 0 EventAggregator::raiseMainWinDisabledEvent(bool)
FUNC 1e3b0 13 0 EventAggregator::raiseReconnectAllEvent()
FUNC 1e3d0 13 0 EventAggregator::raiseSecondaryDialogs()
FUNC 1e3f0 69 0 EventAggregator::raiseUpdateAvailable(QString)
FUNC 1e460 19 0 EventAggregator::raiseClientRemotelyDisconnected(int)
FUNC 1e480 21 0 EventAggregator::EventAggregator()
FUNC 1e4b0 2c 0 EventAggregator::`scalar deleting destructor'(unsigned int)
FUNC 1e4e0 23d 0 SocketUtils::findFreePort()
FUNC 1e720 121 0 SocketUtils::writeToSocket(QTcpSocket *,QString)
FUNC 1e850 147 0 SocketUtils::readLinesFromSocket(QTcpSocket *,QByteArray *,QVector<QString> *)
FUNC 1e9a0 186 0 QVector<QString>::append(QString const &)
FUNC 1eb30 10c 0 Request::~Request()
FUNC 1ec40 103 0 Request::addHeader(QString,QString)
FUNC 1ed50 78 0 Request::addRequestField(char const *,QString)
FUNC 1edd0 28 0 Request::addRequestField(char const *,int)
FUNC 1ee00 14a 0 Request::send()
FUNC 1ef50 7f 0 Request::addAuthHeaders()
FUNC 1efd0 10c 0 Request::addAuthHeaders(int,QString,int)
FUNC 1f0e0 16 0 Request::setTimeout(int)
FUNC 1f100 1cf 0 Request::Request(HttpVerb,QString)
FUNC 1f2d0 b7 0 Request::Request(HttpVerb,QUrl)
FUNC 1f390 75 0 Request::initResponse()
FUNC 1f410 92 0 Request::handleError(QNetworkReply *)
FUNC 1f4b0 2d 0 Request::getResponse()
FUNC 1f4e0 171 0 Request::initRequest(HttpVerb)
FUNC 1f660 cb 0 Request::initBody()
FUNC 1f730 80 0 Request::verbToString(HttpVerb)
FUNC 1f7b0 4b 0 Request::on_timeOut()
FUNC 1f800 99 0 Request::on_RequestBack(QNetworkReply *)
FUNC 1f8a0 2c 0 Json::`scalar deleting destructor'(unsigned int)
FUNC 1f8d0 2c 0 Request::`scalar deleting destructor'(unsigned int)
FUNC 1f900 29 0 QTimer::isActive()
FUNC 1f930 25 0 QTimer::setSingleShot(bool)
FUNC 1f960 cd 0 AbstractPinger::AbstractPinger()
FUNC 1fa30 63 0 AbstractPinger::~AbstractPinger()
FUNC 1faa0 43 0 AbstractPinger::start()
FUNC 1faf0 1d 0 AbstractPinger::stop()
FUNC 1fb10 11 0 AbstractPinger::isStarted()
FUNC 1fb30 18 0 AbstractPinger::on_timerTick()
FUNC 1fb50 80 0 AbstractPinger::cleanTimer(PingTimer *)
FUNC 1fbd0 2c 0 AbstractPinger::`scalar deleting destructor'(unsigned int)
FUNC 1fc00 86 0 StatePinger::getInstance()
FUNC 1fc90 1c 0 StatePinger::~StatePinger()
FUNC 1fcb0 10 0 StatePinger::getPingInterval()
FUNC 1fcc0 79 0 StatePinger::timerTicked()
FUNC 1fd40 97 0 StatePinger::StatePinger()
FUNC 1fde0 2c 0 StatePinger::`scalar deleting destructor'(unsigned int)
FUNC 1fe10 86 0 UpdatePinger::getInstance()
FUNC 1fea0 1c 0 UpdatePinger::~UpdatePinger()
FUNC 1fec0 17 0 UpdatePinger::getPingInterval()
FUNC 1fee0 5e 0 UpdatePinger::timerTicked()
FUNC 1ff40 97 0 UpdatePinger::UpdatePinger()
FUNC 1ffe0 2c 0 UpdatePinger::`scalar deleting destructor'(unsigned int)
FUNC 20010 3f 0 Request::metaObject()
FUNC 20050 3d 0 Request::qt_metacast(char const *)
FUNC 20090 8e 0 Request::qt_metacall(QMetaObject::Call,int,void * *)
FUNC 20120 224 0 Request::qt_static_metacall(QObject *,QMetaObject::Call,int,void * *)
FUNC 20350 33 0 Request::sig_RequestSucceeded(Response *)
FUNC 20390 33 0 Request::sig_RequestFailed(QNetworkReply::NetworkError)
FUNC 203d0 20 0 Request::sig_Timeout()
FUNC 203f0 a 0 qRegisterMetaType<QNetworkReply *>()
FUNC 20400 d4 0 qRegisterNormalizedMetaType<QNetworkReply *>(QByteArray const &,QNetworkReply * *,QtPrivate::MetaTypeDefinedHelper<QNetworkReply *,1>::DefinedType)
FUNC 204e0 a 0 QMetaTypeId2<QNetworkReply *>::qt_metatype_id()
FUNC 204f0 a 0 qMetaTypeId<QNetworkReply *>()
FUNC 20500 d1 0 QMetaTypeIdQObject<QNetworkReply *,1>::qt_metatype_id()
FUNC 205e0 a 0 QtPrivate::MetaObjectForType<QNetworkReply *,1>::value()
FUNC 205f0 101 0 Machine::Machine(QString,QString,QString,int)
FUNC 20700 31 0 Machine::getName()
FUNC 20740 11 0 Machine::getVpnStatus()
FUNC 20760 11 0 Machine::getClientId()
FUNC 20780 31 0 Machine::getVirtualIp()
FUNC 207c0 16 0 Machine::setRequestedStatus(int)
FUNC 207e0 11 0 Machine::getRequestedStatus()
FUNC 20800 37 0 Machine::isStable()
FUNC 20840 20f 0 Machine::toString()
FUNC 20a50 19e 0 Machine::toVpnStatus(QString)
FUNC 20bf0 65 0 Machine::~Machine()
FUNC 20c60 2c 0 Machine::`scalar deleting destructor'(unsigned int)
FUNC 20c90 15 0 ETState::createETState(ETState *,rapidjson::GenericDocument<rapidjson::UTF8<char>,rapidjson::MemoryPoolAllocator<rapidjson::CrtAllocator> > const *,int)
FUNC 20cb0 86 0 ETState::ETState()
FUNC 20d40 11b 0 ETState::~ETState()
FUNC 20e60 11 0 ETState::getMaxVpnConnections()
FUNC 20e80 11 0 ETState::getCurrentVpnConnections()
FUNC 20ea0 11 0 ETState::getMaxETConnections()
FUNC 20ec0 11 0 ETState::getCurrentETConnections()
FUNC 20ee0 2e 0 ETState::isEntrepriseAccount()
FUNC 20f10 31 0 ETState::getVpnIp()
FUNC 20f50 31 0 ETState::getVpnStatus()
FUNC 20f90 2e 0 ETState::getOtherMachines()
FUNC 20fc0 11 0 ETState::getLocalMachine()
FUNC 20fe0 14 0 ETState::getTimestamp()
FUNC 21000 31 0 ETState::getStatusVersion()
FUNC 21040 31 0 ETState::getMessages()
FUNC 21080 6a 0 ETState::isNewer(ETState *)
FUNC 210f0 ea5 0 ETState::tryParseJson(rapidjson::GenericDocument<rapidjson::UTF8<char>,rapidjson::MemoryPoolAllocator<rapidjson::CrtAllocator> > const *,int)
FUNC 21fa0 2a 0 std::operator==<std::allocator<Machine *>,std::allocator<Machine *> >(std::_Wrap_alloc<std::allocator<Machine *> > const &,std::_Wrap_alloc<std::allocator<Machine *> > const &)
FUNC 21fd0 32 0 std::operator!=<std::allocator<Machine *>,std::allocator<Machine *> >(std::_Wrap_alloc<std::allocator<Machine *> > const &,std::_Wrap_alloc<std::allocator<Machine *> > const &)
FUNC 22010 29 0 rapidjson::internal::StrLen<char>(char const *)
FUNC 22040 41 0 std::_Allocate<Machine *>(unsigned int,Machine * *)
FUNC 22090 34 0 std::_Copy_impl<Machine * *,Machine * *>(Machine * *,Machine * *,Machine * *)
FUNC 220d0 34 0 std::_Destroy_range<std::_Wrap_alloc<std::allocator<QString> > >(QString *,QString *,std::_Wrap_alloc<std::allocator<QString> > &)
FUNC 22110 26 0 std::_Destroy_range<std::_Wrap_alloc<std::allocator<QString> > >(QString *,QString *,std::_Wrap_alloc<std::allocator<QString> > &,std::_Nonscalar_ptr_iterator_tag)
FUNC 22140 b 0 std::_Ptr_cat<Machine *,Machine *>(Machine * *,Machine * *)
FUNC 22150 10 0 std::_Rechecked<ServerMessage * *,ServerMessage * *>(ServerMessage * * &,ServerMessage * *)
FUNC 22160 33 0 std::vector<Machine *,std::allocator<Machine *> >::_Ucopy<Machine * *>(Machine * *,Machine * *,Machine * *)
FUNC 221a0 33 0 std::vector<Machine *,std::allocator<Machine *> >::_Ucopy<std::_Vector_const_iterator<std::_Vector_val<std::_Simple_types<Machine *> > > >(std::_Vector_const_iterator<std::_Vector_val<std::_Simple_types<Machine *> > >,std::_Vector_const_iterator<std::_Vector_val<std::_Simple_types<Machine *> > >,Machine * *)
FUNC 221e0 33 0 std::vector<QString,std::allocator<QString> >::_Ucopy<std::_Vector_const_iterator<std::_Vector_val<std::_Simple_types<QString> > > >(std::_Vector_const_iterator<std::_Vector_val<std::_Simple_types<QString> > >,std::_Vector_const_iterator<std::_Vector_val<std::_Simple_types<QString> > >,QString *)
FUNC 22220 33 0 std::vector<QString,std::allocator<QString> >::_Umove<QString *>(QString *,QString *,QString *)
FUNC 22260 d 0 std::_Unchecked<std::_Vector_val<std::_Simple_types<QString> > >(std::_Vector_const_iterator<std::_Vector_val<std::_Simple_types<QString> > >)
FUNC 22270 38 0 std::_Uninit_copy<Machine * const *,Machine * *,std::_Wrap_alloc<std::allocator<Machine *> > >(Machine * const *,Machine * const *,Machine * *,std::_Wrap_alloc<std::allocator<Machine *> > &)
FUNC 222b0 38 0 std::_Uninit_copy<QString const *,QString *,std::_Wrap_alloc<std::allocator<QString> > >(QString const *,QString const *,QString *,std::_Wrap_alloc<std::allocator<QString> > &)
FUNC 222f0 bc 0 std::_Uninit_copy<QString const *,QString *,std::allocator<QString> >(QString const *,QString const *,QString *,std::_Wrap_alloc<std::allocator<QString> > &,std::_Nonscalar_ptr_iterator_tag)
FUNC 223b0 45 0 std::_Uninit_move<QString *,QString *,std::_Wrap_alloc<std::allocator<QString> > >(QString *,QString *,QString *,std::_Wrap_alloc<std::allocator<QString> > &)
FUNC 22400 bc 0 std::_Uninit_move<QString *,QString *,std::allocator<QString>,QString>(QString *,QString *,QString *,std::_Wrap_alloc<std::allocator<QString> > &,QString *,std::_Nonscalar_ptr_iterator_tag)
FUNC 224c0 47 0 std::_Uninitialized_copy<Machine * *,Machine * *,std::_Wrap_alloc<std::allocator<Machine *> > >(Machine * *,Machine * *,Machine * *,std::_Wrap_alloc<std::allocator<Machine *> > &)
FUNC 22510 47 0 std::_Uninitialized_copy<std::_Vector_const_iterator<std::_Vector_val<std::_Simple_types<Machine *> > >,Machine * *,std::_Wrap_alloc<std::allocator<Machine *> > >(std::_Vector_const_iterator<std::_Vector_val<std::_Simple_types<Machine *> > >,std::_Vector_const_iterator<std::_Vector_val<std::_Simple_types<Machine *> > >,Machine * *,std::_Wrap_alloc<std::allocator<Machine *> > &)
FUNC 22560 47 0 std::_Uninitialized_copy<std::_Vector_const_iterator<std::_Vector_val<std::_Simple_types<QString> > >,QString *,std::_Wrap_alloc<std::allocator<QString> > >(std::_Vector_const_iterator<std::_Vector_val<std::_Simple_types<QString> > >,std::_Vector_const_iterator<std::_Vector_val<std::_Simple_types<QString> > >,QString *,std::_Wrap_alloc<std::allocator<QString> > &)
FUNC 225b0 47 0 std::_Uninitialized_move<QString *,QString *,std::_Wrap_alloc<std::allocator<QString> > >(QString *,QString *,QString *,std::_Wrap_alloc<std::allocator<QString> > &)
FUNC 22600 2a 0 std::_Wrap_alloc<std::allocator<ServerMessage *> >::construct<ServerMessage *,ServerMessage * &>(ServerMessage * *,ServerMessage * &)
FUNC 22630 2a 0 std::_Wrap_alloc<std::allocator<QString> >::construct<QString,QString const &>(QString *,QString const &)
FUNC 22660 1e 0 std::allocator_traits<std::allocator<QString> >::construct<QString,QString const &>(std::allocator<QString> &,QString *,QString const &)
FUNC 22680 2a 0 std::_Wrap_alloc<std::allocator<QString> >::construct<QString,QString>(QString *,QString &&)
FUNC 226b0 85 0 std::allocator<QString>::construct<QString,QString>(QString *,QString &&)
FUNC 22740 1e 0 std::allocator_traits<std::allocator<QString> >::construct<QString,QString>(std::allocator<QString> &,QString *,QString &&)
FUNC 22760 1d 0 std::_Wrap_alloc<std::allocator<QString> >::destroy<QString>(QString *)
FUNC 22780 17 0 std::allocator<QString>::destroy<QString>(QString *)
FUNC 227a0 11 0 std::allocator_traits<std::allocator<QString> >::destroy<QString>(std::allocator<QString> &,QString *)
FUNC 227c0 18 0 rapidjson::GenericValue<rapidjson::UTF8<char>,rapidjson::MemoryPoolAllocator<rapidjson::CrtAllocator> >::GenericValue<rapidjson::UTF8<char>,rapidjson::MemoryPoolAllocator<rapidjson::CrtAllocator> >()
FUNC 227e0 16 0 std::_Wrap_alloc<std::allocator<QString> >::_Wrap_alloc<std::allocator<QString> >()
FUNC 22800 10 0 std::allocator<QString>::allocator<QString>(std::allocator<QString> const &)
FUNC 22810 21 0 std::vector<ServerMessage *,std::allocator<ServerMessage *> >::vector<ServerMessage *,std::allocator<ServerMessage *> >()
FUNC 22840 e6 0 std::vector<ServerMessage *,std::allocator<ServerMessage *> >::vector<ServerMessage *,std::allocator<ServerMessage *> >(std::vector<ServerMessage *,std::allocator<ServerMessage *> > const &)
FUNC 22930 e6 0 std::vector<QString,std::allocator<QString> >::vector<QString,std::allocator<QString> >(std::vector<QString,std::allocator<QString> > const &)
FUNC 22a20 db 0 rapidjson::GenericValue<rapidjson::UTF8<char>,rapidjson::MemoryPoolAllocator<rapidjson::CrtAllocator> >::~GenericValue<rapidjson::UTF8<char>,rapidjson::MemoryPoolAllocator<rapidjson::CrtAllocator> >()
FUNC 22b00 13 0 std::vector<QString,std::allocator<QString> >::~vector<QString,std::allocator<QString> >()
FUNC 22b20 23d 0 std::vector<Machine *,std::allocator<Machine *> >::operator=(std::vector<Machine *,std::allocator<Machine *> > const &)
FUNC 22d60 9c 0 rapidjson::GenericValue<rapidjson::UTF8<char>,rapidjson::MemoryPoolAllocator<rapidjson::CrtAllocator> >::operator[](char const *)
FUNC 22e00 19 0 rapidjson::GenericValue<rapidjson::UTF8<char>,rapidjson::MemoryPoolAllocator<rapidjson::CrtAllocator> >::operator[](char const *)
FUNC 22e20 2c 0 rapidjson::GenericValue<rapidjson::UTF8<char>,rapidjson::MemoryPoolAllocator<rapidjson::CrtAllocator> >::`scalar deleting destructor'(unsigned int)
FUNC 22e50 78 0 rapidjson::GenericValue<rapidjson::UTF8<char>,rapidjson::MemoryPoolAllocator<rapidjson::CrtAllocator> >::FindMember(char const *)
FUNC 22ed0 19 0 rapidjson::GenericValue<rapidjson::UTF8<char>,rapidjson::MemoryPoolAllocator<rapidjson::CrtAllocator> >::FindMember(char const *)
FUNC 22ef0 13 0 rapidjson::GenericValue<rapidjson::UTF8<char>,rapidjson::MemoryPoolAllocator<rapidjson::CrtAllocator> >::GetUint64()
FUNC 22f10 32 0 rapidjson::GenericValue<rapidjson::UTF8<char>,rapidjson::MemoryPoolAllocator<rapidjson::CrtAllocator> >::HasMember(char const *)
FUNC 22f50 2e 0 rapidjson::GenericValue<rapidjson::UTF8<char>,rapidjson::MemoryPoolAllocator<rapidjson::CrtAllocator> >::IsInt()
FUNC 22f80 2e 0 rapidjson::GenericValue<rapidjson::UTF8<char>,rapidjson::MemoryPoolAllocator<rapidjson::CrtAllocator> >::IsString()
FUNC 22fb0 2e 0 rapidjson::GenericValue<rapidjson::UTF8<char>,rapidjson::MemoryPoolAllocator<rapidjson::CrtAllocator> >::IsUint64()
FUNC 22fe0 10 0 rapidjson::GenericValue<rapidjson::UTF8<char>,rapidjson::MemoryPoolAllocator<rapidjson::CrtAllocator> >::MemberBegin()
FUNC 22ff0 19 0 rapidjson::GenericValue<rapidjson::UTF8<char>,rapidjson::MemoryPoolAllocator<rapidjson::CrtAllocator> >::MemberEnd()
FUNC 23010 89 0 std::vector<Machine *,std::allocator<Machine *> >::_Buy(unsigned int)
FUNC 230a0 2f 0 std::vector<QString,std::allocator<QString> >::_Destroy(QString *,QString *)
FUNC 230d0 59 0 std::vector<Machine *,std::allocator<Machine *> >::_Grow_to(unsigned int)
FUNC 23130 37 0 std::vector<Machine *,std::allocator<Machine *> >::_Inside(Machine * const *)
FUNC 23170 d 0 std::vector<ServerMessage *,std::allocator<ServerMessage *> >::_Orphan_range(ServerMessage * *,ServerMessage * *)
FUNC 23180 138 0 std::vector<Machine *,std::allocator<Machine *> >::_Reallocate(unsigned int)
FUNC 232c0 138 0 std::vector<QString,std::allocator<QString> >::_Reallocate(unsigned int)
FUNC 23400 5a 0 std::vector<Machine *,std::allocator<Machine *> >::_Reserve(unsigned int)
FUNC 23460 5a 0 std::vector<QString,std::allocator<QString> >::_Reserve(unsigned int)
FUNC 234c0 78 0 std::vector<QString,std::allocator<QString> >::_Tidy()
FUNC 23540 1a 0 std::vector<QString,std::allocator<QString> >::_Unused_capacity()
FUNC 23560 19 0 std::_Wrap_alloc<std::allocator<ServerMessage *> >::allocate(unsigned int)
FUNC 23580 1b 0 std::allocator<QString>::allocate(unsigned int)
FUNC 235a0 22 0 std::vector<QString,std::allocator<QString> >::begin()
FUNC 235d0 34 0 std::vector<Machine *,std::allocator<Machine *> >::clear()
FUNC 23610 7c 0 std::allocator<QString>::construct(QString *,QString const &)
FUNC 23690 23 0 std::vector<ServerMessage *,std::allocator<ServerMessage *> >::end()
FUNC 236c0 17 0 std::_Wrap_alloc<std::allocator<Machine *> >::max_size()
FUNC 236e0 10 0 std::allocator<Machine *>::max_size()
FUNC 236f0 102 0 std::vector<ServerMessage *,std::allocator<ServerMessage *> >::push_back(ServerMessage * const &)
FUNC 23800 118 0 std::vector<QString,std::allocator<QString> >::push_back(QString &&)
FUNC 23920 2b 0 std::_Wrap_alloc<std::allocator<ServerMessage *> >::select_on_container_copy_construction()
FUNC 23950 1c 0 std::allocator<Machine *>::select_on_container_copy_construction()
FUNC 23970 14 0 std::allocator_traits<std::allocator<Machine *> >::select_on_container_copy_construction(std::allocator<Machine *> const &)
FUNC 23990 86 0 CustomErrorHandler::getInstance()
FUNC 23a20 1b 0 CustomErrorHandler::throwError(ETException *)
FUNC 23a40 1a6 0 CustomErrorHandler::throwError(ETException *,bool)
FUNC 23bf0 21 0 CustomErrorHandler::CustomErrorHandler()
FUNC 23c20 1a 0 QString::QString(QString::Null const &)
FUNC 23c40 77 0 Update::Update()
FUNC 23cc0 74 0 Update::~Update()
FUNC 23d40 11 0 Update::createUpdate(Update *,rapidjson::GenericDocument<rapidjson::UTF8<char>,rapidjson::MemoryPoolAllocator<rapidjson::CrtAllocator> > const *)
FUNC 23d60 11 0 Update::isCompulsory()
FUNC 23d80 31 0 Update::getVersion()
FUNC 23dc0 31 0 Update::getScheduledOn()
FUNC 23e00 31 0 Update::getDownloadPath()
FUNC 23e40 5c 0 Update::setScheduledDate(QDateTime)
FUNC 23ea0 1ac 0 Update::serialize()
FUNC 24050 2da 0 Update::tryParse(QString,Update *)
FUNC 24330 199 0 Update::tryParseJson(rapidjson::GenericDocument<rapidjson::UTF8<char>,rapidjson::MemoryPoolAllocator<rapidjson::CrtAllocator> > const *)
FUNC 244d0 2c 0 Deserializer::`scalar deleting destructor'(unsigned int)
FUNC 24500 2c 0 rapidjson::GenericValue<rapidjson::UTF8<char>,rapidjson::MemoryPoolAllocator<rapidjson::CrtAllocator> >::GetBool()
FUNC 24530 26 0 ActivityReportResponse::ActivityReportResponse()
FUNC 24560 1c 0 ActivityReportResponse::~ActivityReportResponse()
FUNC 24580 11 0 ActivityReportResponse::isActive()
FUNC 245a0 72 0 ActivityReportResponse::postProcess()
FUNC 24620 2c 0 ActivityReportResponse::`scalar deleting destructor'(unsigned int)
FUNC 24650 2e 0 rapidjson::GenericValue<rapidjson::UTF8<char>,rapidjson::MemoryPoolAllocator<rapidjson::CrtAllocator> >::IsBool()
FUNC 24680 79 0 ActivityReportRequest::ActivityReportRequest()
FUNC 24700 1c 0 ActivityReportRequest::~ActivityReportRequest()
FUNC 24720 75 0 ActivityReportRequest::initResponse()
FUNC 247a0 2c 0 ActivityReportRequest::`scalar deleting destructor'(unsigned int)
FUNC 247d0 3f 0 Response::metaObject()
FUNC 24810 3d 0 Response::qt_metacast(char const *)
FUNC 24850 32 0 Response::qt_metacall(QMetaObject::Call,int,void * *)
FUNC 24890 5 0 Response::qt_static_metacall(QObject *,QMetaObject::Call,int,void * *)
FUNC 248a0 10a 0 BreakpadContext::BreakpadContext(QString)
FUNC 249b0 83 0 BreakpadContext::~BreakpadContext()
FUNC 24a40 2e 0 BreakpadContext::startedAtUtc()
FUNC 24a70 31 0 BreakpadContext::gitRev()
FUNC 24ab0 31 0 BreakpadContext::appName()
FUNC 24af0 31 0 BreakpadContext::appVersion()
FUNC 24b30 31 0 BreakpadContext::buildType()
FUNC 24b70 28b 0 ErrorReportRequest::ErrorReportRequest(QString,BreakpadContext const *,QString,int,int)
FUNC 24e00 37 0 ErrorReportRequest::~ErrorReportRequest()
FUNC 24e40 25b 0 ErrorReportRequest::send()
FUNC 250a0 18 0 QFlags<QEventLoop::ProcessEventsFlag>::QFlags<QEventLoop::ProcessEventsFlag>(QEventLoop::ProcessEventsFlag)
FUNC 250c0 284 0 CertificateContainer::fromJson(rapidjson::GenericDocument<rapidjson::UTF8<char>,rapidjson::MemoryPoolAllocator<rapidjson::CrtAllocator> > const *)
FUNC 25350 2e 0 CertificateContainer::getRootCertificate()
FUNC 25380 31 0 CertificateContainer::getClientCertificate()
FUNC 253c0 31 0 CertificateContainer::getClientKey()
FUNC 25400 65 0 CertificateContainer::~CertificateContainer()
FUNC 25470 bc 0 CertificateContainer::CertificateContainer(QString,QString,QString)
FUNC 25530 e 0 ETIOUtils::ETIOUtils()
FUNC 25540 b 0 ETIOUtils::~ETIOUtils()
FUNC 25550 8c 0 ETIOUtils::readFromFile(QFile *)
FUNC 255e0 c8 0 ETIOUtils::readFromFile(QString)
FUNC 256b0 bd 0 ETIOUtils::saveToFile(QString,QString)
FUNC 25770 80 0 ETIOUtils::appendNewLineToFile(QFile *,QString)
FUNC 257f0 a6 0 ETIOUtils::readAll(QString)
FUNC 258a0 22 0 Serializer::Serializer()
FUNC 258d0 16 0 Serializer::~Serializer()
FUNC 258f0 fb 0 Serializer::AddString(QString)
FUNC 259f0 12e 0 Serializer::AddString(QString,QString)
FUNC 25b20 d0 0 Serializer::AddBool(bool)
FUNC 25bf0 b8 0 Serializer::AddBool(QString,bool)
FUNC 25cb0 fb 0 Serializer::AddDate(QDateTime)
FUNC 25db0 ae 0 Serializer::AddDate(QString,QDateTime)
FUNC 25e60 31 0 Serializer::GetSerializedString()
FUNC 25ea0 7a 0 QString::operator+=(QByteArray const &)
FUNC 25f20 15 0 QByteArray::data()
FUNC 25f40 4b 0 QString::fromUtf8(QByteArray const &)
FUNC 25f90 3f 0 EventAggregator::metaObject()
FUNC 25fd0 3d 0 EventAggregator::qt_metacast(char const *)
FUNC 26010 8a 0 EventAggregator::qt_metacall(QMetaObject::Call,int,void * *)
FUNC 260a0 1ec 0 EventAggregator::qt_static_metacall(QObject *,QMetaObject::Call,int,void * *)
FUNC 26290 20 0 EventAggregator::sig_stateChangedEvent()
FUNC 262b0 20 0 EventAggregator::sig_authSucceededEvent()
FUNC 262d0 33 0 EventAggregator::sig_authFailedEvent(int)
FUNC 26310 20 0 EventAggregator::sig_logOffRequestedEvent()
FUNC 26330 33 0 EventAggregator::sig_mainWinDisabledEvent(bool)
FUNC 26370 20 0 EventAggregator::sig_raiseDialogs()
FUNC 26390 73 0 EventAggregator::sig_updateAvailable(QString)
FUNC 26410 20 0 EventAggregator::sig_reconnectAllEvent()
FUNC 26430 33 0 EventAggregator::sig_clientRemotelyDisconnected(int)
FUNC 26470 8e 0 Json::Json()
FUNC 26500 37 0 Json::~Json()
FUNC 26540 d2 0 Json::addProperty(char const *,QString)
FUNC 26620 8d 0 Json::addProperty(char const *,int)
FUNC 266b0 9f 0 Json::toBin(QByteArray *)
FUNC 26750 1ec 0 rapidjson::GenericValue<rapidjson::UTF8<char>,rapidjson::MemoryPoolAllocator<rapidjson::CrtAllocator> >::Accept<rapidjson::Writer<rapidjson::GenericStringBuffer<rapidjson::UTF8<char>,rapidjson::CrtAllocator>,rapidjson::UTF8<char>,rapidjson::MemoryPoolAllocator<rapidjson::CrtAllocator> > >(rapidjson::Writer<rapidjson::GenericStringBuffer<rapidjson::UTF8<char>,rapidjson::CrtAllocator>,rapidjson::UTF8<char>,rapidjson::MemoryPoolAllocator<rapidjson::CrtAllocator> > &)
FUNC 26940 22 0 rapidjson::internal::Stack<rapidjson::CrtAllocator>::Pop<char>(unsigned int)
FUNC 26970 27 0 rapidjson::internal::Stack<rapidjson::MemoryPoolAllocator<rapidjson::CrtAllocator> >::Pop<rapidjson::Writer<rapidjson::GenericStringBuffer<rapidjson::UTF8<char>,rapidjson::CrtAllocator>,rapidjson::UTF8<char>,rapidjson::MemoryPoolAllocator<rapidjson::CrtAllocator> >::Level>(unsigned int)
FUNC 269a0 b9 0 rapidjson::internal::Stack<rapidjson::CrtAllocator>::Push<char>(unsigned int)
FUNC 26a60 c6 0 rapidjson::internal::Stack<rapidjson::MemoryPoolAllocator<rapidjson::CrtAllocator> >::Push<rapidjson::Writer<rapidjson::GenericStringBuffer<rapidjson::UTF8<char>,rapidjson::CrtAllocator>,rapidjson::UTF8<char>,rapidjson::MemoryPoolAllocator<rapidjson::CrtAllocator> >::Level>(unsigned int)
FUNC 26b30 14 0 rapidjson::internal::Stack<rapidjson::MemoryPoolAllocator<rapidjson::CrtAllocator> >::Top<rapidjson::Writer<rapidjson::GenericStringBuffer<rapidjson::UTF8<char>,rapidjson::CrtAllocator>,rapidjson::UTF8<char>,rapidjson::MemoryPoolAllocator<rapidjson::CrtAllocator> >::Level>()
FUNC 26b50 77 0 rapidjson::GenericDocument<rapidjson::UTF8<char>,rapidjson::MemoryPoolAllocator<rapidjson::CrtAllocator> >::GenericDocument<rapidjson::UTF8<char>,rapidjson::MemoryPoolAllocator<rapidjson::CrtAllocator> >(rapidjson::MemoryPoolAllocator<rapidjson::CrtAllocator> *,unsigned int)
FUNC 26bd0 20 0 rapidjson::GenericStringBuffer<rapidjson::UTF8<char>,rapidjson::CrtAllocator>::GenericStringBuffer<rapidjson::UTF8<char>,rapidjson::CrtAllocator>(rapidjson::CrtAllocator *,unsigned int)
FUNC 26bf0 3d 0 rapidjson::GenericValue<rapidjson::UTF8<char>,rapidjson::MemoryPoolAllocator<rapidjson::CrtAllocator> >::GenericValue<rapidjson::UTF8<char>,rapidjson::MemoryPoolAllocator<rapidjson::CrtAllocator> >(int)
FUNC 26c30 2b 0 rapidjson::GenericValue<rapidjson::UTF8<char>,rapidjson::MemoryPoolAllocator<rapidjson::CrtAllocator> >::GenericValue<rapidjson::UTF8<char>,rapidjson::MemoryPoolAllocator<rapidjson::CrtAllocator> >(char const *,unsigned int)
FUNC 26c60 30 0 rapidjson::GenericValue<rapidjson::UTF8<char>,rapidjson::MemoryPoolAllocator<rapidjson::CrtAllocator> >::GenericValue<rapidjson::UTF8<char>,rapidjson::MemoryPoolAllocator<rapidjson::CrtAllocator> >(rapidjson::Type)
FUNC 26c90 a8 0 rapidjson::MemoryPoolAllocator<rapidjson::CrtAllocator>::MemoryPoolAllocator<rapidjson::CrtAllocator>(unsigned int,rapidjson::CrtAllocator *)
FUNC 26d40 108 0 rapidjson::internal::Stack<rapidjson::MemoryPoolAllocator<rapidjson::CrtAllocator> >::Stack<rapidjson::MemoryPoolAllocator<rapidjson::CrtAllocator> >(rapidjson::MemoryPoolAllocator<rapidjson::CrtAllocator> *,unsigned int)
FUNC 26e50 d9 0 rapidjson::internal::Stack<rapidjson::CrtAllocator>::Stack<rapidjson::CrtAllocator>(rapidjson::CrtAllocator *,unsigned int)
FUNC 26f30 2e 0 rapidjson::Writer<rapidjson::GenericStringBuffer<rapidjson::UTF8<char>,rapidjson::CrtAllocator>,rapidjson::UTF8<char>,rapidjson::MemoryPoolAllocator<rapidjson::CrtAllocator> >::Writer<rapidjson::GenericStringBuffer<rapidjson::UTF8<char>,rapidjson::CrtAllocator>,rapidjson::UTF8<char>,rapidjson::MemoryPoolAllocator<rapidjson::CrtAllocator> >(rapidjson::GenericStringBuffer<rapidjson::UTF8<char>,rapidjson::CrtAllocator> &,rapidjson::MemoryPoolAllocator<rapidjson::CrtAllocator> *,unsigned int)
FUNC 26f60 22 0 rapidjson::Writer<rapidjson::GenericStringBuffer<rapidjson::UTF8<char>,rapidjson::CrtAllocator>,rapidjson::UTF8<char>,rapidjson::MemoryPoolAllocator<rapidjson::CrtAllocator> >::Level::Level(bool)
FUNC 26f90 56 0 rapidjson::GenericDocument<rapidjson::UTF8<char>,rapidjson::MemoryPoolAllocator<rapidjson::CrtAllocator> >::~GenericDocument<rapidjson::UTF8<char>,rapidjson::MemoryPoolAllocator<rapidjson::CrtAllocator> >()
FUNC 26ff0 13 0 rapidjson::GenericStringBuffer<rapidjson::UTF8<char>,rapidjson::CrtAllocator>::~GenericStringBuffer<rapidjson::UTF8<char>,rapidjson::CrtAllocator>()
FUNC 27010 2a 0 rapidjson::MemoryPoolAllocator<rapidjson::CrtAllocator>::~MemoryPoolAllocator<rapidjson::CrtAllocator>()
FUNC 27040 47 0 rapidjson::internal::Stack<rapidjson::MemoryPoolAllocator<rapidjson::CrtAllocator> >::~Stack<rapidjson::MemoryPoolAllocator<rapidjson::CrtAllocator> >()
FUNC 27090 31 0 rapidjson::internal::Stack<rapidjson::CrtAllocator>::~Stack<rapidjson::CrtAllocator>()
FUNC 270d0 16 0 rapidjson::Writer<rapidjson::GenericStringBuffer<rapidjson::UTF8<char>,rapidjson::CrtAllocator>,rapidjson::UTF8<char>,rapidjson::MemoryPoolAllocator<rapidjson::CrtAllocator> >::~Writer<rapidjson::GenericStringBuffer<rapidjson::UTF8<char>,rapidjson::CrtAllocator>,rapidjson::UTF8<char>,rapidjson::MemoryPoolAllocator<rapidjson::CrtAllocator> >()
FUNC 270f0 2c 0 rapidjson::GenericDocument<rapidjson::UTF8<char>,rapidjson::MemoryPoolAllocator<rapidjson::CrtAllocator> >::`scalar deleting destructor'(unsigned int)
FUNC 27120 2c 0 rapidjson::MemoryPoolAllocator<rapidjson::CrtAllocator>::`scalar deleting destructor'(unsigned int)
FUNC 27150 49 0 rapidjson::MemoryPoolAllocator<rapidjson::CrtAllocator>::AddChunk(unsigned int)
FUNC 271a0 d0 0 rapidjson::GenericValue<rapidjson::UTF8<char>,rapidjson::MemoryPoolAllocator<rapidjson::CrtAllocator> >::AddMember(rapidjson::GenericValue<rapidjson::UTF8<char>,rapidjson::MemoryPoolAllocator<rapidjson::CrtAllocator> > &,rapidjson::GenericValue<rapidjson::UTF8<char>,rapidjson::MemoryPoolAllocator<rapidjson::CrtAllocator> > &,rapidjson::MemoryPoolAllocator<rapidjson::CrtAllocator> &)
FUNC 27270 8f 0 rapidjson::GenericValue<rapidjson::UTF8<char>,rapidjson::MemoryPoolAllocator<rapidjson::CrtAllocator> >::AddMember(char const *,rapidjson::GenericValue<rapidjson::UTF8<char>,rapidjson::MemoryPoolAllocator<rapidjson::CrtAllocator> > &,rapidjson::MemoryPoolAllocator<rapidjson::CrtAllocator> &)
FUNC 27300 43 0 rapidjson::Writer<rapidjson::GenericStringBuffer<rapidjson::UTF8<char>,rapidjson::CrtAllocator>,rapidjson::UTF8<char>,rapidjson::MemoryPoolAllocator<rapidjson::CrtAllocator> >::Bool(bool)
FUNC 27350 45 0 rapidjson::MemoryPoolAllocator<rapidjson::CrtAllocator>::Clear()
FUNC 273a0 2f 0 rapidjson::Writer<rapidjson::GenericStringBuffer<rapidjson::UTF8<char>,rapidjson::CrtAllocator>,rapidjson::UTF8<char>,rapidjson::MemoryPoolAllocator<rapidjson::CrtAllocator> >::Double(double)
FUNC 273d0 25 0 rapidjson::Writer<rapidjson::GenericStringBuffer<rapidjson::UTF8<char>,rapidjson::CrtAllocator>,rapidjson::UTF8<char>,rapidjson::MemoryPoolAllocator<rapidjson::CrtAllocator> >::EndArray(unsigned int)
FUNC 27400 25 0 rapidjson::Writer<rapidjson::GenericStringBuffer<rapidjson::UTF8<char>,rapidjson::CrtAllocator>,rapidjson::UTF8<char>,rapidjson::MemoryPoolAllocator<rapidjson::CrtAllocator> >::EndObject(unsigned int)
FUNC 27430 12 0 rapidjson::CrtAllocator::Free(void *)
FUNC 27450 16 0 rapidjson::GenericDocument<rapidjson::UTF8<char>,rapidjson::MemoryPoolAllocator<rapidjson::CrtAllocator> >::GetAllocator()
FUNC 27470 17 0 rapidjson::internal::Stack<rapidjson::MemoryPoolAllocator<rapidjson::CrtAllocator> >::GetSize()
FUNC 27490 2a 0 rapidjson::GenericStringBuffer<rapidjson::UTF8<char>,rapidjson::CrtAllocator>::GetString()
FUNC 274c0 16 0 rapidjson::GenericValue<rapidjson::UTF8<char>,rapidjson::MemoryPoolAllocator<rapidjson::CrtAllocator> >::GetType()
FUNC 274e0 2a 0 rapidjson::Writer<rapidjson::GenericStringBuffer<rapidjson::UTF8<char>,rapidjson::CrtAllocator>,rapidjson::UTF8<char>,rapidjson::MemoryPoolAllocator<rapidjson::CrtAllocator> >::Int64(__int64)
FUNC 27510 26 0 rapidjson::Writer<rapidjson::GenericStringBuffer<rapidjson::UTF8<char>,rapidjson::CrtAllocator>,rapidjson::UTF8<char>,rapidjson::MemoryPoolAllocator<rapidjson::CrtAllocator> >::Int(int)
FUNC 27540 2e 0 rapidjson::GenericValue<rapidjson::UTF8<char>,rapidjson::MemoryPoolAllocator<rapidjson::CrtAllocator> >::IsInt64()
FUNC 27570 2e 0 rapidjson::GenericValue<rapidjson::UTF8<char>,rapidjson::MemoryPoolAllocator<rapidjson::CrtAllocator> >::IsUint()
FUNC 275a0 81 0 rapidjson::MemoryPoolAllocator<rapidjson::CrtAllocator>::Malloc(unsigned int)
FUNC 27630 1a 0 rapidjson::CrtAllocator::Malloc(unsigned int)
FUNC 27650 20 0 rapidjson::Writer<rapidjson::GenericStringBuffer<rapidjson::UTF8<char>,rapidjson::CrtAllocator>,rapidjson::UTF8<char>,rapidjson::MemoryPoolAllocator<rapidjson::CrtAllocator> >::Null()
FUNC 27670 88 0 rapidjson::Writer<rapidjson::GenericStringBuffer<rapidjson::UTF8<char>,rapidjson::CrtAllocator>,rapidjson::UTF8<char>,rapidjson::MemoryPoolAllocator<rapidjson::CrtAllocator> >::Prefix(rapidjson::Type)
FUNC 27700 1c 0 rapidjson::GenericStringBuffer<rapidjson::UTF8<char>,rapidjson::CrtAllocator>::Put(char)
FUNC 27720 29 0 rapidjson::GenericValue<rapidjson::UTF8<char>,rapidjson::MemoryPoolAllocator<rapidjson::CrtAllocator> >::RawAssign(rapidjson::GenericValue<rapidjson::UTF8<char>,rapidjson::MemoryPoolAllocator<rapidjson::CrtAllocator> > &)
FUNC 27750 b0 0 rapidjson::MemoryPoolAllocator<rapidjson::CrtAllocator>::Realloc(void *,unsigned int,unsigned int)
FUNC 27800 1e 0 rapidjson::CrtAllocator::Realloc(void *,unsigned int,unsigned int)
FUNC 27820 89 0 rapidjson::GenericValue<rapidjson::UTF8<char>,rapidjson::MemoryPoolAllocator<rapidjson::CrtAllocator> >::SetInt(int)
FUNC 278b0 85 0 rapidjson::GenericValue<rapidjson::UTF8<char>,rapidjson::MemoryPoolAllocator<rapidjson::CrtAllocator> >::SetObject()
FUNC 27940 2d 0 rapidjson::GenericValue<rapidjson::UTF8<char>,rapidjson::MemoryPoolAllocator<rapidjson::CrtAllocator> >::SetString(char const *,rapidjson::MemoryPoolAllocator<rapidjson::CrtAllocator> &)
FUNC 27970 2e 0 rapidjson::GenericValue<rapidjson::UTF8<char>,rapidjson::MemoryPoolAllocator<rapidjson::CrtAllocator> >::SetString(char const *,unsigned int,rapidjson::MemoryPoolAllocator<rapidjson::CrtAllocator> &)
FUNC 279a0 56 0 rapidjson::GenericValue<rapidjson::UTF8<char>,rapidjson::MemoryPoolAllocator<rapidjson::CrtAllocator> >::SetStringRaw(char const *,unsigned int,rapidjson::MemoryPoolAllocator<rapidjson::CrtAllocator> &)
FUNC 27a00 9d 0 rapidjson::Writer<rapidjson::GenericStringBuffer<rapidjson::UTF8<char>,rapidjson::CrtAllocator>,rapidjson::UTF8<char>,rapidjson::MemoryPoolAllocator<rapidjson::CrtAllocator> >::StartArray()
FUNC 27aa0 9d 0 rapidjson::Writer<rapidjson::GenericStringBuffer<rapidjson::UTF8<char>,rapidjson::CrtAllocator>,rapidjson::UTF8<char>,rapidjson::MemoryPoolAllocator<rapidjson::CrtAllocator> >::StartObject()
FUNC 27b40 2a 0 rapidjson::Writer<rapidjson::GenericStringBuffer<rapidjson::UTF8<char>,rapidjson::CrtAllocator>,rapidjson::UTF8<char>,rapidjson::MemoryPoolAllocator<rapidjson::CrtAllocator> >::String(char const *,unsigned int,bool)
FUNC 27b70 2a 0 rapidjson::Writer<rapidjson::GenericStringBuffer<rapidjson::UTF8<char>,rapidjson::CrtAllocator>,rapidjson::UTF8<char>,rapidjson::MemoryPoolAllocator<rapidjson::CrtAllocator> >::Uint64(unsigned __int64)
FUNC 27ba0 26 0 rapidjson::Writer<rapidjson::GenericStringBuffer<rapidjson::UTF8<char>,rapidjson::CrtAllocator>,rapidjson::UTF8<char>,rapidjson::MemoryPoolAllocator<rapidjson::CrtAllocator> >::Uint(unsigned int)
FUNC 27bd0 83 0 rapidjson::Writer<rapidjson::GenericStringBuffer<rapidjson::UTF8<char>,rapidjson::CrtAllocator>,rapidjson::UTF8<char>,rapidjson::MemoryPoolAllocator<rapidjson::CrtAllocator> >::WriteBool(bool)
FUNC 27c60 76 0 rapidjson::Writer<rapidjson::GenericStringBuffer<rapidjson::UTF8<char>,rapidjson::CrtAllocator>,rapidjson::UTF8<char>,rapidjson::MemoryPoolAllocator<rapidjson::CrtAllocator> >::WriteDouble(double)
FUNC 27ce0 17 0 rapidjson::Writer<rapidjson::GenericStringBuffer<rapidjson::UTF8<char>,rapidjson::CrtAllocator>,rapidjson::UTF8<char>,rapidjson::MemoryPoolAllocator<rapidjson::CrtAllocator> >::WriteEndArray()
FUNC 27d00 17 0 rapidjson::Writer<rapidjson::GenericStringBuffer<rapidjson::UTF8<char>,rapidjson::CrtAllocator>,rapidjson::UTF8<char>,rapidjson::MemoryPoolAllocator<rapidjson::CrtAllocator> >::WriteEndObject()
FUNC 27d20 4a 0 rapidjson::Writer<rapidjson::GenericStringBuffer<rapidjson::UTF8<char>,rapidjson::CrtAllocator>,rapidjson::UTF8<char>,rapidjson::MemoryPoolAllocator<rapidjson::CrtAllocator> >::WriteInt64(__int64)
FUNC 27d70 33 0 rapidjson::Writer<rapidjson::GenericStringBuffer<rapidjson::UTF8<char>,rapidjson::CrtAllocator>,rapidjson::UTF8<char>,rapidjson::MemoryPoolAllocator<rapidjson::CrtAllocator> >::WriteInt(int)
FUNC 27db0 3b 0 rapidjson::Writer<rapidjson::GenericStringBuffer<rapidjson::UTF8<char>,rapidjson::CrtAllocator>,rapidjson::UTF8<char>,rapidjson::MemoryPoolAllocator<rapidjson::CrtAllocator> >::WriteNull()
FUNC 27df0 17 0 rapidjson::Writer<rapidjson::GenericStringBuffer<rapidjson::UTF8<char>,rapidjson::CrtAllocator>,rapidjson::UTF8<char>,rapidjson::MemoryPoolAllocator<rapidjson::CrtAllocator> >::WriteStartArray()
FUNC 27e10 17 0 rapidjson::Writer<rapidjson::GenericStringBuffer<rapidjson::UTF8<char>,rapidjson::CrtAllocator>,rapidjson::UTF8<char>,rapidjson::MemoryPoolAllocator<rapidjson::CrtAllocator> >::WriteStartObject()
FUNC 27e30 105 0 rapidjson::Writer<rapidjson::GenericStringBuffer<rapidjson::UTF8<char>,rapidjson::CrtAllocator>,rapidjson::UTF8<char>,rapidjson::MemoryPoolAllocator<rapidjson::CrtAllocator> >::WriteString(char const *,unsigned int)
FUNC 27f40 95 0 rapidjson::Writer<rapidjson::GenericStringBuffer<rapidjson::UTF8<char>,rapidjson::CrtAllocator>,rapidjson::UTF8<char>,rapidjson::MemoryPoolAllocator<rapidjson::CrtAllocator> >::WriteUint64(unsigned __int64)
FUNC 27fe0 7d 0 rapidjson::Writer<rapidjson::GenericStringBuffer<rapidjson::UTF8<char>,rapidjson::CrtAllocator>,rapidjson::UTF8<char>,rapidjson::MemoryPoolAllocator<rapidjson::CrtAllocator> >::WriteUint(unsigned int)
FUNC 28060 e 0 WebsiteUtils::WebsiteUtils()
FUNC 28070 b 0 WebsiteUtils::~WebsiteUtils()
FUNC 28080 8e 0 WebsiteUtils::websiteUrl()
FUNC 28110 35 0 Response::Response()
FUNC 28150 81 0 Response::~Response()
FUNC 281e0 1b0 0 Response::process(QNetworkReply *)
FUNC 28390 85 0 Response::updateETState()
FUNC 28420 11 0 Response::getJson()
FUNC 28440 11 0 Response::getHttpStatusCode()
FUNC 28460 38 0 Response::isSuccessful()
FUNC 284a0 13 0 Response::postProcess()
FUNC 284c0 27 0 rapidjson::GenericDocument<rapidjson::UTF8<char>,rapidjson::MemoryPoolAllocator<rapidjson::CrtAllocator> >::Parse<0>(char const *)
FUNC 284f0 142 0 rapidjson::GenericReader<rapidjson::UTF8<char>,rapidjson::MemoryPoolAllocator<rapidjson::CrtAllocator> >::Parse<0,rapidjson::GenericStringStream<rapidjson::UTF8<char> >,rapidjson::GenericDocument<rapidjson::UTF8<char>,rapidjson::MemoryPoolAllocator<rapidjson::CrtAllocator> > >(rapidjson::GenericStringStream<rapidjson::UTF8<char> > &,rapidjson::GenericDocument<rapidjson::UTF8<char>,rapidjson::MemoryPoolAllocator<rapidjson::CrtAllocator> > &)
FUNC 28640 e3 0 rapidjson::GenericReader<rapidjson::UTF8<char>,rapidjson::MemoryPoolAllocator<rapidjson::CrtAllocator> >::ParseArray<0,rapidjson::GenericStringStream<rapidjson::UTF8<char> >,rapidjson::GenericDocument<rapidjson::UTF8<char>,rapidjson::MemoryPoolAllocator<rapidjson::CrtAllocator> > >(rapidjson::GenericStringStream<rapidjson::UTF8<char> > &,rapidjson::GenericDocument<rapidjson::UTF8<char>,rapidjson::MemoryPoolAllocator<rapidjson::CrtAllocator> > &)
FUNC 28730 8f 0 rapidjson::GenericReader<rapidjson::UTF8<char>,rapidjson::MemoryPoolAllocator<rapidjson::CrtAllocator> >::ParseFalse<0,rapidjson::GenericStringStream<rapidjson::UTF8<char> >,rapidjson::GenericDocument<rapidjson::UTF8<char>,rapidjson::MemoryPoolAllocator<rapidjson::CrtAllocator> > >(rapidjson::GenericStringStream<rapidjson::UTF8<char> > &,rapidjson::GenericDocument<rapidjson::UTF8<char>,rapidjson::MemoryPoolAllocator<rapidjson::CrtAllocator> > &)
FUNC 287c0 f9 0 rapidjson::GenericReader<rapidjson::UTF8<char>,rapidjson::MemoryPoolAllocator<rapidjson::CrtAllocator> >::ParseHex4<rapidjson::GenericStringStream<rapidjson::UTF8<char> > >(rapidjson::GenericStringStream<rapidjson::UTF8<char> > &)
FUNC 288c0 7d 0 rapidjson::GenericReader<rapidjson::UTF8<char>,rapidjson::MemoryPoolAllocator<rapidjson::CrtAllocator> >::ParseNull<0,rapidjson::GenericStringStream<rapidjson::UTF8<char> >,rapidjson::GenericDocument<rapidjson::UTF8<char>,rapidjson::MemoryPoolAllocator<rapidjson::CrtAllocator> > >(rapidjson::GenericStringStream<rapidjson::UTF8<char> > &,rapidjson::GenericDocument<rapidjson::UTF8<char>,rapidjson::MemoryPoolAllocator<rapidjson::CrtAllocator> > &)
FUNC 28940 799 c rapidjson::GenericReader<rapidjson::UTF8<char>,rapidjson::MemoryPoolAllocator<rapidjson::CrtAllocator> >::ParseNumber<0,rapidjson::GenericStringStream<rapidjson::UTF8<char> >,rapidjson::GenericDocument<rapidjson::UTF8<char>,rapidjson::MemoryPoolAllocator<rapidjson::CrtAllocator> > >(rapidjson::GenericStringStream<rapidjson::UTF8<char> > &,rapidjson::GenericDocument<rapidjson::UTF8<char>,rapidjson::MemoryPoolAllocator<rapidjson::CrtAllocator> > &)
FUNC 290e0 18b 0 rapidjson::GenericReader<rapidjson::UTF8<char>,rapidjson::MemoryPoolAllocator<rapidjson::CrtAllocator> >::ParseObject<0,rapidjson::GenericStringStream<rapidjson::UTF8<char> >,rapidjson::GenericDocument<rapidjson::UTF8<char>,rapidjson::MemoryPoolAllocator<rapidjson::CrtAllocator> > >(rapidjson::GenericStringStream<rapidjson::UTF8<char> > &,rapidjson::GenericDocument<rapidjson::UTF8<char>,rapidjson::MemoryPoolAllocator<rapidjson::CrtAllocator> > &)
FUNC 29270 e3 0 rapidjson::GenericDocument<rapidjson::UTF8<char>,rapidjson::MemoryPoolAllocator<rapidjson::CrtAllocator> >::ParseStream<0,rapidjson::GenericStringStream<rapidjson::UTF8<char> > >(rapidjson::GenericStringStream<rapidjson::UTF8<char> > &)
FUNC 29360 3d4 0 rapidjson::GenericReader<rapidjson::UTF8<char>,rapidjson::MemoryPoolAllocator<rapidjson::CrtAllocator> >::ParseString<0,rapidjson::GenericStringStream<rapidjson::UTF8<char> >,rapidjson::GenericDocument<rapidjson::UTF8<char>,rapidjson::MemoryPoolAllocator<rapidjson::CrtAllocator> > >(rapidjson::GenericStringStream<rapidjson::UTF8<char> > &,rapidjson::GenericDocument<rapidjson::UTF8<char>,rapidjson::MemoryPoolAllocator<rapidjson::CrtAllocator> > &)
FUNC 29740 7c 0 rapidjson::GenericReader<rapidjson::UTF8<char>,rapidjson::MemoryPoolAllocator<rapidjson::CrtAllocator> >::ParseTrue<0,rapidjson::GenericStringStream<rapidjson::UTF8<char> >,rapidjson::GenericDocument<rapidjson::UTF8<char>,rapidjson::MemoryPoolAllocator<rapidjson::CrtAllocator> > >(rapidjson::GenericStringStream<rapidjson::UTF8<char> > &,rapidjson::GenericDocument<rapidjson::UTF8<char>,rapidjson::MemoryPoolAllocator<rapidjson::CrtAllocator> > &)
FUNC 297c0 132 0 rapidjson::GenericReader<rapidjson::UTF8<char>,rapidjson::MemoryPoolAllocator<rapidjson::CrtAllocator> >::ParseValue<0,rapidjson::GenericStringStream<rapidjson::UTF8<char> >,rapidjson::GenericDocument<rapidjson::UTF8<char>,rapidjson::MemoryPoolAllocator<rapidjson::CrtAllocator> > >(rapidjson::GenericStringStream<rapidjson::UTF8<char> > &,rapidjson::GenericDocument<rapidjson::UTF8<char>,rapidjson::MemoryPoolAllocator<rapidjson::CrtAllocator> > &)
FUNC 29900 27 0 rapidjson::internal::Stack<rapidjson::MemoryPoolAllocator<rapidjson::CrtAllocator> >::Pop<rapidjson::GenericValue<rapidjson::UTF8<char>,rapidjson::MemoryPoolAllocator<rapidjson::CrtAllocator> >::Member>(unsigned int)
FUNC 29930 27 0 rapidjson::internal::Stack<rapidjson::MemoryPoolAllocator<rapidjson::CrtAllocator> >::Pop<rapidjson::GenericValue<rapidjson::UTF8<char>,rapidjson::MemoryPoolAllocator<rapidjson::CrtAllocator> > >(unsigned int)
FUNC 29960 b9 0 rapidjson::internal::Stack<rapidjson::MemoryPoolAllocator<rapidjson::CrtAllocator> >::Push<char>(unsigned int)
FUNC 29a20 c8 0 rapidjson::internal::Stack<rapidjson::MemoryPoolAllocator<rapidjson::CrtAllocator> >::Push<rapidjson::GenericValue<rapidjson::UTF8<char>,rapidjson::MemoryPoolAllocator<rapidjson::CrtAllocator> > >(unsigned int)
FUNC 29af0 70 0 rapidjson::SkipWhitespace<rapidjson::GenericStringStream<rapidjson::UTF8<char> > >(rapidjson::GenericStringStream<rapidjson::UTF8<char> > &)
FUNC 29b60 14 0 rapidjson::internal::Stack<rapidjson::MemoryPoolAllocator<rapidjson::CrtAllocator> >::Top<rapidjson::GenericValue<rapidjson::UTF8<char>,rapidjson::MemoryPoolAllocator<rapidjson::CrtAllocator> > >()
FUNC 29b80 34 0 rapidjson::GenericReader<rapidjson::UTF8<char>,rapidjson::MemoryPoolAllocator<rapidjson::CrtAllocator> >::GenericReader<rapidjson::UTF8<char>,rapidjson::MemoryPoolAllocator<rapidjson::CrtAllocator> >(rapidjson::MemoryPoolAllocator<rapidjson::CrtAllocator> *,unsigned int)
FUNC 29bc0 21 0 rapidjson::GenericStringStream<rapidjson::UTF8<char> >::GenericStringStream<rapidjson::UTF8<char> >(char const *)
FUNC 29bf0 43 0 rapidjson::GenericValue<rapidjson::UTF8<char>,rapidjson::MemoryPoolAllocator<rapidjson::CrtAllocator> >::GenericValue<rapidjson::UTF8<char>,rapidjson::MemoryPoolAllocator<rapidjson::CrtAllocator> >(unsigned int)
FUNC 29c40 26 0 rapidjson::GenericValue<rapidjson::UTF8<char>,rapidjson::MemoryPoolAllocator<rapidjson::CrtAllocator> >::GenericValue<rapidjson::UTF8<char>,rapidjson::MemoryPoolAllocator<rapidjson::CrtAllocator> >(double)
FUNC 29c70 24 0 rapidjson::GenericValue<rapidjson::UTF8<char>,rapidjson::MemoryPoolAllocator<rapidjson::CrtAllocator> >::GenericValue<rapidjson::UTF8<char>,rapidjson::MemoryPoolAllocator<rapidjson::CrtAllocator> >(char const *,unsigned int,rapidjson::MemoryPoolAllocator<rapidjson::CrtAllocator> &)
FUNC 29ca0 c4 0 rapidjson::GenericValue<rapidjson::UTF8<char>,rapidjson::MemoryPoolAllocator<rapidjson::CrtAllocator> >::GenericValue<rapidjson::UTF8<char>,rapidjson::MemoryPoolAllocator<rapidjson::CrtAllocator> >(__int64)
FUNC 29d70 ae 0 rapidjson::GenericValue<rapidjson::UTF8<char>,rapidjson::MemoryPoolAllocator<rapidjson::CrtAllocator> >::GenericValue<rapidjson::UTF8<char>,rapidjson::MemoryPoolAllocator<rapidjson::CrtAllocator> >(unsigned __int64)
FUNC 29e20 33 0 rapidjson::GenericValue<rapidjson::UTF8<char>,rapidjson::MemoryPoolAllocator<rapidjson::CrtAllocator> >::GenericValue<rapidjson::UTF8<char>,rapidjson::MemoryPoolAllocator<rapidjson::CrtAllocator> >(bool)
FUNC 29e60 13 0 rapidjson::GenericReader<rapidjson::UTF8<char>,rapidjson::MemoryPoolAllocator<rapidjson::CrtAllocator> >::~GenericReader<rapidjson::UTF8<char>,rapidjson::MemoryPoolAllocator<rapidjson::CrtAllocator> >()
FUNC 29e80 2c 0 CertificateContainer::`scalar deleting destructor'(unsigned int)
FUNC 29eb0 2c 0 Response::`scalar deleting destructor'(unsigned int)
FUNC 29ee0 8d 0 rapidjson::GenericDocument<rapidjson::UTF8<char>,rapidjson::MemoryPoolAllocator<rapidjson::CrtAllocator> >::Bool(bool)
FUNC 29f70 17 0 rapidjson::internal::Stack<rapidjson::MemoryPoolAllocator<rapidjson::CrtAllocator> >::Clear()
FUNC 29f90 43 0 rapidjson::GenericDocument<rapidjson::UTF8<char>,rapidjson::MemoryPoolAllocator<rapidjson::CrtAllocator> >::ClearStack()
FUNC 29fe0 95 0 rapidjson::GenericDocument<rapidjson::UTF8<char>,rapidjson::MemoryPoolAllocator<rapidjson::CrtAllocator> >::Double(double)
FUNC 2a080 13b 0 rapidjson::UTF8<char>::Encode(char *,unsigned int)
FUNC 2a1c0 44 0 rapidjson::GenericDocument<rapidjson::UTF8<char>,rapidjson::MemoryPoolAllocator<rapidjson::CrtAllocator> >::EndArray(unsigned int)
FUNC 2a210 44 0 rapidjson::GenericDocument<rapidjson::UTF8<char>,rapidjson::MemoryPoolAllocator<rapidjson::CrtAllocator> >::EndObject(unsigned int)
FUNC 2a260 11 0 rapidjson::GenericReader<rapidjson::UTF8<char>,rapidjson::MemoryPoolAllocator<rapidjson::CrtAllocator> >::GetErrorOffset()
FUNC 2a280 11 0 rapidjson::GenericReader<rapidjson::UTF8<char>,rapidjson::MemoryPoolAllocator<rapidjson::CrtAllocator> >::GetParseError()
FUNC 2a2a0 90 0 rapidjson::GenericDocument<rapidjson::UTF8<char>,rapidjson::MemoryPoolAllocator<rapidjson::CrtAllocator> >::Int64(__int64)
FUNC 2a330 8c 0 rapidjson::GenericDocument<rapidjson::UTF8<char>,rapidjson::MemoryPoolAllocator<rapidjson::CrtAllocator> >::Int(int)
FUNC 2a3c0 86 0 rapidjson::GenericDocument<rapidjson::UTF8<char>,rapidjson::MemoryPoolAllocator<rapidjson::CrtAllocator> >::Null()
FUNC 2a450 12 0 rapidjson::GenericStringStream<rapidjson::UTF8<char> >::Peek()
FUNC 2a470 36 0 rapidjson::internal::Pow10(int)
FUNC 2a4b0 d 0 rapidjson::GenericStringStream<rapidjson::UTF8<char> >::PutBegin()
FUNC 2a4c0 f 0 rapidjson::GenericStringStream<rapidjson::UTF8<char> >::PutEnd(char *)
FUNC 2a4d0 56 0 rapidjson::GenericValue<rapidjson::UTF8<char>,rapidjson::MemoryPoolAllocator<rapidjson::CrtAllocator> >::SetArrayRaw(rapidjson::GenericValue<rapidjson::UTF8<char>,rapidjson::MemoryPoolAllocator<rapidjson::CrtAllocator> > *,unsigned int,rapidjson::MemoryPoolAllocator<rapidjson::CrtAllocator> &)
FUNC 2a530 83 0 rapidjson::GenericValue<rapidjson::UTF8<char>,rapidjson::MemoryPoolAllocator<rapidjson::CrtAllocator> >::SetNull()
FUNC 2a5c0 56 0 rapidjson::GenericValue<rapidjson::UTF8<char>,rapidjson::MemoryPoolAllocator<rapidjson::CrtAllocator> >::SetObjectRaw(rapidjson::GenericValue<rapidjson::UTF8<char>,rapidjson::MemoryPoolAllocator<rapidjson::CrtAllocator> >::Member *,unsigned int,rapidjson::MemoryPoolAllocator<rapidjson::CrtAllocator> &)
FUNC 2a620 88 0 rapidjson::GenericDocument<rapidjson::UTF8<char>,rapidjson::MemoryPoolAllocator<rapidjson::CrtAllocator> >::StartArray()
FUNC 2a6b0 88 0 rapidjson::GenericDocument<rapidjson::UTF8<char>,rapidjson::MemoryPoolAllocator<rapidjson::CrtAllocator> >::StartObject()
FUNC 2a740 fa 0 rapidjson::GenericDocument<rapidjson::UTF8<char>,rapidjson::MemoryPoolAllocator<rapidjson::CrtAllocator> >::String(char const *,unsigned int,bool)
FUNC 2a840 27 0 rapidjson::GenericStringStream<rapidjson::UTF8<char> >::Take()
FUNC 2a870 16 0 rapidjson::GenericStringStream<rapidjson::UTF8<char> >::Tell()
FUNC 2a890 90 0 rapidjson::GenericDocument<rapidjson::UTF8<char>,rapidjson::MemoryPoolAllocator<rapidjson::CrtAllocator> >::Uint64(unsigned __int64)
FUNC 2a920 8c 0 rapidjson::GenericDocument<rapidjson::UTF8<char>,rapidjson::MemoryPoolAllocator<rapidjson::CrtAllocator> >::Uint(unsigned int)
FUNC 2a9b0 3f 0 AbstractPinger::metaObject()
FUNC 2a9f0 3d 0 AbstractPinger::qt_metacast(char const *)
FUNC 2aa30 8a 0 AbstractPinger::qt_metacall(QMetaObject::Call,int,void * *)
FUNC 2aac0 2c 0 AbstractPinger::qt_static_metacall(QObject *,QMetaObject::Call,int,void * *)
FUNC 2aaf0 39 0 StatusRequest::StatusRequest()
FUNC 2ab30 e5 0 StatusRequest::setLatestStatusVersion()
FUNC 2ac20 4d 0 StatusRequest::handleError(QNetworkReply *)
FUNC 2ac70 13 0 StatusRequest::~StatusRequest()
FUNC 2ac90 2c 0 StatusRequest::`scalar deleting destructor'(unsigned int)
FUNC 2acc0 3f 0 StatePinger::metaObject()
FUNC 2ad00 3d 0 StatePinger::qt_metacast(char const *)
FUNC 2ad40 32 0 StatePinger::qt_metacall(QMetaObject::Call,int,void * *)
FUNC 2ad80 5 0 StatePinger::qt_static_metacall(QObject *,QMetaObject::Call,int,void * *)
FUNC 2ad90 99 0 UpdatesRequest::UpdatesRequest()
FUNC 2ae30 75 0 UpdatesRequest::initResponse()
FUNC 2aeb0 3f 0 UpdatePinger::metaObject()
FUNC 2aef0 3d 0 UpdatePinger::qt_metacast(char const *)
FUNC 2af30 32 0 UpdatePinger::qt_metacall(QMetaObject::Call,int,void * *)
FUNC 2af70 5 0 UpdatePinger::qt_static_metacall(QObject *,QMetaObject::Call,int,void * *)
FUNC 2af80 3f 0 Machine::metaObject()
FUNC 2afc0 3d 0 Machine::qt_metacast(char const *)
FUNC 2b000 32 0 Machine::qt_metacall(QMetaObject::Call,int,void * *)
FUNC 2b040 5 0 Machine::qt_static_metacall(QObject *,QMetaObject::Call,int,void * *)
FUNC 2b050 a0 0 ServerMessage::ServerMessage(int,QString,std::vector<QString,std::allocator<QString> >)
FUNC 2b0f0 21 0 ServerMessage::~ServerMessage()
FUNC 2b120 3e 0 ServerMessage::IsDisconnectionMessage()
FUNC 2b160 28 0 ServerMessage::IsFinalDeconnection()
FUNC 2b190 8a 0 ServerMessage::GetStringKey()
FUNC 2b220 31 0 ServerMessage::GetArgs()
FUNC 2b260 7 0 std::operator==<QString,QString>(std::allocator<QString> const &,std::allocator<QString> const &)
FUNC 2b270 34 0 std::_Copy_impl<QString *,QString *>(QString *,QString *,QString *)
FUNC 2b2b0 32 0 std::_Copy_impl<QString *,QString *>(QString *,QString *,QString *,std::_Nonscalar_ptr_iterator_tag)
FUNC 2b2f0 33 0 std::vector<QString,std::allocator<QString> >::_Ucopy<QString *>(QString *,QString *,QString *)
FUNC 2b330 38 0 std::_Uninit_copy<QString *,QString *,std::_Wrap_alloc<std::allocator<QString> > >(QString *,QString *,QString *,std::_Wrap_alloc<std::allocator<QString> > &)
FUNC 2b370 bc 0 std::_Uninit_copy<QString *,QString *,std::allocator<QString> >(QString *,QString *,QString *,std::_Wrap_alloc<std::allocator<QString> > &,std::_Nonscalar_ptr_iterator_tag)
FUNC 2b430 47 0 std::_Uninitialized_copy<QString *,QString *,std::_Wrap_alloc<std::allocator<QString> > >(QString *,QString *,QString *,std::_Wrap_alloc<std::allocator<QString> > &)
FUNC 2b480 2a 0 std::_Wrap_alloc<std::allocator<QString> >::construct<QString,QString &>(QString *,QString &)
FUNC 2b4b0 85 0 std::allocator<QString>::construct<QString,QString &>(QString *,QString &)
FUNC 2b540 1e 0 std::allocator_traits<std::allocator<QString> >::construct<QString,QString &>(std::allocator<QString> &,QString *,QString &)
FUNC 2b560 23d 0 std::vector<QString,std::allocator<QString> >::operator=(std::vector<QString,std::allocator<QString> > const &)
FUNC 2b7a0 34 0 std::vector<QString,std::allocator<QString> >::clear()
FUNC 2b7e0 2d 0 std::vector<QString,std::allocator<QString> >::empty()
FUNC 2b810 3f 0 CustomErrorHandler::metaObject()
FUNC 2b850 3d 0 CustomErrorHandler::qt_metacast(char const *)
FUNC 2b890 8a 0 CustomErrorHandler::qt_metacall(QMetaObject::Call,int,void * *)
FUNC 2b920 7b 0 CustomErrorHandler::qt_static_metacall(QObject *,QMetaObject::Call,int,void * *)
FUNC 2b9a0 33 0 CustomErrorHandler::sig_abortExec(ETException *)
FUNC 2b9e0 dc 0 Deserializer::Deserializer(QString)
FUNC 2bac0 13 0 Deserializer::~Deserializer()
FUNC 2bae0 1da 0 Deserializer::GetString(int)
FUNC 2bcc0 81 0 Deserializer::GetDate(int)
FUNC 2bd50 b4 0 Deserializer::GetBool(int)
FUNC 2be10 13 0 Deserializer::GetSplitCount()
FUNC 2be30 15 0 qSwap<QListData::Data *>(QListData::Data * &,QListData::Data * &)
FUNC 2be50 3f 0 std::swap<QListData::Data *>(QListData::Data * &,QListData::Data * &)
FUNC 2be90 76 0 QList<QString>::operator=(QList<QString> const &)
FUNC 2bf10 1c 0 QStringList::operator=(QStringList const &)
FUNC 2bf30 1d 0 QList<QString>::swap(QList<QString> &)
FUNC 2bf50 1f 0 UpdateResponse::UpdateResponse()
FUNC 2bf70 1c 0 UpdateResponse::~UpdateResponse()
FUNC 2bf90 ba 0 UpdateResponse::postProcess()
FUNC 2c050 2c 0 UpdateResponse::`scalar deleting destructor'(unsigned int)
FUNC 2c080 3f 0 UpdateResponse::metaObject()
FUNC 2c0c0 3d 0 UpdateResponse::qt_metacast(char const *)
FUNC 2c100 32 0 UpdateResponse::qt_metacall(QMetaObject::Call,int,void * *)
FUNC 2c140 5 0 UpdateResponse::qt_static_metacall(QObject *,QMetaObject::Call,int,void * *)
PUBLIC 2c150 0 QWeakPointer<QObject>::assign<QObject>(QObject *)
PUBLIC 2c1c0 0 QGenericEnginePlugin::`vector deleting destructor'(unsigned int)
PUBLIC 2c1f0 0 QGenericEnginePlugin::create(QString const &)
PUBLIC 2c230 0 QGenericEnginePlugin::metaObject()
PUBLIC 2c250 0 QGenericEnginePlugin::qt_metacast(char const *)
PUBLIC 2c360 0 qt_static_plugin_QGenericEnginePlugin()
PUBLIC 2c370 0 QGenericEngine::QGenericEngine(QObject *)
PUBLIC 2c3b0 0 QNetworkConfigurationPrivate::QNetworkConfigurationPrivate()
PUBLIC 2c410 0 QNetworkSessionPrivateImpl::QNetworkSessionPrivateImpl()
PUBLIC 2c490 0 QList<QNetworkAddressEntry>::~QList<QNetworkAddressEntry>()
PUBLIC 2c4f0 0 QList<QNetworkInterface>::~QList<QNetworkInterface>()
PUBLIC 2c550 0 QGenericEngine::~QGenericEngine()
PUBLIC 2c5b0 0 QNetworkConfigurationPrivate::~QNetworkConfigurationPrivate()
PUBLIC 2c6a0 0 operator!=(QString const &,QString const &)
PUBLIC 2c6c0 0 QBearerEngineImpl::`vector deleting destructor'(unsigned int)
PUBLIC 2c6f0 0 QGenericEngine::`vector deleting destructor'(unsigned int)
PUBLIC 2c710 0 QNetworkConfigurationPrivate::`vector deleting destructor'(unsigned int)
PUBLIC 2c730 0 QNetworkSessionPrivate::`vector deleting destructor'(unsigned int)
PUBLIC 2c780 0 QGenericEngine::capabilities()
PUBLIC 2c790 0 QGenericEngine::connectToId(QString const &)
PUBLIC 2c7a0 0 QHash<QString,int>::contains(QString const &)
PUBLIC 2c820 0 QHash<QString,QExplicitlySharedDataPointer<QNetworkConfigurationPrivate> >::createNode(unsigned int,QString const &,QExplicitlySharedDataPointer<QNetworkConfigurationPrivate> const &,QHashNode<QString,QExplicitlySharedDataPointer<QNetworkConfigurationPrivate> > * *)
PUBLIC 2c8a0 0 QMapData<QByteArray,QByteArray>::createNode(QByteArray const &,QByteArray const &,QMapNode<QByteArray,QByteArray> *,bool)
PUBLIC 2c900 0 QGenericEngine::defaultConfiguration()
PUBLIC 2c910 0 QHash<QString,QExplicitlySharedDataPointer<QNetworkConfigurationPrivate> >::deleteNode2(QHashData::Node *)
PUBLIC 2c970 0 QHash<QString,QExplicitlySharedDataPointer<QNetworkConfigurationPrivate> >::deleteNode(QHashNode<QString,QExplicitlySharedDataPointer<QNetworkConfigurationPrivate> > *)
PUBLIC 2c9e0 0 QMapNode<unsigned int,QExplicitlySharedDataPointer<QNetworkConfigurationPrivate> >::destroySubTree()
PUBLIC 2ca20 0 QMapNode<QString,QString>::destroySubTree()
PUBLIC 2ca90 0 QHash<QString,QExplicitlySharedDataPointer<QNetworkConfigurationPrivate> >::detach()
PUBLIC 2caf0 0 QList<QNetworkInterface>::detach_helper(int)
PUBLIC 2cb90 0 QMap<QString,QString>::detach_helper()
PUBLIC 2cc10 0 QGenericEngine::doRequestUpdate()
PUBLIC 2d670 0 QHash<QString,QExplicitlySharedDataPointer<QNetworkConfigurationPrivate> >::duplicateNode(QHashData::Node *,void *)
PUBLIC 2d6c0 0 QList<QString>::erase(QList<QString>::iterator)
PUBLIC 2d760 0 QList<QString>::first()
PUBLIC 2d790 0 QString::fromLatin1(char const *,int)
PUBLIC 2d7d0 0 QGenericEngine::getInterfaceFromId(QString const &)
PUBLIC 2d8a0 0 QGenericEngine::hasIdentifier(QString const &)
PUBLIC 2d910 0 QHashData::hasShrunk()
PUBLIC 2d960 0 QList<QString>::indexOf(QString const &,int)
PUBLIC 2da00 0 QHash<QString,QExplicitlySharedDataPointer<QNetworkConfigurationPrivate> >::insert(QString const &,QExplicitlySharedDataPointer<QNetworkConfigurationPrivate> const &)
PUBLIC 2db00 0 QMap<QString,QString>::insert(QString const &,QString const &)
PUBLIC 2dbc0 0 QHash<QString,QExplicitlySharedDataPointer<QNetworkConfigurationPrivate> >::keys()
PUBLIC 2dcb0 0 QList<QNetworkAddressEntry>::node_destruct(QList<QNetworkAddressEntry>::Node *,QList<QNetworkAddressEntry>::Node *)
PUBLIC 2dce0 0 QList<QNetworkInterface>::node_destruct(QList<QNetworkInterface>::Node *,QList<QNetworkInterface>::Node *)
PUBLIC 2dea0 0 QMap<QString,QString>::remove(QString const &)
PUBLIC 2df90 0 QList<QString>::removeAll(QString const &)
PUBLIC 2e0c0 0 QGenericEngine::initialize()
PUBLIC 2e0d0 0 QGenericEngine::sessionStateForId(QString const &)
PUBLIC 2e1a0 0 QSocks5SocketEnginePrivate::_q_controlSocketStateChanged(QAbstractSocket::SocketState)
PUBLIC 2e1b0 0 QBearerEngineImpl::bytesReceived(QString const &)
PUBLIC 2e1c0 0 QHash<QString,QExplicitlySharedDataPointer<QNetworkConfigurationPrivate> >::take(QString const &)
PUBLIC 2e2a0 0 QHash<QString,QExplicitlySharedDataPointer<QNetworkConfigurationPrivate> >::value(QString const &)
PUBLIC 2e340 0 QBearerEngineImpl::qt_static_metacall(QObject *,QMetaObject::Call,int,void * *)
PUBLIC 2e420 0 QBearerEngineImpl::connectionError(QString const &,QBearerEngineImpl::ConnectionError)
PUBLIC 2e470 0 QBearerEngineImpl::metaObject()
PUBLIC 2e490 0 QBearerEngineImpl::qt_metacall(QMetaObject::Call,int,void * *)
PUBLIC 2e4f0 0 QBearerEngineImpl::qt_metacast(char const *)
PUBLIC 2e550 0 QMetaTypeId<QBearerEngineImpl::ConnectionError>::qt_metatype_id()
PUBLIC 2e5e0 0 QGenericEngine::qt_static_metacall(QObject *,QMetaObject::Call,int,void * *)
PUBLIC 2e620 0 QGenericEngine::metaObject()
PUBLIC 2e640 0 QGenericEngine::qt_metacall(QMetaObject::Call,int,void * *)
PUBLIC 2e6d0 0 QGenericEngine::qt_metacast(char const *)
PUBLIC 2e730 0 QNetworkSessionPrivateImpl::qt_static_metacall(QObject *,QMetaObject::Call,int,void * *)
PUBLIC 2e830 0 QtMetaTypePrivate::QMetaTypeFunctionHelper<QExplicitlySharedDataPointer<QNetworkConfigurationPrivate>,1>::Construct(void *,void const *)
PUBLIC 2e870 0 QtMetaTypePrivate::QMetaTypeFunctionHelper<QNetworkConfiguration,1>::Construct(void *,void const *)
PUBLIC 2e8a0 0 QtMetaTypePrivate::QMetaTypeFunctionHelper<QExplicitlySharedDataPointer<QNetworkConfigurationPrivate>,1>::Create(void const *)
PUBLIC 2e8f0 0 QtMetaTypePrivate::QMetaTypeFunctionHelper<QNetworkConfiguration,1>::Create(void const *)
PUBLIC 2e920 0 QtMetaTypePrivate::QMetaTypeFunctionHelper<QExplicitlySharedDataPointer<QNetworkConfigurationPrivate>,1>::Delete(void *)
PUBLIC 2e960 0 QtMetaTypePrivate::QMetaTypeFunctionHelper<QNetworkConfiguration,1>::Delete(void *)
PUBLIC 2e980 0 QtMetaTypePrivate::QMetaTypeFunctionHelper<QExplicitlySharedDataPointer<QNetworkConfigurationPrivate>,1>::Destruct(void *)
PUBLIC 2e9b0 0 QtMetaTypePrivate::QMetaTypeFunctionHelper<QNetworkConfiguration,1>::Destruct(void *)
PUBLIC 2e9c0 0 QNetworkSessionPrivateImpl::metaObject()
PUBLIC 2e9e0 0 QNetworkSessionPrivateImpl::qt_metacall(QMetaObject::Call,int,void * *)
PUBLIC 2ea30 0 QNetworkSessionPrivateImpl::qt_metacast(char const *)
PUBLIC 2ea90 0 QMetaTypeId<QExplicitlySharedDataPointer<QNetworkConfigurationPrivate> >::qt_metatype_id()
PUBLIC 2eb20 0 QMetaTypeId<QNetworkConfiguration>::qt_metatype_id()
PUBLIC 2ebb0 0 QNetworkSessionManagerPrivate::qt_static_metacall(QObject *,QMetaObject::Call,int,void * *)
PUBLIC 2ec50 0 QForeachContainer<QList<QNetworkConfiguration> >::QForeachContainer<QList<QNetworkConfiguration> >(QList<QNetworkConfiguration> const &)
PUBLIC 2ecd0 0 QList<QNetworkConfiguration>::~QList<QNetworkConfiguration>()
PUBLIC 2ed30 0 QNetworkSessionManagerPrivate::`vector deleting destructor'(unsigned int)
PUBLIC 2ed60 0 QNetworkSessionPrivateImpl::activeTime()
PUBLIC 2edb0 0 QNetworkSessionPrivateImpl::bytesReceived()
PUBLIC 2ee20 0 QNetworkSessionPrivateImpl::bytesWritten()
PUBLIC 2ee90 0 QNetworkSessionPrivateImpl::close()
PUBLIC 2eed0 0 QNetworkSessionPrivateImpl::configurationChanged(QExplicitlySharedDataPointer<QNetworkConfigurationPrivate>)
PUBLIC 2f040 0 QNetworkSessionPrivateImpl::connectionError(QString const &,QBearerEngineImpl::ConnectionError)
PUBLIC 2f0d0 0 QNetworkSessionPrivateImpl::currentInterface()
PUBLIC 2f1b0 0 QNetworkSessionPrivateImpl::decrementTimeout()
PUBLIC 2f1f0 0 QNetworkSessionPrivateImpl::error()
PUBLIC 2f200 0 QNetworkSessionPrivateImpl::errorString()
PUBLIC 2f2d0 0 QNetworkSessionManagerPrivate::forcedSessionClose(QNetworkConfiguration const &)
PUBLIC 2f300 0 QNetworkSessionPrivateImpl::forcedSessionClose(QNetworkConfiguration const &)
PUBLIC 2f470 0 `anonymous namespace'::Q_QGS_sessionManager::innerFunction()
PUBLIC 2f510 0 QNetworkSessionManagerPrivate::metaObject()
PUBLIC 2f530 0 QNetworkSessionPrivateImpl::networkConfigurationsChanged()
PUBLIC 2f5b0 0 QList<QNetworkConfiguration>::node_copy(QList<QNetworkConfiguration>::Node *,QList<QNetworkConfiguration>::Node *,QList<QNetworkConfiguration>::Node *)
PUBLIC 2f5f0 0 QList<QNetworkConfiguration>::node_destruct(QList<QNetworkConfiguration>::Node *,QList<QNetworkConfiguration>::Node *)
PUBLIC 2f620 0 QNetworkSessionPrivateImpl::open()
PUBLIC 2f720 0 QNetworkSessionManagerPrivate::qt_metacall(QMetaObject::Call,int,void * *)
PUBLIC 2f780 0 QNetworkSessionManagerPrivate::qt_metacast(char const *)
PUBLIC 2f7e0 0 QNetworkSessionPrivateImpl::sessionProperty(QString const &)
PUBLIC 2f870 0 QNetworkSessionPrivateImpl::setSessionProperty(QString const &,QVariant const &)
PUBLIC 2f930 0 QNetworkSessionPrivateImpl::setUsagePolicies(QFlags<QNetworkSession::UsagePolicy>)
PUBLIC 2f950 0 QNetworkSessionPrivateImpl::stop()
PUBLIC 2fa40 0 QNetworkSessionPrivateImpl::syncStateWithInterface()
PUBLIC 2fb80 0 QNetworkSessionPrivateImpl::updateStateFromActiveConfig()
PUBLIC 2fc20 0 QNetworkSessionPrivateImpl::updateStateFromServiceNetwork()
PUBLIC 2fec0 0 QNetworkSessionPrivateImpl::usagePolicies()
PUBLIC 2fed0 0 QNativeWifiEnginePlugin::`vector deleting destructor'(unsigned int)
PUBLIC 2ff00 0 QNativeWifiEnginePlugin::create(QString const &)
PUBLIC 2ff70 0 QNativeWifiEnginePlugin::metaObject()
PUBLIC 2ff90 0 QGenericEnginePlugin::qt_metacall(QMetaObject::Call,int,void * *)
PUBLIC 2ffa0 0 QNativeWifiEnginePlugin::qt_metacast(char const *)
PUBLIC 300b0 0 qt_static_plugin_QNativeWifiEnginePlugin()
PUBLIC 30470 0 QNativeWifiEngine::QNativeWifiEngine(QObject *)
PUBLIC 304c0 0 QNativeWifiEngine::`vector deleting destructor'(unsigned int)
PUBLIC 30510 0 QString::arg(int,int,int,QChar)
PUBLIC 30540 0 QNativeWifiEngine::available()
PUBLIC 305a0 0 QNativeWifiEngine::capabilities()
PUBLIC 305b0 0 QString::clear()
PUBLIC 305f0 0 QNativeWifiEngine::closeHandle()
PUBLIC 30610 0 QNativeWifiEngine::connectToId(QString const &)
PUBLIC 30a60 0 QGenericEngine::createSessionBackend()
PUBLIC 30a80 0 QNativeWifiEngine::disconnectFromId(QString const &)
PUBLIC 30e00 0 QNativeWifiEngine::getInterfaceFromId(QString const &)
PUBLIC 31220 0 QNativeWifiEngine::hasIdentifier(QString const &)
PUBLIC 31600 0 QNativeWifiEngine::initialize()
PUBLIC 31610 0 QMetaObject::invokeMethod(QObject *,char const *,Qt::ConnectionType,QGenericArgument,QGenericArgument,QGenericArgument,QGenericArgument,QGenericArgument,QGenericArgument,QGenericArgument,QGenericArgument,QGenericArgument,QGenericArgument)
PUBLIC 31680 0 qNotificationCallback(WLAN_NOTIFICATION_DATA *,QNativeWifiEngine *)
PUBLIC 31700 0 QNativeWifiEngine::requestUpdate()
PUBLIC 31810 0 QNativeWifiEngine::scanComplete()
PUBLIC 321c0 0 QNativeWifiEngine::sessionStateForId(QString const &)
PUBLIC 32270 0 QNativeWifiEngine::qt_static_metacall(QObject *,QMetaObject::Call,int,void * *)
PUBLIC 322c0 0 QNativeWifiEngine::metaObject()
PUBLIC 322e0 0 QNativeWifiEngine::qt_metacall(QMetaObject::Call,int,void * *)
PUBLIC 32340 0 QNativeWifiEngine::qt_metacast(char const *)
PUBLIC 323a0 0 QHostAddress::QHostAddress(QHostAddress const &)
PUBLIC 32420 0 QHostAddress::QHostAddress(QString const &)
PUBLIC 32480 0 QHostAddress::QHostAddress(unsigned int)
PUBLIC 32500 0 QHostAddress::QHostAddress(QHostAddress::SpecialAddress)
PUBLIC 32650 0 QHostAddress::QHostAddress()
PUBLIC 326a0 0 QNetmaskAddress::QNetmaskAddress()
PUBLIC 32700 0 QPair<QHostAddress,int>::~QPair<QHostAddress,int>()
PUBLIC 32720 0 QFileSystemEntry::~QFileSystemEntry()
PUBLIC 32780 0 QHostAddress::operator=(QHostAddress const &)
PUBLIC 327d0 0 QDebug::operator<<(QString const &)
PUBLIC 32830 0 QDebug::operator<<(char const *)
PUBLIC 328b0 0 QHostAddress::operator==(QHostAddress const &)
PUBLIC 32940 0 QHostAddress::operator==(QHostAddress::SpecialAddress)
PUBLIC 329e0 0 QStringBuilder<QLatin1Char,QString>::operator QString()
PUBLIC 32a30 0 QHostAddress::clear()
PUBLIC 32ab0 0 QHostAddress::isInSubnet(QPair<QHostAddress,int> const &)
PUBLIC 32ac0 0 QHostAddress::isInSubnet(QHostAddress const &,int)
PUBLIC 32c40 0 QHostAddress::isLoopback()
PUBLIC 32dc0 0 QHostAddress::isNull()
PUBLIC 32f00 0 QList<QString>::last()
PUBLIC 32f30 0 QHostAddressPrivate::parse()
PUBLIC 331d0 0 QHostAddress::parseSubnet(QString const &)
PUBLIC 33680 0 QNetmaskAddress::prefixLength()
PUBLIC 33690 0 QHostAddress::protocol()
PUBLIC 337d0 0 qHash(QHostAddress const &,unsigned int)
PUBLIC 33840 0 QList<QString>::removeLast()
PUBLIC 33880 0 QHostAddress::scopeId()
PUBLIC 33960 0 QHostAddress::setAddress(QIPv6Address const &)
PUBLIC 339a0 0 QHostAddress::setAddress(unsigned int)
PUBLIC 339e0 0 QHostAddress::setAddress(unsigned char *)
PUBLIC 339f0 0 QHostAddress::setAddress(QString const &)
PUBLIC 33a10 0 QHostAddressPrivate::setAddress(QIPv6Address const &)
PUBLIC 33a50 0 QHostAddressPrivate::setAddress(unsigned int)
PUBLIC 33a90 0 QHostAddressPrivate::setAddress(unsigned char const *)
PUBLIC 33b20 0 QNetmaskAddress::setAddress(QHostAddress const &)
PUBLIC 33e00 0 QNetmaskAddress::setAddress(QString const &)
PUBLIC 33ea0 0 QNetmaskAddress::setPrefixLength(QAbstractSocket::NetworkLayerProtocol,int)
PUBLIC 33f60 0 QHostAddress::setScopeId(QString const &)
PUBLIC 340b0 0 QHostAddress::toIPv4Address()
PUBLIC 341f0 0 QHostAddress::toIPv6Address()
PUBLIC 34340 0 QHostAddress::toString()
PUBLIC 34450 0 QTcpServer::qt_static_metacall(QObject *,QMetaObject::Call,int,void * *)
PUBLIC 34540 0 qDeleteAll<QList<QBearerEngine *>::const_iterator>(QList<QBearerEngine *>::const_iterator,QList<QBearerEngine *>::const_iterator)
PUBLIC 34580 0 QList<QNetworkCookie>::QList<QNetworkCookie>(QList<QNetworkCookie> const &)
PUBLIC 345f0 0 QTcpServer::QTcpServer(QObject *)
PUBLIC 34630 0 QTcpServerPrivate::QTcpServerPrivate()
PUBLIC 346a0 0 QList<QNetworkProxy>::~QList<QNetworkProxy>()
PUBLIC 34700 0 QTcpServer::~QTcpServer()
PUBLIC 34720 0 QTcpServerPrivate::~QTcpServerPrivate()
PUBLIC 347b0 0 QList<QNetworkProxy>::operator<<(QNetworkProxy const &)
PUBLIC 34801 0 [thunk]:QTcpServerPrivate::`vector deleting destructor'`adjustor{64}' (unsigned int)
PUBLIC 34810 0 QAbstractSocketEngineReceiver::`vector deleting destructor'(unsigned int)
PUBLIC 34830 0 QTcpServer::`vector deleting destructor'(unsigned int)
PUBLIC 34860 0 QTcpServerPrivate::`vector deleting destructor'(unsigned int)
PUBLIC 34880 0 QTcpServer::acceptError(QAbstractSocket::SocketError)
PUBLIC 348b0 0 QTcpServer::close()
PUBLIC 34930 0 QList<int>::detach_helper_grow(int,int)
PUBLIC 34a00 0 QList<QNetworkProxy>::detach_helper_grow(int,int)
PUBLIC 34b10 0 QTcpServer::hasPendingConnections()
PUBLIC 34b30 0 QTcpServer::incomingConnection(int)
PUBLIC 34ba0 0 QTcpServer::isListening()
PUBLIC 34bc0 0 QTcpServer::listen(QHostAddress const &,unsigned short)
PUBLIC 34e20 0 QTcpServer::metaObject()
PUBLIC 34e40 0 QTcpServer::newConnection()
PUBLIC 34e60 0 QTcpServer::nextPendingConnection()
PUBLIC 34ea0 0 QList<QNetworkCookie>::node_copy(QList<QNetworkCookie>::Node *,QList<QNetworkCookie>::Node *,QList<QNetworkCookie>::Node *)
PUBLIC 34ee0 0 QList<QNetworkProxy>::node_destruct(QList<QNetworkProxy>::Node *,QList<QNetworkProxy>::Node *)
PUBLIC 34f10 0 QTcpServer::proxy()
PUBLIC 34f30 0 QTcpServer::qt_metacall(QMetaObject::Call,int,void * *)
PUBLIC 34f80 0 QTcpServer::qt_metacast(char const *)
PUBLIC 34fe0 0 QTcpServerPrivate::readNotification()
PUBLIC 35160 0 QTcpServerPrivate::resolveProxy(QHostAddress const &,unsigned short)
PUBLIC 35560 0 QTcpServer::serverPort()
PUBLIC 35580 0 QList<QTcpSocket *>::takeFirst()
PUBLIC 355e0 0 QTcpServer::waitForNewConnection(int,bool *)
PUBLIC 35680 0 QAbstractSocket::qt_static_metacall(QObject *,QMetaObject::Call,int,void * *)
PUBLIC 35830 0 QForeachContainer<QList<QHostAddress> >::QForeachContainer<QList<QHostAddress> >(QList<QHostAddress> const &)
PUBLIC 358b0 0 QList<QHostAddress>::QList<QHostAddress>(QList<QHostAddress> const &)
PUBLIC 35920 0 QAbstractSocket::QAbstractSocket(QAbstractSocket::SocketType,QAbstractSocketPrivate &,QObject *)
PUBLIC 35950 0 QAbstractSocketPrivate::QAbstractSocketPrivate()
PUBLIC 35aa0 0 QRingBuffer::QRingBuffer(int)
PUBLIC 35b20 0 QList<QHostAddress>::~QList<QHostAddress>()
PUBLIC 35b50 0 QAbstractSocket::~QAbstractSocket()
PUBLIC 35b80 0 QAbstractSocketPrivate::~QAbstractSocketPrivate()
PUBLIC 35cb0 0 QForeachContainer<QList<QByteArray> >::~QForeachContainer<QList<QByteArray> >()
PUBLIC 35d00 0 QList<QHostAddress>::operator=(QList<QHostAddress> const &)
PUBLIC 35d50 0 operator<<(QDebug,QAbstractSocket::SocketError)
PUBLIC 35f70 0 QList<QHostAddress>::operator+=(QList<QHostAddress> const &)
PUBLIC 35fed 0 [thunk]:QAbstractSocketPrivate::`vector deleting destructor'`adjustor{136}' (unsigned int)
PUBLIC 36000 0 QAbstractSocket::`vector deleting destructor'(unsigned int)
PUBLIC 36040 0 QAbstractSocketPrivate::`vector deleting destructor'(unsigned int)
PUBLIC 36060 0 QtMetaTypePrivate::QMetaTypeFunctionHelper<QSharedPointer<char>,1>::Create(void const *)
PUBLIC 360c0 0 QtMetaTypePrivate::QMetaTypeFunctionHelper<QSharedPointer<char>,1>::Destruct(void *)
PUBLIC 36100 0 QAbstractSocketPrivate::_q_abortConnectionAttempt()
PUBLIC 36210 0 QAbstractSocketPrivate::_q_connectToNextAddress()
PUBLIC 366d0 0 QAbstractSocketPrivate::_q_forceDisconnect()
PUBLIC 36710 0 QAbstractSocketPrivate::_q_startConnecting(QHostInfo const &)
PUBLIC 36a00 0 QAbstractSocketPrivate::_q_testConnection()
PUBLIC 36ad0 0 QAbstractSocket::abort()
PUBLIC 36b40 0 QList<QHostAddress>::append(QHostAddress const &)
PUBLIC 36bb0 0 QAbstractSocket::atEnd()
PUBLIC 36be0 0 QAbstractSocket::bind(QHostAddress const &,unsigned short,QFlags<QAbstractSocket::BindFlag>)
PUBLIC 36e20 0 QAbstractSocket::bind(unsigned short,QFlags<QAbstractSocket::BindFlag>)
PUBLIC 36e60 0 QAbstractSocket::bytesAvailable()
PUBLIC 36eb0 0 QAbstractSocket::bytesToWrite()
PUBLIC 36ec0 0 QAbstractSocketPrivate::canCloseNotification()
PUBLIC 36f60 0 QAbstractSocket::canReadLine()
PUBLIC 36f90 0 QAbstractSocketPrivate::canReadNotification()
PUBLIC 371e0 0 QAbstractSocketPrivate::canWriteNotification()
PUBLIC 37250 0 QIODevicePrivateLinearBuffer::chop(__int64)
PUBLIC 372b0 0 QIODevicePrivateLinearBuffer::clear()
PUBLIC 372f0 0 QRingBuffer::clear()
PUBLIC 373a0 0 QAbstractSocket::close()
PUBLIC 37430 0 QAbstractSocketPrivate::closeNotification()
PUBLIC 37440 0 QAbstractSocket::connectToHost(QHostAddress const &,unsigned short,QFlags<QIODevice::OpenModeFlag>)
PUBLIC 374a0 0 QAbstractSocket::connectToHost(QString const &,unsigned short,QFlags<QIODevice::OpenModeFlag>,QAbstractSocket::NetworkLayerProtocol)
PUBLIC 37850 0 QAbstractSocket::connected()
PUBLIC 37870 0 QAbstractSocketPrivate::connectionNotification()
PUBLIC 37890 0 QtPrivate::ConverterFunctor<QSharedPointer<QNetworkSession>,QObject *,QtPrivate::QSmartPointerConvertFunctor<QSharedPointer<QNetworkSession> > >::convert(QtPrivate::AbstractConverterFunction const *,void const *,void *)
PUBLIC 378a0 0 QList<QHostAddress>::dealloc(QListData::Data *)
PUBLIC 378f0 0 QList<QHostAddress>::detach_helper_grow(int,int)
PUBLIC 379a0 0 QAbstractSocket::disconnectFromHost()
PUBLIC 37c20 0 QAbstractSocket::disconnected()
PUBLIC 37c40 0 QList<QByteArray>::erase(QList<QByteArray>::iterator,QList<QByteArray>::iterator)
PUBLIC 37d60 0 QList<QByteArray>::erase(QList<QByteArray>::iterator)
PUBLIC 37e00 0 QAbstractSocket::error(QAbstractSocket::SocketError)
PUBLIC 37e30 0 QAbstractSocket::error()
PUBLIC 37e40 0 QAbstractSocketPrivate::fetchConnectionParameters()
PUBLIC 37f50 0 QAbstractSocket::flush()
PUBLIC 37f80 0 QAbstractSocketPrivate::flush()
PUBLIC 38170 0 QRingBuffer::free(int)
PUBLIC 38220 0 QAbstractSocket::hostFound()
PUBLIC 38240 0 QAbstractSocketPrivate::initSocketLayer(QAbstractSocket::NetworkLayerProtocol)
PUBLIC 38370 0 QAbstractSocket::isValid()
PUBLIC 38390 0 QAbstractSocket::localAddress()
PUBLIC 383b0 0 QAbstractSocket::localPort()
PUBLIC 383c0 0 QIODevicePrivateLinearBuffer::makeSpace(unsigned int,QIODevicePrivateLinearBuffer::FreeSpacePos)
PUBLIC 38470 0 QAbstractSocket::metaObject()
PUBLIC 38490 0 QtPrivate::QVariantValueHelper<QSharedPointer<QNetworkSession> >::metaType(QVariant const &)
PUBLIC 38570 0 QRingBuffer::nextDataBlockSize()
PUBLIC 38590 0 QList<QHostAddress>::node_copy(QList<QHostAddress>::Node *,QList<QHostAddress>::Node *,QList<QHostAddress>::Node *)
PUBLIC 385d0 0 QAbstractSocket::pauseMode()
PUBLIC 385f0 0 QAbstractSocketPrivate::pauseSocketNotifiers(QAbstractSocket *)
PUBLIC 38670 0 QAbstractSocket::peerAddress()
PUBLIC 38690 0 QAbstractSocket::peerName()
PUBLIC 386d0 0 QAbstractSocket::peerPort()
PUBLIC 386e0 0 QAbstractSocket::proxy()
PUBLIC 38700 0 QAbstractSocket::proxyAuthenticationRequired(QNetworkProxy const &,QAuthenticator *)
PUBLIC 38760 0 QAbstractSocketPrivate::proxyAuthenticationRequired(QNetworkProxy const &,QAuthenticator *)
PUBLIC 387c0 0 QAbstractSocket::qt_metacall(QMetaObject::Call,int,void * *)
PUBLIC 38810 0 QAbstractSocket::qt_metacast(char const *)
PUBLIC 38870 0 QtPrivate::SharedPointerMetaTypeIdHelper<QSharedPointer<QNetworkSession>,1>::qt_metatype_id()
PUBLIC 38960 0 QAbstractSocket::readBufferSize()
PUBLIC 38970 0 QAbstractSocket::readData(char *,__int64)
PUBLIC 38ad0 0 QAbstractSocketPrivate::readFromSocket()
PUBLIC 38c50 0 QAbstractSocket::readLineData(char *,__int64)
PUBLIC 38c70 0 QAbstractSocketPrivate::readNotification()
PUBLIC 38c80 0 QRingBuffer::readPointer()
PUBLIC 38ca0 0 QtPrivate::MetaTypeSmartPointerHelper<QSharedPointer<QNetworkSession>,void>::registerConverter(int)
PUBLIC 38d00 0 QIODevicePrivateLinearBuffer::reserve(__int64)
PUBLIC 38d30 0 QRingBuffer::reserve(int)
PUBLIC 38ea0 0 QAbstractSocketPrivate::resetSocketLayer()
PUBLIC 38f10 0 QAbstractSocketPrivate::resolveProxy(QString const &,unsigned short)
PUBLIC 391b0 0 QAbstractSocket::resume()
PUBLIC 39200 0 QAbstractSocketPrivate::resumeSocketNotifiers(QAbstractSocket *)
PUBLIC 39260 0 QAbstractSocket::setLocalAddress(QHostAddress const &)
PUBLIC 39270 0 QAbstractSocket::setLocalPort(unsigned short)
PUBLIC 39290 0 QAbstractSocket::setPeerAddress(QHostAddress const &)
PUBLIC 392a0 0 QAbstractSocket::setPeerName(QString const &)
PUBLIC 392b0 0 QAbstractSocket::setPeerPort(unsigned short)
PUBLIC 392d0 0 QAbstractSocket::setProxy(QNetworkProxy const &)
PUBLIC 392e0 0 QAbstractSocket::setReadBufferSize(__int64)
PUBLIC 39350 0 QAbstractSocket::setSocketDescriptor(int,QAbstractSocket::SocketState,QFlags<QIODevice::OpenModeFlag>)
PUBLIC 395b0 0 QAbstractSocket::setSocketError(QAbstractSocket::SocketError)
PUBLIC 395c0 0 QAbstractSocket::setSocketOption(QAbstractSocket::SocketOption,QVariant const &)
PUBLIC 396d0 0 QAbstractSocket::setSocketState(QAbstractSocket::SocketState)
PUBLIC 396e0 0 QAbstractSocket::socketDescriptor()
PUBLIC 396f0 0 QAbstractSocket::socketOption(QAbstractSocket::SocketOption)
PUBLIC 39780 0 QAbstractSocketPrivate::startConnectingByName(QString const &)
PUBLIC 398e0 0 QAbstractSocket::state()
PUBLIC 398f0 0 QAbstractSocket::stateChanged(QAbstractSocket::SocketState)
PUBLIC 39920 0 QAbstractSocket::waitForBytesWritten(int)
PUBLIC 39b00 0 QAbstractSocket::waitForConnected(int)
PUBLIC 39e90 0 QAbstractSocket::waitForDisconnected(int)
PUBLIC 3a0c0 0 QAbstractSocket::waitForReadyRead(int)
PUBLIC 3a2a0 0 QAbstractSocket::writeData(char const *,__int64)
PUBLIC 3a530 0 QAbstractSocketPrivate::writeNotification()
PUBLIC 3a540 0 QTcpSocket::QTcpSocket(QTcpSocketPrivate &,QObject *)
PUBLIC 3a570 0 QTcpSocket::QTcpSocket(QObject *)
PUBLIC 3a5d0 0 QTcpSocket::~QTcpSocket()
PUBLIC 3a5e0 0 QTcpSocket::`vector deleting destructor'(unsigned int)
PUBLIC 3a610 0 QtMetaTypePrivate::QSequentialIterableImpl::QSequentialIterableImpl<QList<QNetworkCookie> >(QList<QNetworkCookie> const *)
PUBLIC 3a680 0 QtMetaTypePrivate::QSequentialIterableImpl::atImpl<QList<QNetworkCookie> >(void const *,int)
PUBLIC 3a6a0 0 QVariant::fromValue<QList<QNetworkCookie> >(QList<QNetworkCookie> const &)
PUBLIC 3a6c0 0 QtMetaTypePrivate::QSequentialIterableImpl::getImpl<QList<QNetworkCookie> >(void * const *,int,unsigned int)
PUBLIC 3a6e0 0 qMetaTypeId<QtMetaTypePrivate::QSequentialIterableImpl>()
PUBLIC 3a6f0 0 qRegisterMetaType<QtMetaTypePrivate::QSequentialIterableImpl>(char const *,QtMetaTypePrivate::QSequentialIterableImpl *,QtPrivate::MetaTypeDefinedHelper<QtMetaTypePrivate::QSequentialIterableImpl,1>::DefinedType)
PUBLIC 3a7a0 0 QForeachContainer<QList<QByteArray> >::QForeachContainer<QList<QByteArray> >(QList<QByteArray> const &)
PUBLIC 3a820 0 QList<QPair<QByteArray,QByteArray> >::QList<QPair<QByteArray,QByteArray> >(QList<QPair<QByteArray,QByteArray> > const &)
PUBLIC 3a890 0 QList<QByteArray>::QList<QByteArray>(QList<QByteArray> const &)
PUBLIC 3a900 0 QNetworkHeadersPrivate::QNetworkHeadersPrivate(QNetworkHeadersPrivate const &)
PUBLIC 3a9d0 0 QNetworkHeadersPrivate::QNetworkHeadersPrivate()
PUBLIC 3aa00 0 QCommandLineOption::QCommandLineOption(QCommandLineOption const &)
PUBLIC 3aa20 0 QNetworkRequest::QNetworkRequest(QUrl const &)
PUBLIC 3aac0 0 QNetworkRequestPrivate::QNetworkRequestPrivate(QNetworkRequestPrivate const &)
PUBLIC 3ab40 0 QtMetaTypePrivate::QSequentialIterableImpl::QSequentialIterableImpl()
PUBLIC 3abb0 0 QList<QPair<QByteArray,QByteArray> >::~QList<QPair<QByteArray,QByteArray> >()
PUBLIC 3ac00 0 QList<QNetworkCookie>::~QList<QNetworkCookie>()
PUBLIC 3ac60 0 QPair<QByteArray,QByteArray>::~QPair<QByteArray,QByteArray>()
PUBLIC 3acc0 0 QNetworkHeadersPrivate::~QNetworkHeadersPrivate()
PUBLIC 3ad80 0 QNetworkRequest::~QNetworkRequest()
PUBLIC 3ae20 0 QList<QPair<QByteArray,QByteArray> >::operator=(QList<QPair<QByteArray,QByteArray> > const &)
PUBLIC 3aea0 0 QList<QNetworkCookie>::operator=(QList<QNetworkCookie> const &)
PUBLIC 3aee0 0 QSharedDataPointer<QNetworkRequestPrivate>::operator=(QSharedDataPointer<QNetworkRequestPrivate> const &)
PUBLIC 3af60 0 QNetworkRequest::operator=(QNetworkRequest const &)
PUBLIC 3af80 0 QList<QNetworkCookie>::operator<<(QNetworkCookie const &)
PUBLIC 3afe0 0 QList<QPair<QByteArray,QByteArray> >::operator==(QList<QPair<QByteArray,QByteArray> > const &)
PUBLIC 3b080 0 operator==(QByteArray const &,QByteArray const &)
PUBLIC 3b100 0 QList<QNetworkCookie>::operator+=(QList<QNetworkCookie> const &)
PUBLIC 3b1a0 0 QtMetaTypePrivate::QMetaTypeFunctionHelper<QList<QNetworkCookie>,1>::Construct(void *,void const *)
PUBLIC 3b1d0 0 QtMetaTypePrivate::QMetaTypeFunctionHelper<QNetworkCookie,1>::Construct(void *,void const *)
PUBLIC 3b2a0 0 QtMetaTypePrivate::QMetaTypeFunctionHelper<QNetworkRequest,1>::Construct(void *,void const *)
PUBLIC 3b310 0 QtMetaTypePrivate::QMetaTypeFunctionHelper<QtMetaTypePrivate::QSequentialIterableImpl,1>::Construct(void *,void const *)
PUBLIC 3b360 0 QtMetaTypePrivate::QMetaTypeFunctionHelper<QList<QNetworkCookie>,1>::Create(void const *)
PUBLIC 3b390 0 QtMetaTypePrivate::QMetaTypeFunctionHelper<QNetworkCookie,1>::Create(void const *)
PUBLIC 3b470 0 QtMetaTypePrivate::QMetaTypeFunctionHelper<QNetworkRequest,1>::Create(void const *)
PUBLIC 3b4f0 0 QtMetaTypePrivate::QMetaTypeFunctionHelper<QtMetaTypePrivate::QSequentialIterableImpl,1>::Create(void const *)
PUBLIC 3b540 0 QtMetaTypePrivate::QMetaTypeFunctionHelper<QList<QNetworkCookie>,1>::Delete(void *)
PUBLIC 3b560 0 QtMetaTypePrivate::QMetaTypeFunctionHelper<QNetworkCookie,1>::Delete(void *)
PUBLIC 3b580 0 QtMetaTypePrivate::QMetaTypeFunctionHelper<QNetworkRequest,1>::Delete(void *)
PUBLIC 3b5a0 0 QtMetaTypePrivate::QMetaTypeFunctionHelper<QList<QNetworkCookie>,1>::Destruct(void *)
PUBLIC 3b5b0 0 QtMetaTypePrivate::QMetaTypeFunctionHelper<QNetworkCookie,1>::Destruct(void *)
PUBLIC 3b5c0 0 QtMetaTypePrivate::QMetaTypeFunctionHelper<QNetworkRequest,1>::Destruct(void *)
PUBLIC 3b5d0 0 QList<QPair<QByteArray,QByteArray> >::append(QPair<QByteArray,QByteArray> const &)
PUBLIC 3b620 0 QList<QNetworkCookie>::append(QNetworkCookie const &)
PUBLIC 3b670 0 QtMetaTypePrivate::IteratorOwnerCommon<QList<QPair<QByteArray,QByteArray> >::const_iterator>::assign(void * *,void * const *)
PUBLIC 3b6a0 0 QNetworkRequest::attribute(QNetworkRequest::Attribute,QVariant const &)
PUBLIC 3b6c0 0 QLocale::c()
PUBLIC 3b6e0 0 QHash<QNetworkRequest::KnownHeaders,QVariant>::clear()
PUBLIC 3b720 0 QtPrivate::ConverterFunctor<QList<QNetworkCookie>,QtMetaTypePrivate::QSequentialIterableImpl,QtMetaTypePrivate::QSequentialIterableConvertFunctor<QList<QNetworkCookie> > >::convert(QtPrivate::AbstractConverterFunction const *,void const *,void *)
PUBLIC 3b770 0 QHash<QNetworkRequest::Attribute,QVariant>::deleteNode2(QHashData::Node *)
PUBLIC 3b780 0 QtMetaTypePrivate::IteratorOwnerCommon<QList<QPair<QByteArray,QByteArray> >::const_iterator>::destroy(void * *)
PUBLIC 3b790 0 QHash<QNetworkRequest::Attribute,QVariant>::detach()
PUBLIC 3b7f0 0 QHash<QNetworkRequest::Attribute,QVariant>::detach_helper()
PUBLIC 3b840 0 QList<QPair<QByteArray,QByteArray> >::detach_helper(int)
PUBLIC 3b8c0 0 QSharedDataPointer<QNetworkRequestPrivate>::detach_helper()
PUBLIC 3b940 0 QList<QPair<QByteArray,QByteArray> >::detach_helper_grow(int,int)
PUBLIC 3ba10 0 QList<QNetworkCookie>::detach_helper_grow(int,int)
PUBLIC 3bb20 0 QHash<QNetworkRequest::Attribute,QVariant>::duplicateNode(QHashData::Node *,void *)
PUBLIC 3bb50 0 QList<QPair<QByteArray,QByteArray> >::erase(QList<QPair<QByteArray,QByteArray> >::iterator)
PUBLIC 3bbd0 0 QNetworkHeadersPrivate::findRawHeader(QByteArray const &)
PUBLIC 3bc30 0 QNetworkHeadersPrivate::fromHttpDate(QByteArray const &)
PUBLIC 3be60 0 QString::fromLatin1(QByteArray const &)
PUBLIC 3bec0 0 QNetworkRequest::hasRawHeader(QByteArray const &)
PUBLIC 3bef0 0 QNetworkRequest::header(QNetworkRequest::KnownHeaders)
PUBLIC 3c380 0 QHash<QNetworkRequest::Attribute,QVariant>::insert(QNetworkRequest::Attribute const &,QVariant const &)
PUBLIC 3c490 0 QtPrivate::QVariantValueHelper<QList<QNetworkCookie> >::metaType(QVariant const &)
PUBLIC 3c510 0 QtPrivate::QVariantValueHelper<QNetworkCookie>::metaType(QVariant const &)
PUBLIC 3c770 0 QList<QPair<QByteArray,QByteArray> >::node_construct(QList<QPair<QByteArray,QByteArray> >::Node *,QPair<QByteArray,QByteArray> const &)
PUBLIC 3c7d0 0 QList<QPair<QByteArray,QByteArray> >::node_copy(QList<QPair<QByteArray,QByteArray> >::Node *,QList<QPair<QByteArray,QByteArray> >::Node *,QList<QPair<QByteArray,QByteArray> >::Node *)
PUBLIC 3c840 0 QList<QPair<QByteArray,QByteArray> >::node_destruct(QList<QPair<QByteArray,QByteArray> >::Node *,QList<QPair<QByteArray,QByteArray> >::Node *)
PUBLIC 3c8d0 0 QList<QNetworkCookie>::node_destruct(QList<QNetworkCookie>::Node *,QList<QNetworkCookie>::Node *)
PUBLIC 3c900 0 QNetworkHeadersPrivate::parseAndSetHeader(QByteArray const &,QByteArray const &)
PUBLIC 3d140 0 QSslCertificate::handle()
PUBLIC 3d150 0 QMetaTypeId<QList<QNetworkCookie> >::qt_metatype_id()
PUBLIC 3d270 0 QMetaTypeId<QNetworkCookie>::qt_metatype_id()
PUBLIC 3d300 0 QMetaTypeId<QNetworkRequest>::qt_metatype_id()
PUBLIC 3d390 0 QMetaTypeId<QtMetaTypePrivate::QSequentialIterableImpl>::qt_metatype_id()
PUBLIC 3d420 0 QNetworkRequest::rawHeader(QByteArray const &)
PUBLIC 3d480 0 QNetworkRequest::rawHeaderList()
PUBLIC 3d4a0 0 QNetworkHeadersPrivate::rawHeadersKeys()
PUBLIC 3d540 0 QtPrivate::ValueTypeIsMetaType<QList<QNetworkCookie>,1>::registerConverter(int)
PUBLIC 3d5a0 0 QHash<QNetworkRequest::Attribute,QVariant>::remove(QNetworkRequest::Attribute const &)
PUBLIC 3d670 0 QNetworkHeadersPrivate::setAllRawHeaders(QList<QPair<QByteArray,QByteArray> > const &)
PUBLIC 3d6f0 0 QNetworkRequest::setAttribute(QNetworkRequest::Attribute,QVariant const &)
PUBLIC 3d750 0 QNetworkHeadersPrivate::setCookedHeader(QNetworkRequest::KnownHeaders,QVariant const &)
PUBLIC 3d8f0 0 QNetworkRequest::setHeader(QNetworkRequest::KnownHeaders,QVariant const &)
PUBLIC 3d920 0 QNetworkHeadersPrivate::setRawHeader(QByteArray const &,QByteArray const &)
PUBLIC 3d950 0 QNetworkRequest::setRawHeader(QByteArray const &,QByteArray const &)
PUBLIC 3d9a0 0 QNetworkHeadersPrivate::setRawHeaderInternal(QByteArray const &,QByteArray const &)
PUBLIC 3db50 0 QNetworkRequest::sslConfiguration()
PUBLIC 3dba0 0 QNetworkHeadersPrivate::toHttpDate(QDateTime const &)
PUBLIC 3dc60 0 QNetworkRequest::url()
PUBLIC 3dc80 0 QHash<QNetworkRequest::Attribute,QVariant>::value(QNetworkRequest::Attribute const &,QVariant const &)
PUBLIC 3dd00 0 QNetworkAccessManager::qt_static_metacall(QObject *,QMetaObject::Call,int,void * *)
PUBLIC 3df40 0 QtMetaTypePrivate::QSequentialIterableImpl::QSequentialIterableImpl<QList<QPair<QByteArray,QByteArray> > >(QList<QPair<QByteArray,QByteArray> > const *)
PUBLIC 3dfb0 0 QtMetaTypePrivate::QSequentialIterableImpl::atImpl<QList<QPair<QByteArray,QByteArray> > >(void const *,int)
PUBLIC 3dfd0 0 QSharedPointer<QNetworkAccessAuthenticationManager>::create<>()
PUBLIC 3e030 0 QtMetaTypePrivate::QSequentialIterableImpl::getImpl<QList<QPair<QByteArray,QByteArray> > >(void * const *,int,unsigned int)
PUBLIC 3e050 0 QtMetaTypePrivate::QPairVariantInterfaceImpl::getSecondImpl<QPair<QByteArray,QByteArray> >(void const * const *,int,unsigned int)
PUBLIC 3e070 0 QtMetaTypePrivate::QSequentialIterableImpl::moveToBeginImpl<QList<QPair<QByteArray,QByteArray> > >(void const *,void * *)
PUBLIC 3e0b0 0 QtMetaTypePrivate::QSequentialIterableImpl::moveToEndImpl<QList<QPair<QByteArray,QByteArray> > >(void const *,void * *)
PUBLIC 3e0f0 0 qRegisterMetaType<QtMetaTypePrivate::QPairVariantInterfaceImpl>(char const *,QtMetaTypePrivate::QPairVariantInterfaceImpl *,QtPrivate::MetaTypeDefinedHelper<QtMetaTypePrivate::QPairVariantInterfaceImpl,1>::DefinedType)
PUBLIC 3e1a0 0 QtMetaTypePrivate::QSequentialIterableImpl::sizeImpl<QList<QPair<QByteArray,QByteArray> > >(void const *)
PUBLIC 3e1b0 0 QList<QSslError>::QList<QSslError>(QList<QSslError> const &)
PUBLIC 3e220 0 QSharedPointer<char>::QSharedPointer<char>(QSharedPointer<char> const &)
PUBLIC 3e260 0 QNetworkAccessManager::QNetworkAccessManager(QObject *)
PUBLIC 3e330 0 QNetworkAccessManagerPrivate::QNetworkAccessManagerPrivate()
PUBLIC 3e400 0 QList<QSslError>::~QList<QSslError>()
PUBLIC 3e460 0 QNetworkAccessManager::~QNetworkAccessManager()
PUBLIC 3e540 0 QNetworkAccessManagerPrivate::~QNetworkAccessManagerPrivate()
PUBLIC 3e660 0 QCommandLineParserPrivate::PositionalArgumentDefinition::~PositionalArgumentDefinition()
PUBLIC 3e6f0 0 QNetworkAccessManager::`vector deleting destructor'(unsigned int)
PUBLIC 3e710 0 QNetworkAccessManagerPrivate::`vector deleting destructor'(unsigned int)
PUBLIC 3e730 0 QtMetaTypePrivate::QMetaTypeFunctionHelper<QPair<QByteArray,QByteArray>,1>::Construct(void *,void const *)
PUBLIC 3e7a0 0 QtMetaTypePrivate::QMetaTypeFunctionHelper<QList<QPair<QByteArray,QByteArray> >,1>::Construct(void *,void const *)
PUBLIC 3e7d0 0 QtMetaTypePrivate::QMetaTypeFunctionHelper<QList<QSslError>,1>::Construct(void *,void const *)
PUBLIC 3e800 0 QtMetaTypePrivate::QMetaTypeFunctionHelper<QSharedPointer<char>,1>::Construct(void *,void const *)
PUBLIC 3e860 0 QtMetaTypePrivate::QMetaTypeFunctionHelper<QHttpNetworkRequest,1>::Construct(void *,void const *)
PUBLIC 3e8d0 0 QtMetaTypePrivate::QMetaTypeFunctionHelper<QNetworkProxy,1>::Construct(void *,void const *)
PUBLIC 3e900 0 QtMetaTypePrivate::QMetaTypeFunctionHelper<QtMetaTypePrivate::QPairVariantInterfaceImpl,1>::Construct(void *,void const *)
PUBLIC 3e950 0 QtMetaTypePrivate::QMetaTypeFunctionHelper<QSslConfiguration,1>::Construct(void *,void const *)
PUBLIC 3e980 0 QtMetaTypePrivate::QMetaTypeFunctionHelper<QPair<QByteArray,QByteArray>,1>::Create(void const *)
PUBLIC 3e9f0 0 QtMetaTypePrivate::QMetaTypeFunctionHelper<QList<QPair<QByteArray,QByteArray> >,1>::Create(void const *)
PUBLIC 3ea20 0 QtMetaTypePrivate::QMetaTypeFunctionHelper<QList<QSslError>,1>::Create(void const *)
PUBLIC 3ea50 0 QtMetaTypePrivate::QMetaTypeFunctionHelper<QHttpNetworkRequest,1>::Create(void const *)
PUBLIC 3eac0 0 QtMetaTypePrivate::QMetaTypeFunctionHelper<QNetworkProxy,1>::Create(void const *)
PUBLIC 3eaf0 0 QtMetaTypePrivate::QMetaTypeFunctionHelper<QtMetaTypePrivate::QPairVariantInterfaceImpl,1>::Create(void const *)
PUBLIC 3eb40 0 QtMetaTypePrivate::QMetaTypeFunctionHelper<QSslConfiguration,1>::Create(void const *)
PUBLIC 3eb70 0 QtMetaTypePrivate::QMetaTypeFunctionHelper<QPair<QByteArray,QByteArray>,1>::Delete(void *)
PUBLIC 3eb90 0 QtMetaTypePrivate::QMetaTypeFunctionHelper<QList<QPair<QByteArray,QByteArray> >,1>::Delete(void *)
PUBLIC 3ebf0 0 QtMetaTypePrivate::QMetaTypeFunctionHelper<QList<QSslError>,1>::Delete(void *)
PUBLIC 3ec10 0 QtMetaTypePrivate::QMetaTypeFunctionHelper<QSharedPointer<char>,1>::Delete(void *)
PUBLIC 3ec60 0 QtMetaTypePrivate::QMetaTypeFunctionHelper<QHttpNetworkRequest,1>::Delete(void *)
PUBLIC 3ec70 0 QtMetaTypePrivate::QMetaTypeFunctionHelper<QNetworkProxy,1>::Delete(void *)
PUBLIC 3ec90 0 QtMetaTypePrivate::QMetaTypeFunctionHelper<QSslConfiguration,1>::Delete(void *)
PUBLIC 3ecb0 0 QtMetaTypePrivate::QMetaTypeFunctionHelper<QPair<QByteArray,QByteArray>,1>::Destruct(void *)
PUBLIC 3ecc0 0 QtMetaTypePrivate::QMetaTypeFunctionHelper<QList<QPair<QByteArray,QByteArray> >,1>::Destruct(void *)
PUBLIC 3ed10 0 QtMetaTypePrivate::QMetaTypeFunctionHelper<QList<QSslError>,1>::Destruct(void *)
PUBLIC 3ed20 0 QtMetaTypePrivate::QMetaTypeFunctionHelper<QHttpNetworkRequest,1>::Destruct(void *)
PUBLIC 3ed30 0 QtMetaTypePrivate::QMetaTypeFunctionHelper<QNetworkProxy,1>::Destruct(void *)
PUBLIC 3ed40 0 QtMetaTypePrivate::QMetaTypeFunctionHelper<QSslConfiguration,1>::Destruct(void *)
PUBLIC 3ed50 0 QNetworkAccessManagerPrivate::_q_networkSessionClosed()
PUBLIC 3eeb0 0 QNetworkAccessManagerPrivate::_q_networkSessionStateChanged(QNetworkSession::State)
PUBLIC 3ef50 0 QNetworkAccessManagerPrivate::_q_onlineStateChanged(bool)
PUBLIC 3efb0 0 QNetworkAccessManagerPrivate::_q_replyEncrypted()
PUBLIC 3f000 0 QNetworkAccessManagerPrivate::_q_replyFinished()
PUBLIC 3f070 0 QNetworkAccessManagerPrivate::_q_replySslErrors(QList<QSslError> const &)
PUBLIC 3f0e0 0 QtMetaTypePrivate::IteratorOwnerCommon<QList<QPair<QByteArray,QByteArray> >::const_iterator>::advance(void * *,int)
PUBLIC 3f0f0 0 QNetworkAccessManager::authenticationRequired(QNetworkReply *,QAuthenticator *)
PUBLIC 3f150 0 QNetworkAccessManagerPrivate::authenticationRequired(QAuthenticator *,QNetworkReply *,bool,QUrl &,QUrl *,bool)
PUBLIC 3f430 0 QWeakPointer<QNetworkSession>::clear()
PUBLIC 3f460 0 QObject::connect(QObject const *,char const *,char const *,Qt::ConnectionType)
PUBLIC 3f490 0 QList<QByteArray>::contains(QByteArray const &)
PUBLIC 3f530 0 QtPrivate::ConverterFunctor<QPair<QByteArray,QByteArray>,QtMetaTypePrivate::QPairVariantInterfaceImpl,QtMetaTypePrivate::QPairVariantInterfaceConvertFunctor<QPair<QByteArray,QByteArray> > >::convert(QtPrivate::AbstractConverterFunction const *,void const *,void *)
PUBLIC 3f590 0 QtPrivate::ConverterFunctor<QList<QPair<QByteArray,QByteArray> >,QtMetaTypePrivate::QSequentialIterableImpl,QtMetaTypePrivate::QSequentialIterableConvertFunctor<QList<QPair<QByteArray,QByteArray> > > >::convert(QtPrivate::AbstractConverterFunction const *,void const *,void *)
PUBLIC 3f5e0 0 QNetworkAccessManager::cookieJar()
PUBLIC 3f630 0 QNetworkAccessManager::createRequest(QNetworkAccessManager::Operation,QNetworkRequest const &,QIODevice *)
PUBLIC 3fcc0 0 QNetworkAccessManagerPrivate::createSession(QNetworkConfiguration const &)
PUBLIC 3ffd0 0 QtSharedPointer::ExternalRefCountWithContiguousData<QNetworkAccessAuthenticationManager>::deleter(QtSharedPointer::ExternalRefCountData *)
PUBLIC 3fff0 0 QNetworkAccessManager::encrypted(QNetworkReply *)
PUBLIC 40020 0 QtMetaTypePrivate::IteratorOwnerCommon<QList<QPair<QByteArray,QByteArray> >::const_iterator>::equal(void * const *,void * const *)
PUBLIC 40040 0 QNetworkAccessManager::finished(QNetworkReply *)
PUBLIC 40070 0 QNetworkAccessManager::get(QNetworkRequest const &)
PUBLIC 40090 0 QNetworkAccessManagerPrivate::getNetworkSession()
PUBLIC 400f0 0 `anonymous namespace'::Q_QGS_fileBackend::innerFunction()
PUBLIC 40190 0 `anonymous namespace'::Q_QGS_ftpBackend::innerFunction()
PUBLIC 40230 0 QSharedPointer<QNetworkSession>::internalSet(QtSharedPointer::ExternalRefCountData *,QNetworkSession *)
PUBLIC 402d0 0 QNetworkAccessManager::metaObject()
PUBLIC 402f0 0 QNetworkAccessManager::networkAccessible()
PUBLIC 403c0 0 QNetworkAccessManager::networkAccessibleChanged(QNetworkAccessManager::NetworkAccessibility)
PUBLIC 403f0 0 QNetworkAccessManager::networkSessionConnected()
PUBLIC 40410 0 QList<QSslError>::node_copy(QList<QSslError>::Node *,QList<QSslError>::Node *,QList<QSslError>::Node *)
PUBLIC 40450 0 QNetworkAccessManager::post(QNetworkRequest const &,QByteArray const &)
PUBLIC 404c0 0 QNetworkAccessManagerPrivate::postProcess(QNetworkReply *)
PUBLIC 40560 0 QNetworkAccessManager::proxyAuthenticationRequired(QNetworkProxy const &,QAuthenticator *)
PUBLIC 405c0 0 QNetworkAccessManagerPrivate::proxyAuthenticationRequired(QUrl const &,QNetworkProxy const &,bool,QAuthenticator *,QNetworkProxy *)
PUBLIC 406e0 0 QNetworkAccessManager::qt_metacall(QMetaObject::Call,int,void * *)
PUBLIC 407c0 0 QNetworkAccessManager::qt_metacast(char const *)
PUBLIC 40820 0 QMetaTypeId<QPair<QByteArray,QByteArray> >::qt_metatype_id()
PUBLIC 40970 0 QMetaTypeId<QList<QPair<QByteArray,QByteArray> > >::qt_metatype_id()
PUBLIC 40a90 0 QMetaTypeId<QList<QSslError> >::qt_metatype_id()
PUBLIC 40b20 0 QMetaTypeId<QSharedPointer<char> >::qt_metatype_id()
PUBLIC 40bb0 0 QMetaTypeId<QHttpNetworkRequest>::qt_metatype_id()
PUBLIC 40c40 0 QMetaTypeId<QNetworkProxy>::qt_metatype_id()
PUBLIC 40cd0 0 QMetaTypeId<QtMetaTypePrivate::QPairVariantInterfaceImpl>::qt_metatype_id()
PUBLIC 40d60 0 QMetaTypeId<QSslConfiguration>::qt_metatype_id()
PUBLIC 40df0 0 QNetworkAccessManagerPrivate::queryProxy(QNetworkProxyQuery const &)
PUBLIC 40fa0 0 QtPrivate::IsMetaTypePair<QPair<QByteArray,QByteArray>,1>::registerConverter(int)
PUBLIC 41000 0 QtPrivate::ValueTypeIsMetaType<QList<QPair<QByteArray,QByteArray> >,1>::registerConverter(int)
PUBLIC 41060 0 QNetworkAccessManager::sendCustomRequest(QNetworkRequest const &,QByteArray const &,QIODevice *)
PUBLIC 410d0 0 QNetworkAccessManager::setNetworkAccessible(QNetworkAccessManager::NetworkAccessibility)
PUBLIC 41130 0 QNetworkAccessManager::sslErrors(QNetworkReply *,QList<QSslError> const &)
PUBLIC 41190 0 QNetworkAccessManager::supportedSchemesImplementation()
PUBLIC 411f0 0 QNetworkReply::QNetworkReply(QNetworkReplyPrivate &,QObject *)
PUBLIC 41210 0 QNetworkReply::QNetworkReply(QObject *)
PUBLIC 41250 0 QNetworkReplyPrivate::QNetworkReplyPrivate()
PUBLIC 41390 0 QNetworkReply::~QNetworkReply()
PUBLIC 413a0 0 QNetworkReply::`vector deleting destructor'(unsigned int)
PUBLIC 413d0 0 QNetworkReplyPrivate::`vector deleting destructor'(unsigned int)
PUBLIC 41440 0 QNetworkReply::attribute(QNetworkRequest::Attribute)
PUBLIC 41460 0 QNetworkReply::error()
PUBLIC 41470 0 QNetworkReply::hasRawHeader(QByteArray const &)
PUBLIC 414a0 0 QNetworkReply::isRunning()
PUBLIC 414b0 0 QResourceFileEngine::caseSensitive()
PUBLIC 414c0 0 QNetworkReply::rawHeader(QByteArray const &)
PUBLIC 41520 0 QNetworkReply::rawHeaderList()
PUBLIC 41540 0 QNetworkReply::readBufferSize()
PUBLIC 41550 0 QNetworkReply::setAttribute(QNetworkRequest::Attribute,QVariant const &)
PUBLIC 41590 0 QNetworkReply::setError(QNetworkReply::NetworkError,QString const &)
PUBLIC 415b0 0 QNetworkReply::setFinished(bool)
PUBLIC 415c0 0 QNetworkReply::setHeader(QNetworkRequest::KnownHeaders,QVariant const &)
PUBLIC 415d0 0 QNetworkReply::setOperation(QNetworkAccessManager::Operation)
PUBLIC 415e0 0 QNetworkReply::setRawHeader(QByteArray const &,QByteArray const &)
PUBLIC 415f0 0 QNetworkReply::setReadBufferSize(__int64)
PUBLIC 41610 0 QNetworkReply::setRequest(QNetworkRequest const &)
PUBLIC 41620 0 QNetworkReply::setSslConfiguration(QSslConfiguration const &)
PUBLIC 41630 0 QNetworkReply::setUrl(QUrl const &)
PUBLIC 41640 0 QNetworkReply::url()
PUBLIC 41660 0 QHash<QNetworkRequest::Attribute,QVariant>::value(QNetworkRequest::Attribute const &)
PUBLIC 416e0 0 QAbstractFileEngine::read(char *,__int64)
PUBLIC 416f0 0 QNetworkReply::qt_static_metacall(QObject *,QMetaObject::Call,int,void * *)
PUBLIC 41890 0 QNetworkReply::downloadProgress(__int64,__int64)
PUBLIC 418e0 0 QNetworkReply::encrypted()
PUBLIC 41900 0 QNetworkReply::error(QNetworkReply::NetworkError)
PUBLIC 41930 0 QNetworkReply::finished()
PUBLIC 41950 0 QNetworkReply::metaDataChanged()
PUBLIC 41970 0 QNetworkReply::metaObject()
PUBLIC 41990 0 QNetworkReply::qt_metacall(QMetaObject::Call,int,void * *)
PUBLIC 419e0 0 QNetworkReply::qt_metacast(char const *)
PUBLIC 41a40 0 QNetworkReply::sslErrors(QList<QSslError> const &)
PUBLIC 41a70 0 QNetworkReply::uploadProgress(__int64,__int64)
PUBLIC 41ac0 0 QBearerEnginePlugin::metaObject()
PUBLIC 41ae0 0 QBearerEnginePlugin::qt_metacast(char const *)
PUBLIC 41b40 0 QBearerEnginePlugin::QBearerEnginePlugin(QObject *)
PUBLIC 41b60 0 QBearerEnginePlugin::~QBearerEnginePlugin()
PUBLIC 41b70 0 QBearerEnginePlugin::`vector deleting destructor'(unsigned int)
PUBLIC 41ba0 0 QMutableMapIterator<unsigned int,QExplicitlySharedDataPointer<QNetworkConfigurationPrivate> >::QMutableMapIterator<unsigned int,QExplicitlySharedDataPointer<QNetworkConfigurationPrivate> >(QMap<unsigned int,QExplicitlySharedDataPointer<QNetworkConfigurationPrivate> > &)
PUBLIC 41c10 0 QExplicitlySharedDataPointer<QNetworkConfigurationPrivate>::QExplicitlySharedDataPointer<QNetworkConfigurationPrivate>(QExplicitlySharedDataPointer<QNetworkConfigurationPrivate> const &)
PUBLIC 41c30 0 QNetworkConfiguration::operator=(QNetworkConfiguration const &)
PUBLIC 41c70 0 QNetworkConfiguration::operator==(QNetworkConfiguration const &)
PUBLIC 41c80 0 QList<QNetworkConfiguration>::append(QNetworkConfiguration const &)
PUBLIC 41cf0 0 QNetworkConfiguration::bearerType()
PUBLIC 41d60 0 QNetworkConfiguration::children()
PUBLIC 41fa0 0 QMapNode<unsigned int,QExplicitlySharedDataPointer<QNetworkConfigurationPrivate> >::copy(QMapData<unsigned int,QExplicitlySharedDataPointer<QNetworkConfigurationPrivate> > *)
PUBLIC 42050 0 QMap<unsigned int,QExplicitlySharedDataPointer<QNetworkConfigurationPrivate> >::detach_helper()
PUBLIC 420d0 0 QList<QNetworkConfiguration>::detach_helper_grow(int,int)
PUBLIC 421a0 0 QMap<unsigned int,QExplicitlySharedDataPointer<QNetworkConfigurationPrivate> >::erase(QMap<unsigned int,QExplicitlySharedDataPointer<QNetworkConfigurationPrivate> >::iterator)
PUBLIC 42270 0 QMap<unsigned int,QExplicitlySharedDataPointer<QNetworkConfigurationPrivate> >::find(unsigned int const &)
PUBLIC 422d0 0 QNetworkConfiguration::identifier()
PUBLIC 42340 0 QNetworkConfiguration::isValid()
PUBLIC 42380 0 QNetworkConfiguration::purpose()
PUBLIC 423c0 0 QNetworkConfiguration::state()
PUBLIC 42410 0 QNetworkConfiguration::type()
PUBLIC 42450 0 QForeachContainer<QList<QSharedDataPointer<QNetworkInterfacePrivate> > >::QForeachContainer<QList<QSharedDataPointer<QNetworkInterfacePrivate> > >(QList<QSharedDataPointer<QNetworkInterfacePrivate> > const &)
PUBLIC 424d0 0 QList<QBearerEngine *>::QList<QBearerEngine *>(QList<QBearerEngine *> const &)
PUBLIC 42550 0 QList<QNetworkAddressEntry>::QList<QNetworkAddressEntry>(QList<QNetworkAddressEntry> const &)
PUBLIC 425c0 0 QNetworkAddressEntry::QNetworkAddressEntry(QNetworkAddressEntry const &)
PUBLIC 42620 0 QNetworkAddressEntry::QNetworkAddressEntry()
PUBLIC 42670 0 QNetworkAddressEntry::~QNetworkAddressEntry()
PUBLIC 426a0 0 QNetworkInterface::~QNetworkInterface()
PUBLIC 426d0 0 QNetworkInterfacePrivate::~QNetworkInterfacePrivate()
PUBLIC 427a0 0 QNetworkInterface::addressEntries()
PUBLIC 42890 0 QNetworkInterface::allInterfaces()
PUBLIC 42aa0 0 QNetworkInterfaceManager::allInterfaces()
PUBLIC 42c10 0 QList<int>::detach_helper(int)
PUBLIC 42c90 0 QList<QNetworkAddressEntry>::detach_helper(int)
PUBLIC 42d30 0 QList<QSharedDataPointer<QNetworkInterfacePrivate> >::detach_helper_grow(int,int)
PUBLIC 42e40 0 QList<QNetworkInterface>::detach_helper_grow(int,int)
PUBLIC 42f50 0 QNetworkInterface::flags()
PUBLIC 42f90 0 QNetworkInterface::humanReadableName()
PUBLIC 430f0 0 QNetworkInterface::index()
PUBLIC 43100 0 `anonymous namespace'::Q_QGS_manager::innerFunction()
PUBLIC 43190 0 QNetworkInterface::interfaceFromIndex(int)
PUBLIC 43200 0 QNetworkInterfaceManager::interfaceFromIndex(int)
PUBLIC 43340 0 QNetworkInterface::interfaceFromName(QString const &)
PUBLIC 433b0 0 QNetworkInterfaceManager::interfaceFromName(QString const &)
PUBLIC 43510 0 QNetworkAddressEntry::ip()
PUBLIC 43530 0 QNetworkInterface::isValid()
PUBLIC 43580 0 QNetworkInterfacePrivate::makeHwAddress(int,unsigned char *)
PUBLIC 43650 0 QNetworkInterface::name()
PUBLIC 43720 0 QList<QSharedDataPointer<QNetworkInterfacePrivate> >::node_copy(QList<QSharedDataPointer<QNetworkInterfacePrivate> >::Node *,QList<QSharedDataPointer<QNetworkInterfacePrivate> >::Node *,QList<QSharedDataPointer<QNetworkInterfacePrivate> >::Node *)
PUBLIC 43760 0 QList<QNetworkAddressEntry>::node_copy(QList<QNetworkAddressEntry>::Node *,QList<QNetworkAddressEntry>::Node *,QList<QNetworkAddressEntry>::Node *)
PUBLIC 437a0 0 QList<QSharedDataPointer<QNetworkInterfacePrivate> >::node_destruct(QList<QSharedDataPointer<QNetworkInterfacePrivate> >::Node *,QList<QSharedDataPointer<QNetworkInterfacePrivate> >::Node *)
PUBLIC 43a40 0 QNetworkAddressEntry::prefixLength()
PUBLIC 43a50 0 QNetworkAddressEntry::setIp(QHostAddress const &)
PUBLIC 43a60 0 QNetworkAddressEntry::setNetmask(QHostAddress const &)
PUBLIC 43af0 0 QNetworkAddressEntry::setPrefixLength(int)
PUBLIC 43b10 0 QBearerEngine::qt_static_metacall(QObject *,QMetaObject::Call,int,void * *)
PUBLIC 43c70 0 QBearerEngine::QBearerEngine(QObject *)
PUBLIC 43cb0 0 QBearerEngine::~QBearerEngine()
PUBLIC 43ff0 0 QBearerEngine::`vector deleting destructor'(unsigned int)
PUBLIC 44010 0 QHash<QString,QExplicitlySharedDataPointer<QNetworkConfigurationPrivate> >::begin()
PUBLIC 440a0 0 QBearerEngine::configurationAdded(QExplicitlySharedDataPointer<QNetworkConfigurationPrivate>)
PUBLIC 440f0 0 QBearerEngine::configurationChanged(QExplicitlySharedDataPointer<QNetworkConfigurationPrivate>)
PUBLIC 44140 0 QBearerEngine::configurationRemoved(QExplicitlySharedDataPointer<QNetworkConfigurationPrivate>)
PUBLIC 44190 0 QBearerEngine::configurationsInUse()
PUBLIC 442a0 0 QHash<QString,QExplicitlySharedDataPointer<QNetworkConfigurationPrivate> >::end()
PUBLIC 44300 0 QBearerEngine::metaObject()
PUBLIC 44320 0 QBearerEngine::qt_metacall(QMetaObject::Call,int,void * *)
PUBLIC 44370 0 QBearerEngine::qt_metacast(char const *)
PUBLIC 443d0 0 QBearerEngine::updateCompleted()
PUBLIC 443f0 0 QNetworkSessionPrivate::qt_static_metacall(QObject *,QMetaObject::Call,int,void * *)
PUBLIC 445f0 0 QtMetaTypePrivate::QMetaTypeFunctionHelper<QFlags<QNetworkSession::UsagePolicy>,1>::Construct(void *,void const *)
PUBLIC 44620 0 QNetworkSessionPrivate::closed()
PUBLIC 44640 0 QNetworkSessionPrivate::error(QNetworkSession::SessionError)
PUBLIC 44670 0 QNetworkSessionPrivate::metaObject()
PUBLIC 44690 0 QNetworkSessionPrivate::newConfigurationActivated()
PUBLIC 446b0 0 QNetworkSessionPrivate::preferredConfigurationChanged(QNetworkConfiguration const &,bool)
PUBLIC 44700 0 QNetworkSessionPrivate::qt_metacall(QMetaObject::Call,int,void * *)
PUBLIC 44750 0 QNetworkSessionPrivate::qt_metacast(char const *)
PUBLIC 447b0 0 QMetaTypeId<QFlags<QNetworkSession::UsagePolicy> >::qt_metatype_id()
PUBLIC 44840 0 QMetaTypeId<QNetworkSession::SessionError>::qt_metatype_id()
PUBLIC 448d0 0 QMetaTypeId<QNetworkSession::State>::qt_metatype_id()
PUBLIC 44960 0 QNetworkSessionPrivate::quitPendingWaitsForOpened()
PUBLIC 44980 0 QNetworkSessionPrivate::stateChanged(QNetworkSession::State)
PUBLIC 449b0 0 QNetworkSessionPrivate::usagePoliciesChanged(QFlags<QNetworkSession::UsagePolicy>)
PUBLIC 449e0 0 QNetworkConfigurationManagerPrivate::QNetworkConfigurationManagerPrivate()
PUBLIC 44a40 0 QMultiMap<int,QString>::~QMultiMap<int,QString>()
PUBLIC 44a90 0 QHash<QRegExpEngineKey,QCache<QRegExpEngineKey,QRegExpEngine>::Node>::~QHash<QRegExpEngineKey,QCache<QRegExpEngineKey,QRegExpEngine>::Node>()
PUBLIC 44ac0 0 QNetworkConfigurationManagerPrivate::~QNetworkConfigurationManagerPrivate()
PUBLIC 44bf0 0 QHash<QString,QExplicitlySharedDataPointer<QNetworkConfigurationPrivate> >::operator[](QString const &)
PUBLIC 44cb0 0 QNetworkConfigurationManagerPrivate::`vector deleting destructor'(unsigned int)
PUBLIC 44cd0 0 QNetworkConfigurationManagerPrivate::capabilities()
PUBLIC 44db0 0 QNetworkConfigurationManagerPrivate::cleanup()
PUBLIC 44de0 0 QNetworkConfigurationManagerPrivate::configurationAdded(QExplicitlySharedDataPointer<QNetworkConfigurationPrivate>)
PUBLIC 44f00 0 QNetworkConfigurationManagerPrivate::configurationChanged(QExplicitlySharedDataPointer<QNetworkConfigurationPrivate>)
PUBLIC 45040 0 QNetworkConfigurationManagerPrivate::configurationFromIdentifier(QString const &)
PUBLIC 45240 0 QNetworkConfigurationManagerPrivate::configurationRemoved(QExplicitlySharedDataPointer<QNetworkConfigurationPrivate>)
PUBLIC 45350 0 QNetworkConfigurationManagerPrivate::defaultConfiguration()
PUBLIC 45b70 0 QMapNode<int,QString>::destroySubTree()
PUBLIC 45bc0 0 QHash<QString,QHashDummyValue>::detach()
PUBLIC 45c20 0 QNetworkConfigurationManagerPrivate::disablePolling()
PUBLIC 45c50 0 QHash<QByteArray,QHashDummyValue>::duplicateNode(QHashData::Node *,void *)
PUBLIC 45c90 0 QNetworkConfigurationManagerPrivate::enablePolling()
PUBLIC 45d10 0 QNetworkConfigurationManagerPrivate::engines()
PUBLIC 45d60 0 QNetworkConfigurationManagerPrivate::initialize()
PUBLIC 45e00 0 `anonymous namespace'::Q_QGS_loader::innerFunction()
PUBLIC 45f00 0 QHash<QString,QHashDummyValue>::insert(QString const &,QHashDummyValue const &)
PUBLIC 45fc0 0 QMetaObject::invokeMethod(QObject *,char const *,QGenericArgument,QGenericArgument,QGenericArgument,QGenericArgument,QGenericArgument,QGenericArgument,QGenericArgument,QGenericArgument,QGenericArgument,QGenericArgument)
PUBLIC 46030 0 QNetworkConfigurationManagerPrivate::performAsyncConfigurationUpdate()
PUBLIC 46170 0 QNetworkConfigurationManagerPrivate::pollEngines()
PUBLIC 462b0 0 QHash<QString,QHashDummyValue>::remove(QString const &)
PUBLIC 463c0 0 QNetworkConfigurationManagerPrivate::startPolling()
PUBLIC 46520 0 QNetworkConfigurationManagerPrivate::updateConfigurations()
PUBLIC 46990 0 QNetworkConfigurationManager::qt_static_metacall(QObject *,QMetaObject::Call,int,void * *)
PUBLIC 46ae0 0 QNetworkConfigurationManager::QNetworkConfigurationManager(QObject *)
PUBLIC 46bc0 0 QNetworkConfigurationManager::~QNetworkConfigurationManager()
PUBLIC 46bf0 0 QNetworkConfigurationManager::`vector deleting destructor'(unsigned int)
PUBLIC 46c30 0 QNetworkConfigurationManagerPrivate::addPreAndPostRoutine()
PUBLIC 46c50 0 QNetworkConfigurationManager::capabilities()
PUBLIC 46c80 0 QNetworkConfigurationManager::configurationAdded(QNetworkConfiguration const &)
PUBLIC 46cb0 0 QNetworkConfigurationManager::configurationChanged(QNetworkConfiguration const &)
PUBLIC 46ce0 0 QNetworkConfigurationManager::configurationFromIdentifier(QString const &)
PUBLIC 46d20 0 QNetworkConfigurationManager::configurationRemoved(QNetworkConfiguration const &)
PUBLIC 46d80 0 QNetworkConfigurationManager::defaultConfiguration()
PUBLIC 46db0 0 QNetworkConfigurationManager::metaObject()
PUBLIC 46dd0 0 QNetworkConfigurationManager::onlineStateChanged(bool)
PUBLIC 46e00 0 qNetworkConfigurationManagerPrivate()
PUBLIC 46f10 0 QNetworkConfigurationManager::qt_metacall(QMetaObject::Call,int,void * *)
PUBLIC 46f60 0 QNetworkConfigurationManager::qt_metacast(char const *)
PUBLIC 46fc0 0 QNetworkConfigurationManager::updateCompleted()
PUBLIC 46fe0 0 QAbstractSocketEngine::QAbstractSocketEngine(QAbstractSocketEnginePrivate &,QObject *)
PUBLIC 47000 0 QAbstractSocketEnginePrivate::QAbstractSocketEnginePrivate()
PUBLIC 47070 0 QSocketEngineHandler::QSocketEngineHandler()
PUBLIC 47100 0 QSocketEngineHandler::~QSocketEngineHandler()
PUBLIC 47190 0 QAbstractSocketEnginePrivate::`vector deleting destructor'(unsigned int)
PUBLIC 471f0 0 QHttpSocketEngineHandler::`vector deleting destructor'(unsigned int)
PUBLIC 47210 0 QAbstractSocketEngine::closeNotification()
PUBLIC 47220 0 QAbstractSocketEngine::connectionNotification()
PUBLIC 47230 0 QAbstractSocketEngine::createSocketEngine(int,QObject *)
PUBLIC 472f0 0 QAbstractSocketEngine::createSocketEngine(QAbstractSocket::SocketType,QNetworkProxy const &,QObject *)
PUBLIC 473d0 0 QAbstractSocketEngine::errorString()
PUBLIC 47400 0 QAbstractSocketEngine::exceptionNotification()
PUBLIC 47410 0 `anonymous namespace'::Q_QGS_socketHandlers::innerFunction()
PUBLIC 474b0 0 QAbstractSocketEngine::localAddress()
PUBLIC 474d0 0 QAbstractSocketEngine::localPort()
PUBLIC 474e0 0 QAbstractSocketEngine::peerAddress()
PUBLIC 47500 0 QAbstractSocketEngine::peerPort()
PUBLIC 47510 0 QAbstractSocketEngine::protocol()
PUBLIC 47520 0 QAbstractSocketEngine::proxyAuthenticationRequired(QNetworkProxy const &,QAuthenticator *)
PUBLIC 47540 0 QAbstractSocketEngine::readNotification()
PUBLIC 47550 0 QAbstractSocketEngine::setError(QAbstractSocket::SocketError,QString const &)
PUBLIC 47570 0 QAbstractSocketEngine::setLocalAddress(QHostAddress const &)
PUBLIC 47580 0 QAbstractSocketEngine::setLocalPort(unsigned short)
PUBLIC 47590 0 QAbstractSocketEngine::setPeerAddress(QHostAddress const &)
PUBLIC 475a0 0 QAbstractSocketEngine::setPeerPort(unsigned short)
PUBLIC 475b0 0 QAbstractSocketEngine::setProtocol(QAbstractSocket::NetworkLayerProtocol)
PUBLIC 475c0 0 QAbstractSocketEngine::setReceiver(QAbstractSocketEngineReceiver *)
PUBLIC 475d0 0 QAbstractSocketEngine::setSocketType(QAbstractSocket::SocketType)
PUBLIC 475e0 0 QAbstractSocketEngine::setState(QAbstractSocket::SocketState)
PUBLIC 475f0 0 QAbstractSocketEngine::socketType()
PUBLIC 47600 0 QAbstractSocketEngine::state()
PUBLIC 47610 0 QAbstractSocketEngine::writeNotification()
PUBLIC 47620 0 QGlobalNetworkProxy::QGlobalNetworkProxy()
PUBLIC 476c0 0 QNetworkProxy::QNetworkProxy(QNetworkProxy::ProxyType,QString const &,unsigned short,QString const &,QString const &)
PUBLIC 47720 0 QNetworkProxy::QNetworkProxy()
PUBLIC 47740 0 QNetworkProxyPrivate::QNetworkProxyPrivate(QNetworkProxyPrivate const &)
PUBLIC 477d0 0 QNetworkProxyPrivate::QNetworkProxyPrivate(QNetworkProxy::ProxyType,QString const &,unsigned short,QString const &,QString const &)
PUBLIC 47880 0 QNetworkProxyQuery::QNetworkProxyQuery(QNetworkConfiguration const &,QUrl const &,QNetworkProxyQuery::QueryType)
PUBLIC 478d0 0 QNetworkProxyQuery::QNetworkProxyQuery(QString const &,int,QString const &,QNetworkProxyQuery::QueryType)
PUBLIC 47930 0 QNetworkProxyQuery::QNetworkProxyQuery(QUrl const &,QNetworkProxyQuery::QueryType)
PUBLIC 47970 0 QNetworkProxyQuery::QNetworkProxyQuery(unsigned short,QString const &,QNetworkProxyQuery::QueryType)
PUBLIC 479c0 0 QGlobalNetworkProxy::~QGlobalNetworkProxy()
PUBLIC 47a30 0 QNetworkProxy::~QNetworkProxy()
PUBLIC 47a60 0 QNetworkProxyPrivate::~QNetworkProxyPrivate()
PUBLIC 47af0 0 QNetworkProxyQuery::~QNetworkProxyQuery()
PUBLIC 47b30 0 QNetworkProxy::operator=(QNetworkProxy const &)
PUBLIC 47b80 0 QNetworkProxy::operator==(QNetworkProxy const &)
PUBLIC 47bb0 0 QNetworkProxyPrivate::operator==(QNetworkProxyPrivate const &)
PUBLIC 47c20 0 QNetworkProxyFactory::`vector deleting destructor'(unsigned int)
PUBLIC 47c40 0 QGlobalNetworkProxy::applicationProxy()
PUBLIC 47d20 0 QNetworkProxy::applicationProxy()
PUBLIC 47d80 0 QNetworkProxy::capabilities()
PUBLIC 47db0 0 QSharedDataPointer<QNetworkProxyPrivate>::detach()
PUBLIC 47f10 0 QSharedDataPointer<QNetworkProxyQueryPrivate>::detach()
PUBLIC 47fe0 0 QList<QNetworkProxy>::detach_helper(int)
PUBLIC 48080 0 QNetworkProxy::hasRawHeader(QByteArray const &)
PUBLIC 480c0 0 QNetworkProxy::hostName()
PUBLIC 48190 0 `anonymous namespace'::Q_QGS_globalNetworkProxy::innerFunction()
PUBLIC 48220 0 QNetworkProxy::isTransparentProxy()
PUBLIC 48250 0 QNetworkProxyQuery::peerHostName()
PUBLIC 48320 0 QNetworkProxy::port()
PUBLIC 48330 0 QNetworkProxyQuery::protocolTag()
PUBLIC 483f0 0 QGlobalNetworkProxy::proxyForQuery(QNetworkProxyQuery const &)
PUBLIC 489e0 0 QNetworkProxyFactory::proxyForQuery(QNetworkProxyQuery const &)
PUBLIC 48c40 0 QSystemConfigurationProxyFactory::queryProxy(QNetworkProxyQuery const &)
PUBLIC 48e10 0 QNetworkProxyQuery::queryType()
PUBLIC 48e20 0 QNetworkProxy::rawHeader(QByteArray const &)
PUBLIC 48e90 0 QNetworkProxy::rawHeaderList()
PUBLIC 48ec0 0 QGlobalNetworkProxy::setApplicationProxyFactory(QNetworkProxyFactory *)
PUBLIC 48f50 0 QNetworkProxy::setPassword(QString const &)
PUBLIC 48f70 0 QNetworkProxy::setRawHeader(QByteArray const &,QByteArray const &)
PUBLIC 48fb0 0 QNetworkProxy::setType(QNetworkProxy::ProxyType)
PUBLIC 49000 0 QNetworkProxy::setUser(QString const &)
PUBLIC 49020 0 QNetworkProxy::type()
PUBLIC 49030 0 QNetworkProxyQuery::url()
PUBLIC 490b0 0 QAuthenticator::password()
PUBLIC 49180 0 qDeleteAll<QList<QHostInfoRunnable *>::const_iterator>(QList<QHostInfoRunnable *>::const_iterator,QList<QHostInfoRunnable *>::const_iterator)
PUBLIC 491c0 0 QMutableListIterator<QHostInfoRunnable *>::QMutableListIterator<QHostInfoRunnable *>(QList<QHostInfoRunnable *> &)
PUBLIC 49230 0 QHostInfo::QHostInfo(QHostInfo const &)
PUBLIC 49270 0 QHostInfo::QHostInfo(int)
PUBLIC 492e0 0 QHostInfoLookupManager::QHostInfoLookupManager()
PUBLIC 493c0 0 QHostInfoPrivate::QHostInfoPrivate(QHostInfoPrivate const &)
PUBLIC 49460 0 QHostInfoRunnable::QHostInfoRunnable(QString,int)
PUBLIC 494e0 0 QHostInfo::~QHostInfo()
PUBLIC 49500 0 QHostInfoLookupManager::~QHostInfoLookupManager()
PUBLIC 49630 0 QHostInfoPrivate::~QHostInfoPrivate()
PUBLIC 496c0 0 QHostInfoPrivate::operator=(QHostInfoPrivate const &)
PUBLIC 49740 0 QAbstractHostInfoLookupManager::`vector deleting destructor'(unsigned int)
PUBLIC 497b0 0 QHostInfoLookupManager::`vector deleting destructor'(unsigned int)
PUBLIC 497d0 0 QAbstractSocketEngine::`vector deleting destructor'(unsigned int)
PUBLIC 497f0 0 QHostInfoRunnable::`vector deleting destructor'(unsigned int)
PUBLIC 49850 0 QRunnable::`vector deleting destructor'(unsigned int)
PUBLIC 49870 0 QtMetaTypePrivate::QMetaTypeFunctionHelper<QHostInfo,1>::Construct(void *,void const *)
PUBLIC 498d0 0 QtMetaTypePrivate::QMetaTypeFunctionHelper<QHostInfo,1>::Create(void const *)
PUBLIC 49940 0 QtMetaTypePrivate::QMetaTypeFunctionHelper<QHostInfo,1>::Delete(void *)
PUBLIC 49970 0 QtMetaTypePrivate::QMetaTypeFunctionHelper<QHostInfo,1>::Destruct(void *)
PUBLIC 49990 0 QHostInfo::abortHostLookup(int)
PUBLIC 499c0 0 QHostInfoLookupManager::abortLookup(int)
PUBLIC 49b80 0 QHostInfo::addresses()
PUBLIC 49bf0 0 QList<int>::append(int const &)
PUBLIC 49c30 0 QCache<QString,QHostInfoCache::QHostInfoCacheElement>::clear()
PUBLIC 49cc0 0 QHostInfoLookupManager::clear()
PUBLIC 49e40 0 QHash<QString,QCache<QString,QHostInfoCache::QHostInfoCacheElement>::Node>::createNode(unsigned int,QString const &,QCache<QString,QHostInfoCache::QHostInfoCacheElement>::Node const &,QHashNode<QString,QCache<QString,QHostInfoCache::QHostInfoCacheElement>::Node> * *)
PUBLIC 49eb0 0 QHash<QString,QCache<QString,QHostInfoCache::QHostInfoCacheElement>::Node>::detach()
PUBLIC 49f10 0 QHash<QString,QCache<QString,QHostInfoCache::QHostInfoCacheElement>::Node>::duplicateNode(QHashData::Node *,void *)
PUBLIC 49f60 0 QList<QFtpCommand *>::erase(QList<QFtpCommand *>::iterator)
PUBLIC 49ff0 0 QHash<QString,QCache<QString,QHostInfoCache::QHostInfoCacheElement>::Node>::find(QString const &)
PUBLIC 4a0c0 0 QHostInfo::fromName(QString const &)
PUBLIC 4a110 0 QHostInfoPrivate::fromName(QString const &,QSharedPointer<QNetworkSession>)
PUBLIC 4a1c0 0 QHostInfoCache::get(QString const &,bool *)
PUBLIC 4a280 0 `anonymous namespace'::Q_QGS_theHostInfoLookupManager::innerFunction()
PUBLIC 4a310 0 QCache<QString,QHostInfoCache::QHostInfoCacheElement>::insert(QString const &,QHostInfoCache::QHostInfoCacheElement *,int)
PUBLIC 4a400 0 QHash<QString,QCache<QString,QHostInfoCache::QHostInfoCacheElement>::Node>::insert(QString const &,QCache<QString,QHostInfoCache::QHostInfoCacheElement>::Node const &)
PUBLIC 4a4e0 0 QHostInfoLookupManager::lookupFinished(QHostInfoRunnable *)
PUBLIC 4a560 0 QHostInfo::lookupHost(QString const &,QObject *,char const *)
PUBLIC 4a810 0 QHostInfo::lookupId()
PUBLIC 4a820 0 QHostInfoCache::put(QString const &,QHostInfo const &)
PUBLIC 4a8f0 0 QMetaTypeId<QHostInfo>::qt_metatype_id()
PUBLIC 4a980 0 qt_qhostinfo_lookup(QString const &,QObject *,char const *,bool *,int *)
PUBLIC 4aa40 0 QCache<QString,QHostInfoCache::QHostInfoCacheElement>::relink(QString const &)
PUBLIC 4aab0 0 QHash<QString,QCache<QString,QHostInfoCache::QHostInfoCacheElement>::Node>::remove(QString const &)
PUBLIC 4abc0 0 QList<QHostInfoRunnable *>::removeOne(QHostInfoRunnable * const &)
PUBLIC 4ac40 0 QHostInfoRunnable::run()
PUBLIC 4aea0 0 QHostInfoLookupManager::scheduleLookup(QHostInfoRunnable *)
PUBLIC 4af10 0 QHostInfo::setAddresses(QList<QHostAddress> const &)
PUBLIC 4af70 0 QHostInfo::setError(QHostInfo::HostInfoError)
PUBLIC 4af80 0 QHostInfo::setErrorString(QString const &)
PUBLIC 4af90 0 QHostInfo::setHostName(QString const &)
PUBLIC 4afa0 0 QCache<QString,QHostInfoCache::QHostInfoCacheElement>::trim(int)
PUBLIC 4b030 0 QCache<QString,QHostInfoCache::QHostInfoCacheElement>::unlink(QCache<QString,QHostInfoCache::QHostInfoCacheElement>::Node &)
PUBLIC 4b0a0 0 QHostInfoLookupManager::wasAborted(int)
PUBLIC 4b110 0 QHostInfoLookupManager::work()
PUBLIC 4b760 0 QSslSocket::qt_static_metacall(QObject *,QMetaObject::Call,int,void * *)
PUBLIC 4ba80 0 QForeachContainer<QStringList const >::QForeachContainer<QStringList const >(QStringList const &)
PUBLIC 4bb00 0 QList<QSslCertificate>::QList<QSslCertificate>(QList<QSslCertificate> const &)
PUBLIC 4bb70 0 QList<QSslCipher>::QList<QSslCipher>(QList<QSslCipher> const &)
PUBLIC 4bbe0 0 QSslConfigurationPrivate::QSslConfigurationPrivate(QSslConfigurationPrivate const &)
PUBLIC 4be20 0 QSslConfigurationPrivate::QSslConfigurationPrivate()
PUBLIC 4bef0 0 QSslSocket::QSslSocket(QObject *)
PUBLIC 4bf40 0 QSslSocketGlobalData::QSslSocketGlobalData()
PUBLIC 4bf80 0 QSslSocketPrivate::QSslSocketPrivate()
PUBLIC 4c030 0 QList<QSslCertificate>::~QList<QSslCertificate>()
PUBLIC 4c090 0 QList<QSslCipher>::~QList<QSslCipher>()
PUBLIC 4c0f0 0 QSslConfigurationPrivate::~QSslConfigurationPrivate()
PUBLIC 4c1d0 0 QSslSocketPrivate::~QSslSocketPrivate()
PUBLIC 4c270 0 QList<QSslCipher>::operator<<(QSslCipher const &)
PUBLIC 4c2d0 0 operator!=(QStringRef const &,QStringRef const &)
PUBLIC 4c2f0 0 QStringBuilder<QByteArray,QByteArray>::operator QByteArray()
PUBLIC 4c323 0 [thunk]:QSslSocketPrivate::`vector deleting destructor'`adjustor{136}' (unsigned int)
PUBLIC 4c330 0 QSslSocket::`vector deleting destructor'(unsigned int)
PUBLIC 4c380 0 QSslSocketPrivate::`vector deleting destructor'(unsigned int)
PUBLIC 4c3a0 0 QtMetaTypePrivate::QMetaTypeFunctionHelper<QSslCertificate,1>::Construct(void *,void const *)
PUBLIC 4c430 0 QtMetaTypePrivate::QMetaTypeFunctionHelper<QSslCertificate,1>::Create(void const *)
PUBLIC 4c4c0 0 QtMetaTypePrivate::QMetaTypeFunctionHelper<QSslCertificate,1>::Delete(void *)
PUBLIC 4c4e0 0 QtMetaTypePrivate::QMetaTypeFunctionHelper<QSslCertificate,1>::Destruct(void *)
PUBLIC 4c4f0 0 QSslSocketPrivate::_q_bytesWrittenSlot(__int64)
PUBLIC 4c580 0 QSslSocketPrivate::_q_connectedSlot()
PUBLIC 4c690 0 QSslSocketPrivate::_q_errorSlot(QAbstractSocket::SocketError)
PUBLIC 4c710 0 QSslSocketPrivate::_q_flushWriteBuffer()
PUBLIC 4c750 0 QSslSocketPrivate::_q_readyReadSlot()
PUBLIC 4c780 0 QSslSocketPrivate::_q_resumeImplementation()
PUBLIC 4c860 0 QSslSocketPrivate::_q_stateChangedSlot(QAbstractSocket::SocketState)
PUBLIC 4c880 0 QSslSocket::abort()
PUBLIC 4c8a0 0 QSslSocket::addCaCertificate(QSslCertificate const &)
PUBLIC 4c900 0 QSslSocket::addDefaultCaCertificate(QSslCertificate const &)
PUBLIC 4c910 0 QSslSocketPrivate::addDefaultCaCertificate(QSslCertificate const &)
PUBLIC 4c9e0 0 QSslSocket::atEnd()
PUBLIC 4ca20 0 QSslSocket::bytesAvailable()
PUBLIC 4ca90 0 QSslSocket::bytesToWrite()
PUBLIC 4cae0 0 QSslSocket::canReadLine()
PUBLIC 4cb20 0 QSslSocketPrivate::checkSettingSslContext(QSslSocket *,QSharedPointer<QSslContext>)
PUBLIC 4cb70 0 QSslSocket::close()
PUBLIC 4cc10 0 QSslSocket::connectToHost(QString const &,unsigned short,QFlags<QIODevice::OpenModeFlag>,QAbstractSocket::NetworkLayerProtocol)
PUBLIC 4ccb0 0 QSslSocket::connectToHostEncrypted(QString const &,unsigned short,QFlags<QIODevice::OpenModeFlag>,QAbstractSocket::NetworkLayerProtocol)
PUBLIC 4cd30 0 QSslSocketPrivate::createPlainSocket(QFlags<QIODevice::OpenModeFlag>)
PUBLIC 4d000 0 QSslConfigurationPrivate::deepCopyDefaultConfiguration(QSslConfigurationPrivate *)
PUBLIC 4d160 0 QSslSocketPrivate::defaultCiphers()
PUBLIC 4d210 0 QSslConfigurationPrivate::defaultConfiguration()
PUBLIC 4d280 0 QExplicitlySharedDataPointer<QSslConfigurationPrivate>::detach_helper()
PUBLIC 4d2e0 0 QList<QSslError>::detach_helper(int)
PUBLIC 4d380 0 QList<QSslCertificate>::detach_helper_grow(int,int)
PUBLIC 4d490 0 QList<QSslCipher>::detach_helper_grow(int,int)
PUBLIC 4d5a0 0 QSslSocket::disconnectFromHost()
PUBLIC 4d630 0 QSslSocket::encrypted()
PUBLIC 4d650 0 QSslSocket::encryptedBytesAvailable()
PUBLIC 4d670 0 QSslSocket::encryptedBytesToWrite()
PUBLIC 4d690 0 QSslSocket::encryptedBytesWritten(__int64)
PUBLIC 4d6c0 0 QList<QSslError>::first()
PUBLIC 4d6f0 0 QSslSocket::flush()
PUBLIC 4d720 0 QSslSocket::ignoreSslErrors(QList<QSslError> const &)
PUBLIC 4d760 0 QSslSocket::ignoreSslErrors()
PUBLIC 4d770 0 QSslSocketPrivate::init()
PUBLIC 4d7f0 0 `anonymous namespace'::Q_QGS_globalData::innerFunction()
PUBLIC 4d880 0 QSslSocketPrivate::isMatchingHostname(QSslCertificate const &,QString const &)
PUBLIC 4dde0 0 QSslSocketPrivate::isMatchingHostname(QString const &,QString const &)
PUBLIC 4df40 0 QSslSocket::metaObject()
PUBLIC 4df60 0 QSslSocket::modeChanged(QSslSocket::SslMode)
PUBLIC 4df90 0 QList<QSslCertificate>::node_copy(QList<QSslCertificate>::Node *,QList<QSslCertificate>::Node *,QList<QSslCertificate>::Node *)
PUBLIC 4dfd0 0 QList<QSslCipher>::node_copy(QList<QSslCipher>::Node *,QList<QSslCipher>::Node *,QList<QSslCipher>::Node *)
PUBLIC 4e010 0 QSslSocketPrivate::pauseSocketNotifiers(QSslSocket *)
PUBLIC 4e030 0 QSslSocketPrivate::peek(__int64)
PUBLIC 4e200 0 QSslSocketPrivate::peek(char *,__int64)
PUBLIC 4e2e0 0 QSslSocket::peerVerifyError(QSslError const &)
PUBLIC 4e310 0 QSslSocket::qt_metacall(QMetaObject::Call,int,void * *)
PUBLIC 4e360 0 QSslSocket::qt_metacast(char const *)
PUBLIC 4e3c0 0 QMetaTypeId<QSslCertificate>::qt_metatype_id()
PUBLIC 4e450 0 QSslSocket::readData(char *,__int64)
PUBLIC 4e4f0 0 QSslSocket::resume()
PUBLIC 4e530 0 QSslSocketPrivate::resumeSocketNotifiers(QSslSocket *)
PUBLIC 4e550 0 QSslSocketPrivate::setDefaultCaCertificates(QList<QSslCertificate> const &)
PUBLIC 4e600 0 QSslSocketPrivate::setDefaultCiphers(QList<QSslCipher> const &)
PUBLIC 4e6b0 0 QSslSocketPrivate::setDefaultSupportedCiphers(QList<QSslCipher> const &)
PUBLIC 4e760 0 QSslSocket::setReadBufferSize(__int64)
PUBLIC 4e790 0 QSslSocket::setSocketDescriptor(int,QAbstractSocket::SocketState,QFlags<QIODevice::OpenModeFlag>)
PUBLIC 4e8d0 0 QSslSocket::setSocketOption(QAbstractSocket::SocketOption,QVariant const &)
PUBLIC 4e8f0 0 QSslSocket::setSslConfiguration(QSslConfiguration const &)
PUBLIC 4eaf0 0 QSslSocket::socketOption(QAbstractSocket::SocketOption)
PUBLIC 4eb30 0 QSslSocket::sslConfiguration()
PUBLIC 4eba0 0 QSslSocketPrivate::sslContext(QSslSocket *)
PUBLIC 4eca0 0 QSslSocket::sslErrors(QList<QSslError> const &)
PUBLIC 4ecd0 0 QSslSocket::startClientEncryption()
PUBLIC 4ed90 0 QSslSocket::startServerEncryption()
PUBLIC 4ee10 0 QSslSocket::supportsSsl()
PUBLIC 4ee20 0 QSslSocketPrivate::unixRootCertDirectories()
PUBLIC 4f180 0 QMap<QSsl::AlternativeNameEntryType,QString>::values(QSsl::AlternativeNameEntryType const &)
PUBLIC 4f260 0 QSslSocketPrivate::verifyErrorsHaveBeenIgnored()
PUBLIC 4f340 0 QSslSocket::waitForBytesWritten(int)
PUBLIC 4f420 0 QSslSocket::waitForConnected(int)
PUBLIC 4f4d0 0 QSslSocket::waitForDisconnected(int)
PUBLIC 4f620 0 QSslSocket::waitForEncrypted(int)
PUBLIC 4f720 0 QSslSocket::waitForReadyRead(int)
PUBLIC 4f830 0 QSslSocket::writeData(char const *,__int64)
PUBLIC 4f8d0 0 QNetworkSession::qt_static_metacall(QObject *,QMetaObject::Call,int,void * *)
PUBLIC 4fb30 0 QNetworkSession::QNetworkSession(QNetworkConfiguration const &,QObject *)
PUBLIC 4fe20 0 QNetworkSession::`vector deleting destructor'(unsigned int)
PUBLIC 4fe60 0 QNetworkSession::closed()
PUBLIC 4fe80 0 QNetworkSession::configuration()
PUBLIC 4fef0 0 QNetworkSession::connectNotify(QMetaMethod const &)
PUBLIC 4ff60 0 QNetworkSession::disconnectNotify(QMetaMethod const &)
PUBLIC 4ffd0 0 QNetworkSession::error(QNetworkSession::SessionError)
PUBLIC 50000 0 QNetworkSession::errorString()
PUBLIC 500d0 0 QNetworkSession::isOpen()
PUBLIC 500e0 0 QNetworkSession::metaObject()
PUBLIC 50100 0 QNetworkSession::newConfigurationActivated()
PUBLIC 50120 0 QNetworkSession::open()
PUBLIC 50160 0 QNetworkSession::opened()
PUBLIC 50180 0 QNetworkSession::preferredConfigurationChanged(QNetworkConfiguration const &,bool)
PUBLIC 501d0 0 QNetworkSession::qt_metacall(QMetaObject::Call,int,void * *)
PUBLIC 50220 0 QNetworkSession::qt_metacast(char const *)
PUBLIC 50280 0 QNetworkSession::sessionProperty(QString const &)
PUBLIC 503e0 0 QNetworkSession::setSessionProperty(QString const &,QVariant const &)
PUBLIC 50430 0 QNetworkSession::state()
PUBLIC 50440 0 QNetworkSession::stateChanged(QNetworkSession::State)
PUBLIC 50470 0 QNetworkSession::usagePolicies()
PUBLIC 504b0 0 QNetworkSession::usagePoliciesChanged(QFlags<QNetworkSession::UsagePolicy>)
PUBLIC 504e0 0 QNetworkSession::waitForOpened(int)
PUBLIC 505b0 0 QTcpSocket::metaObject()
PUBLIC 505d0 0 QTcpSocket::qt_metacast(char const *)
PUBLIC 50630 0 QLatin1String::QLatin1String(QByteArray const &)
PUBLIC 50680 0 QNetworkCookie::QNetworkCookie(QByteArray const &,QByteArray const &)
PUBLIC 50730 0 QNetworkCookiePrivate::QNetworkCookiePrivate(QNetworkCookiePrivate const &)
PUBLIC 507e0 0 QNetworkCookie::~QNetworkCookie()
PUBLIC 50840 0 QNetworkCookiePrivate::~QNetworkCookiePrivate()
PUBLIC 50930 0 operator==(QByteArray const &,char const *)
PUBLIC 50960 0 QStringBuilder<QString,QString>::operator QString()
PUBLIC 509a0 0 QList<QNetworkCookie>::operator+=(QNetworkCookie const &)
PUBLIC 50a80 0 QSharedDataPointer<QNetworkCookiePrivate>::detach_helper()
PUBLIC 50ae0 0 QNetworkCookie::domain()
PUBLIC 50b10 0 QNetworkCookie::expirationDate()
PUBLIC 50b30 0 QNetworkCookie::hasSameIdentifier(QNetworkCookie const &)
PUBLIC 50b90 0 QNetworkCookie::isSecure()
PUBLIC 50ba0 0 QNetworkCookie::isSessionCookie()
PUBLIC 50bc0 0 QDate::isValid()
PUBLIC 50e90 0 QNetworkCookie::normalize(QUrl const &)
PUBLIC 510c0 0 QNetworkCookie::parseCookies(QByteArray const &)
PUBLIC 51e00 0 QNetworkCookiePrivate::parseSetCookieHeaderLine(QByteArray const &)
PUBLIC 529c0 0 QHostInfo::hostName()
PUBLIC 529f0 0 QNetworkCookie::toRawForm(QNetworkCookie::RawForm)
PUBLIC 52d70 0 QSslConfiguration::QSslConfiguration()
PUBLIC 52db0 0 QSslConfiguration::~QSslConfiguration()
PUBLIC 52de0 0 QList<QByteArray>::operator=(QList<QByteArray> const &)
PUBLIC 52e60 0 QSslConfiguration::operator=(QSslConfiguration const &)
PUBLIC 52eb0 0 QList<QByteArray>::operator==(QList<QByteArray> const &)
PUBLIC 52f20 0 QList<QSslCertificate>::operator==(QList<QSslCertificate> const &)
PUBLIC 52f90 0 QList<QSslCipher>::operator==(QList<QSslCipher> const &)
PUBLIC 53000 0 QSslConfiguration::operator==(QSslConfiguration const &)
PUBLIC 53150 0 QSslConfiguration::allowedNextProtocols()
PUBLIC 531c0 0 QSslConfiguration::caCertificates()
PUBLIC 53230 0 QSslConfiguration::ciphers()
PUBLIC 532a0 0 QSslConfiguration::defaultConfiguration()
PUBLIC 532c0 0 QSslConfiguration::isNull()
PUBLIC 53380 0 QSslConfiguration::localCertificate()
PUBLIC 53400 0 QSslConfiguration::localCertificateChain()
PUBLIC 53470 0 QSslConfiguration::nextNegotiatedProtocol()
PUBLIC 534a0 0 QSslConfiguration::nextProtocolNegotiationStatus()
PUBLIC 534b0 0 QSslConfiguration::peerVerifyDepth()
PUBLIC 534c0 0 QSslConfiguration::peerVerifyMode()
PUBLIC 534d0 0 QSslConfiguration::privateKey()
PUBLIC 534f0 0 QSslConfiguration::protocol()
PUBLIC 53500 0 QSslConfiguration::sessionTicket()
PUBLIC 53530 0 QSslConfiguration::sessionTicketLifeTimeHint()
PUBLIC 53540 0 QSslConfiguration::setAllowedNextProtocols(QList<QByteArray>)
PUBLIC 535b0 0 QSslConfiguration::testSslOption(QSsl::SslOption)
PUBLIC 535c0 0 QSslError::QSslError(QSslError const &)
PUBLIC 53640 0 QSslError::QSslError(QSslError::SslError)
PUBLIC 53710 0 QSslError::QSslError(QSslError::SslError,QSslCertificate const &)
PUBLIC 53790 0 QSslError::QSslError()
PUBLIC 53860 0 QSslError::~QSslError()
PUBLIC 53880 0 QSslError::operator=(QSslError const &)
PUBLIC 538b0 0 QSslError::operator==(QSslError const &)
PUBLIC 538e0 0 QSslError::certificate()
PUBLIC 53900 0 QSslError::error()
PUBLIC 53910 0 QSslError::errorString()
PUBLIC 53ed0 0 QNetworkAccessCache::CacheableObject::CacheableObject()
PUBLIC 53ee0 0 QNetworkAccessCache::Node::Node(QNetworkAccessCache::Node const &)
PUBLIC 53f80 0 QNetworkAccessCache::QNetworkAccessCache()
PUBLIC 53fb0 0 QNetworkAccessCache::CacheableObject::~CacheableObject()
PUBLIC 53ff0 0 QNetworkAccessCache::Node::~Node()
PUBLIC 54070 0 QNetworkAccessCache::~QNetworkAccessCache()
PUBLIC 540c0 0 QHash<QByteArray,QNetworkAccessCache::Node>::operator[](QByteArray const &)
PUBLIC 541b0 0 QNetworkAccessCache::CacheableObject::`vector deleting destructor'(unsigned int)
PUBLIC 54200 0 QNetworkAccessCache::`vector deleting destructor'(unsigned int)
PUBLIC 54270 0 QNetworkAccessCache::addEntry(QByteArray const &,QNetworkAccessCache::CacheableObject *)
PUBLIC 54310 0 QHash<QByteArray,QNetworkAccessCache::Node>::begin()
PUBLIC 543a0 0 QNetworkAccessCache::clear()
PUBLIC 54510 0 QHash<QByteArray,QNetworkAccessCache::Node>::createNode(unsigned int,QByteArray const &,QNetworkAccessCache::Node const &,QHashNode<QByteArray,QNetworkAccessCache::Node> * *)
PUBLIC 54580 0 QHash<QByteArray,QNetworkAccessCache::Node>::deleteNode2(QHashData::Node *)
PUBLIC 545c0 0 QHash<QByteArray,QNetworkAccessCache::Node>::detach()
PUBLIC 54620 0 QList<`anonymous namespace'::Receiver>::detach_helper(int)
PUBLIC 546a0 0 QList<`anonymous namespace'::Receiver>::detach_helper_grow(int,int)
PUBLIC 54770 0 QHash<QByteArray,QNetworkAccessCache::Node>::duplicateNode(QHashData::Node *,void *)
PUBLIC 547c0 0 QNetworkAccessCache::emitEntryReady(QNetworkAccessCache::Node *,QObject *,char const *)
PUBLIC 54830 0 QHash<QByteArray,QNetworkAccessCache::Node>::end()
PUBLIC 54890 0 QQueue<`anonymous namespace'::Receiver>::enqueue(`anonymous namespace'::Receiver const &)
PUBLIC 548e0 0 QList<`anonymous namespace'::Receiver>::erase(QList<`anonymous namespace'::Receiver>::iterator)
PUBLIC 54980 0 QHash<QByteArray,QNetworkAccessCache::Node>::find(QByteArray const &)
PUBLIC 54a50 0 QHash<QByteArray,QTextCodec *>::findNode(QByteArray const &,unsigned int *)
PUBLIC 54ad0 0 QNetworkAccessCache::hasEntry(QByteArray const &)
PUBLIC 54ae0 0 QNetworkAccessCache::linkEntry(QByteArray const &)
PUBLIC 54b70 0 QList<`anonymous namespace'::Receiver>::node_construct(QList<`anonymous namespace'::Receiver>::Node *,`anonymous namespace'::Receiver const &)
PUBLIC 54bc0 0 QList<`anonymous namespace'::Receiver>::node_copy(QList<`anonymous namespace'::Receiver>::Node *,QList<`anonymous namespace'::Receiver>::Node *,QList<`anonymous namespace'::Receiver>::Node *)
PUBLIC 54c20 0 QList<`anonymous namespace'::Receiver>::node_destruct(QList<`anonymous namespace'::Receiver>::Node *,QList<`anonymous namespace'::Receiver>::Node *)
PUBLIC 54c70 0 QNetworkAccessCache::releaseEntry(QByteArray const &)
PUBLIC 54df0 0 QHash<QByteArray,QNetworkAccessCache::Node>::remove(QByteArray const &)
PUBLIC 54f10 0 QNetworkAccessCache::removeEntry(QByteArray const &)
PUBLIC 54ff0 0 QNetworkAccessCache::requestEntry(QByteArray const &,QObject *,char const *)
PUBLIC 550c0 0 QNetworkAccessCache::requestEntryNow(QByteArray const &)
PUBLIC 55140 0 QNetworkAccessCache::CacheableObject::setExpires(bool)
PUBLIC 55150 0 QNetworkAccessCache::CacheableObject::setShareable(bool)
PUBLIC 55160 0 QList<`anonymous namespace'::Receiver>::takeFirst()
PUBLIC 551f0 0 QNetworkAccessCache::timerEvent(QTimerEvent *)
PUBLIC 552c0 0 QNetworkAccessCache::unlinkEntry(QByteArray const &)
PUBLIC 55350 0 QNetworkAccessCache::updateTimer()
PUBLIC 553b0 0 QNetworkReplyImpl::qt_static_metacall(QObject *,QMetaObject::Call,int,void * *)
PUBLIC 554a0 0 QSharedPointer<char>::QSharedPointer<char><void (*)(char *)>(char *,void (*)(char *))
PUBLIC 55510 0 QSharedPointer<QRingBuffer>::create<>()
PUBLIC 55560 0 QQueue<QNetworkReplyImplPrivate::InternalNotifications>::QQueue<QNetworkReplyImplPrivate::InternalNotifications>(QQueue<QNetworkReplyImplPrivate::InternalNotifications> const &)
PUBLIC 555d0 0 QByteDataBuffer::QByteDataBuffer()
PUBLIC 55600 0 QDisabledNetworkReply::QDisabledNetworkReply(QObject *,QNetworkRequest const &,QNetworkAccessManager::Operation)
PUBLIC 55740 0 QNetworkReplyImpl::QNetworkReplyImpl(QObject *)
PUBLIC 55780 0 QNetworkReplyImplPrivate::QNetworkReplyImplPrivate()
PUBLIC 55900 0 QByteDataBuffer::~QByteDataBuffer()
PUBLIC 55950 0 QNetworkReplyImpl::~QNetworkReplyImpl()
PUBLIC 559c0 0 QNetworkReplyImplPrivate::~QNetworkReplyImplPrivate()
PUBLIC 55b30 0 QSharedPointer<char>::operator=(QSharedPointer<char> const &)
PUBLIC 55b90 0 QVariant::operator=(QVariant &&)
PUBLIC 55bd0 0 QDisabledNetworkReply::`vector deleting destructor'(unsigned int)
PUBLIC 55c00 0 QNetworkReplyImpl::`vector deleting destructor'(unsigned int)
PUBLIC 55c20 0 QNetworkReplyImplPrivate::`vector deleting destructor'(unsigned int)
PUBLIC 55c40 0 QNetworkReplyImplPrivate::_q_bufferOutgoingData()
PUBLIC 55da0 0 QNetworkReplyImplPrivate::_q_bufferOutgoingDataFinished()
PUBLIC 55e20 0 QNetworkReplyImplPrivate::_q_copyReadyRead()
PUBLIC 56140 0 QNetworkReplyImplPrivate::_q_networkSessionConnected()
PUBLIC 56250 0 QNetworkReplyImplPrivate::_q_networkSessionFailed()
PUBLIC 563d0 0 QNetworkReplyImplPrivate::_q_networkSessionUsagePoliciesChanged(QFlags<QNetworkSession::UsagePolicy>)
PUBLIC 564c0 0 QNetworkReplyImplPrivate::_q_startOperation()
PUBLIC 56870 0 QNetworkReplyImpl::abort()
PUBLIC 56970 0 QList<QNetworkReplyImplPrivate::InternalNotifications>::append(QNetworkReplyImplPrivate::InternalNotifications const &)
PUBLIC 569e0 0 QByteDataBuffer::append(QByteArray const &)
PUBLIC 56a10 0 QRingBuffer::append(QByteArray const &)
PUBLIC 56aa0 0 QNetworkReplyImplPrivate::appendDownstreamData(QByteDataBuffer &)
PUBLIC 56ca0 0 QNetworkReplyImplPrivate::appendDownstreamData(QIODevice *)
PUBLIC 56d60 0 QNetworkReplyImplPrivate::appendDownstreamDataSignalEmissions()
PUBLIC 56f10 0 QNetworkReplyImplPrivate::backendNotify(QNetworkReplyImplPrivate::InternalNotifications)
PUBLIC 56fa0 0 QNetworkReplyImpl::bytesAvailable()
PUBLIC 56ff0 0 QByteDataBuffer::canReadLine()
PUBLIC 57060 0 QNetworkReplyImpl::canReadLine()
PUBLIC 57090 0 QRingBuffer::chop(int)
PUBLIC 57140 0 QList<QPair<QByteArray,QByteArray> >::clear()
PUBLIC 57190 0 QByteDataBuffer::clear()
PUBLIC 57200 0 QNetworkReplyImpl::close()
PUBLIC 572c0 0 QNetworkReplyImplPrivate::completeCacheSave()
PUBLIC 57370 0 QNetworkReplyImplPrivate::createCache()
PUBLIC 57400 0 QtSharedPointer::ExternalRefCountWithContiguousData<QRingBuffer>::deleter(QtSharedPointer::ExternalRefCountData *)
PUBLIC 57450 0 QList<QNetworkReplyImplPrivate::InternalNotifications>::detach_helper(int)
PUBLIC 574f0 0 QList<QNetworkReplyImplPrivate::InternalNotifications>::detach_helper_grow(int,int)
PUBLIC 575e0 0 QNetworkReplyImplPrivate::emitUploadProgress(__int64,__int64)
PUBLIC 576e0 0 QNetworkReplyImplPrivate::encrypted()
PUBLIC 576f0 0 QNetworkReplyImpl::event(QEvent *)
PUBLIC 57720 0 QNetworkReplyImplPrivate::finished()
PUBLIC 57ad0 0 QNetworkReplyImplPrivate::handleNotifications()
PUBLIC 57c30 0 QNetworkReplyImpl::ignoreSslErrors()
PUBLIC 57c50 0 QNetworkReplyImpl::ignoreSslErrorsImplementation(QList<QSslError> const &)
PUBLIC 57c70 0 QNetworkReplyImplPrivate::initCacheSaveDevice()
PUBLIC 57e60 0 QNetworkReplyImplPrivate::metaDataChanged()
PUBLIC 57f90 0 QDisabledNetworkReply::metaObject()
PUBLIC 57fb0 0 QNetworkReplyImpl::metaObject()
PUBLIC 57fd0 0 QNetworkReplyImplPrivate::migrateBackend()
PUBLIC 58110 0 QNetworkReplyImplPrivate::nextDownstreamBlockSize()
PUBLIC 58180 0 QList<QNetworkReplyImplPrivate::InternalNotifications>::node_copy(QList<QNetworkReplyImplPrivate::InternalNotifications>::Node *,QList<QNetworkReplyImplPrivate::InternalNotifications>::Node *,QList<QNetworkReplyImplPrivate::InternalNotifications>::Node *)
PUBLIC 581c0 0 QByteDataBuffer::popFront(QByteArray &,__int64)
PUBLIC 58220 0 QDisabledNetworkReply::qt_metacall(QMetaObject::Call,int,void * *)
PUBLIC 58230 0 QNetworkReplyImpl::qt_metacall(QMetaObject::Call,int,void * *)
PUBLIC 58280 0 QDisabledNetworkReply::qt_metacast(char const *)
PUBLIC 582e0 0 QNetworkReplyImpl::qt_metacast(char const *)
PUBLIC 58340 0 QByteDataBuffer::read(char *,__int64)
PUBLIC 584e0 0 QNetworkReplyImpl::readData(char *,__int64)
PUBLIC 58630 0 QNetworkReplyImplPrivate::redirectionRequested(QUrl const &)
PUBLIC 58680 0 QNetworkReplyImplPrivate::resumeNotificationHandling()
PUBLIC 586e0 0 QNetworkReplyImplPrivate::setCachingEnabled(bool)
PUBLIC 587d0 0 QNetworkReplyImpl::setReadBufferSize(__int64)
PUBLIC 58860 0 QNetworkReplyImpl::setSslConfigurationImplementation(QSslConfiguration const &)
PUBLIC 58890 0 QNetworkReplyImplPrivate::setup(QNetworkAccessManager::Operation,QNetworkRequest const &,QIODevice *)
PUBLIC 58c60 0 QByteDataBuffer::squeezeFirst()
PUBLIC 58cc0 0 QNetworkReplyImpl::sslConfigurationImplementation(QSslConfiguration &)
PUBLIC 58ce0 0 QNetworkReplyImplPrivate::sslErrors(QList<QSslError> const &)
PUBLIC 58cf0 0 QList<QByteArray>::takeFirst()
PUBLIC 58d70 0 QNetworkAccessBackend::QNetworkAccessBackend()
PUBLIC 58db0 0 QNetworkAccessBackendFactory::QNetworkAccessBackendFactory()
PUBLIC 58e30 0 QNetworkAccessBackend::~QNetworkAccessBackend()
PUBLIC 58e80 0 QNetworkAccessBackendFactory::~QNetworkAccessBackendFactory()
PUBLIC 58f00 0 QNetworkAccessBackendFactoryData::~QNetworkAccessBackendFactoryData()
PUBLIC 58f70 0 QList<QString>::operator+=(QList<QString> const &)
PUBLIC 58ff0 0 QNetworkAccessBackend::`vector deleting destructor'(unsigned int)
PUBLIC 59050 0 QNetworkAccessBackendFactory::`vector deleting destructor'(unsigned int)
PUBLIC 59070 0 QNetworkAccessBackend::authenticationRequired(QAuthenticator *)
PUBLIC 590a0 0 QNetworkAccessManagerPrivate::backendSupportedSchemes()
PUBLIC 592a0 0 QNetworkAccessBackend::createUploadByteDevice()
PUBLIC 59400 0 QNetworkAccessBackend::emitReplyUploadProgress(__int64,__int64)
PUBLIC 59430 0 QNetworkAccessBackend::encrypted()
PUBLIC 59440 0 QNetworkAccessBackend::error(QNetworkReply::NetworkError,QString const &)
PUBLIC 59450 0 QNetworkAccessBackend::fetchCacheMetaData(QNetworkCacheMetaData const &)
PUBLIC 59460 0 QNetworkAccessManagerPrivate::findBackend(QNetworkAccessManager::Operation,QNetworkRequest const &)
PUBLIC 59540 0 QNetworkAccessBackend::finished()
PUBLIC 59550 0 `anonymous namespace'::Q_QGS_factoryData::innerFunction()
PUBLIC 59600 0 QNetworkAccessBackend::metaDataChanged()
PUBLIC 59610 0 QtPrivate::QVariantValueHelper<QString>::metaType(QVariant const &)
PUBLIC 596d0 0 QNetworkAccessBackend::networkCache()
PUBLIC 596e0 0 QNetworkAccessBackend::nextDownstreamBlockSize()
PUBLIC 596f0 0 QNetworkAccessBackend::operation()
PUBLIC 59700 0 QNetworkAccessBackend::proxyAuthenticationRequired(QNetworkProxy const &,QAuthenticator *)
PUBLIC 59740 0 QNetworkAccessBackend::proxyList()
PUBLIC 597b0 0 QNetworkAccessBackend::redirectionRequested(QUrl const &)
PUBLIC 597c0 0 QList<int>::removeAll(int const &)
PUBLIC 59890 0 QNetworkAccessBackend::request()
PUBLIC 598b0 0 QNetworkAccessBackend::setAttribute(QNetworkRequest::Attribute,QVariant const &)
PUBLIC 598f0 0 QNetworkAccessBackend::setCachingEnabled(bool)
PUBLIC 59900 0 QNetworkAccessBackend::setHeader(QNetworkRequest::KnownHeaders,QVariant const &)
PUBLIC 59910 0 QNetworkAccessBackend::setRawHeader(QByteArray const &,QByteArray const &)
PUBLIC 59920 0 QNetworkAccessBackend::setUrl(QUrl const &)
PUBLIC 59930 0 QNetworkAccessBackend::sslErrors(QList<QSslError> const &)
PUBLIC 59940 0 QNetworkAccessBackend::start()
PUBLIC 59c90 0 QNetworkAccessBackend::url()
PUBLIC 59cb0 0 QNetworkAccessBackend::writeDownstreamData(QByteDataBuffer &)
PUBLIC 59cc0 0 QNetworkAccessBackend::writeDownstreamData(QIODevice *)
PUBLIC 59cd0 0 std::_Lower_bound<QNetworkAuthenticationCredential *,QString,int,std::less<void> >(QNetworkAuthenticationCredential *,QNetworkAuthenticationCredential *,QString const &,std::less<void>,int *)
PUBLIC 59d30 0 QNetworkAuthenticationCache::QNetworkAuthenticationCache()
PUBLIC 59da0 0 QNetworkAuthenticationCredential::QNetworkAuthenticationCredential(QNetworkAuthenticationCredential const &)
PUBLIC 59e00 0 QVector<QCommandLineParserPrivate::PositionalArgumentDefinition>::~QVector<QCommandLineParserPrivate::PositionalArgumentDefinition>()
PUBLIC 59e60 0 QStringBuilder<char const [6],QByteArray>::operator QByteArray()
PUBLIC 59ec0 0 QNetworkAuthenticationCache::`vector deleting destructor'(unsigned int)
PUBLIC 5a000 0 QNetworkAccessAuthenticationManager::cacheCredentials(QUrl const &,QAuthenticator const *)
PUBLIC 5a3b0 0 QNetworkAccessAuthenticationManager::cacheProxyCredentials(QNetworkProxy const &,QAuthenticator const *)
PUBLIC 5a7b0 0 QVector<QNetworkAuthenticationCredential>::defaultConstruct(QNetworkAuthenticationCredential *,QNetworkAuthenticationCredential *)
PUBLIC 5a7f0 0 QVector<QNetworkAuthenticationCredential>::destruct(QNetworkAuthenticationCredential *,QNetworkAuthenticationCredential *)
PUBLIC 5a820 0 QNetworkAuthenticationCache::dispose()
PUBLIC 5a830 0 QVector<QNetworkAuthenticationCredential>::end()
PUBLIC 5a8a0 0 QNetworkAccessAuthenticationManager::fetchCachedCredentials(QUrl const &,QAuthenticator const *)
PUBLIC 5ab10 0 QNetworkAccessAuthenticationManager::fetchCachedProxyCredentials(QNetworkProxy const &,QAuthenticator const *)
PUBLIC 5ada0 0 QNetworkAuthenticationCache::findClosestMatch(QString const &)
PUBLIC 5ae60 0 QVector<QNetworkAuthenticationCredential>::freeData(QTypedArrayData<QNetworkAuthenticationCredential> *)
PUBLIC 5aeb0 0 QVector<QNetworkAuthenticationCredential>::insert(QNetworkAuthenticationCredential *,int,QNetworkAuthenticationCredential const &)
PUBLIC 5b040 0 QNetworkAuthenticationCache::insert(QString const &,QString const &,QString const &)
PUBLIC 5b3d0 0 QVector<QNetworkAuthenticationCredential>::reallocData(int,int,QFlags<QArrayData::AllocationOption>)
PUBLIC 5b5e0 0 QForeachContainer<QList<QNetworkCookie> const >::QForeachContainer<QList<QNetworkCookie> const >(QList<QNetworkCookie> const &)
PUBLIC 5b660 0 QNetworkCookieJar::QNetworkCookieJar(QObject *)
PUBLIC 5b6b0 0 QNetworkCookieJar::`vector deleting destructor'(unsigned int)
PUBLIC 5b6e0 0 QNetworkCookieJarPrivate::`vector deleting destructor'(unsigned int)
PUBLIC 5b710 0 QNetworkCookieJar::cookiesForUrl(QUrl const &)
PUBLIC 5ba10 0 QNetworkCookieJar::deleteCookie(QNetworkCookie const &)
PUBLIC 5bae0 0 QList<QNetworkCookie>::detach_helper(int)
PUBLIC 5bb80 0 QList<QNetworkCookie>::insert(QList<QNetworkCookie>::iterator,QNetworkCookie const &)
PUBLIC 5bbd0 0 QNetworkCookieJar::insertCookie(QNetworkCookie const &)
PUBLIC 5bec0 0 QNetworkCookieJar::setCookiesFromUrl(QList<QNetworkCookie> const &,QUrl const &)
PUBLIC 5bfc0 0 QNetworkCookieJar::updateCookie(QNetworkCookie const &)
PUBLIC 5bff0 0 QNetworkCookieJar::validateCookie(QNetworkCookie const &,QUrl const &)
PUBLIC 5c100 0 QSharedPointer<QNetworkSession>::QSharedPointer<QNetworkSession><void (*)(QObject *)>(QNetworkSession *,void (*)(QObject *))
PUBLIC 5c170 0 QHash<QNetworkConfiguration,QWeakPointer<QNetworkSession> >::operator[](QNetworkConfiguration const &)
PUBLIC 5c240 0 QHash<QNetworkConfiguration,QWeakPointer<QNetworkSession> >::createNode(unsigned int,QNetworkConfiguration const &,QWeakPointer<QNetworkSession> const &,QHashNode<QNetworkConfiguration,QWeakPointer<QNetworkSession> > * *)
PUBLIC 5c2b0 0 QThreadStorage<QSharedNetworkSessionManager *>::deleteData(void *)
PUBLIC 5c2f0 0 QHash<QNetworkConfiguration,QWeakPointer<QNetworkSession> >::deleteNode2(QHashData::Node *)
PUBLIC 5c320 0 QtSharedPointer::ExternalRefCountWithCustomDeleter<char,void (*)(char *)>::deleter(QtSharedPointer::ExternalRefCountData *)
PUBLIC 5c340 0 QHash<QNetworkConfiguration,QWeakPointer<QNetworkSession> >::duplicateNode(QHashData::Node *,void *)
PUBLIC 5c390 0 QHash<QNetworkConfiguration,QWeakPointer<QNetworkSession> >::findNode(QNetworkConfiguration const &,unsigned int *)
PUBLIC 5c450 0 QSharedNetworkSessionManager::getSession(QNetworkConfiguration)
PUBLIC 5c5d0 0 sharedNetworkSessionManager()
PUBLIC 5c630 0 QNetworkAccessFtpBackend::QNetworkAccessFtpBackend()
PUBLIC 5c690 0 QStringList::QStringList(QString const &)
PUBLIC 5c6b0 0 QNetworkAccessFtpBackend::~QNetworkAccessFtpBackend()
PUBLIC 5c719 0 [thunk]:QNetworkAccessCachedFtpConnection::`vector deleting destructor'`adjustor{8}' (unsigned int)
PUBLIC 5c730 0 QNetworkAccessCachedFtpConnection::`vector deleting destructor'(unsigned int)
PUBLIC 5c760 0 QNetworkAccessFtpBackend::`vector deleting destructor'(unsigned int)
PUBLIC 5c780 0 QNetworkAccessFtpBackend::closeDownstreamChannel()
PUBLIC 5c7c0 0 QString::contains(QLatin1String,Qt::CaseSensitivity)
PUBLIC 5c7e0 0 QNetworkAccessFtpBackendFactory::create(QNetworkAccessManager::Operation,QNetworkRequest const &)
PUBLIC 5c8a0 0 QNetworkAccessFtpBackend::disconnectFromFtp(QNetworkAccessFtpBackend::CacheCleanupMode)
PUBLIC 5c9c0 0 QNetworkAccessCachedFtpConnection::dispose()
PUBLIC 5ca00 0 QNetworkAccessFtpBackend::downstreamReadyWrite()
PUBLIC 5ca40 0 QNetworkAccessFtpBackend::ftpConnectionReady(QNetworkAccessCache::CacheableObject *)
PUBLIC 5cb30 0 QNetworkAccessFtpBackend::ftpDone()
PUBLIC 5d400 0 QNetworkAccessFtpBackend::ftpRawCommandReply(int,QString const &)
PUBLIC 5d530 0 QNetworkAccessFtpBackend::ftpReadyRead()
PUBLIC 5d740 0 QNetworkAccessFtpBackend::open()
PUBLIC 5ddb0 0 QNetworkAccessFtpBackendFactory::supportedSchemes()
PUBLIC 5dde0 0 QNetworkAccessFileBackend::QNetworkAccessFileBackend()
PUBLIC 5de20 0 QNetworkAccessFileBackend::`vector deleting destructor'(unsigned int)
PUBLIC 5de50 0 QNetworkAccessFileBackend::closeDownstreamChannel()
PUBLIC 5de70 0 QNetworkAccessFileBackendFactory::create(QNetworkAccessManager::Operation,QNetworkRequest const &)
PUBLIC 5e0c0 0 QNetworkAccessFileBackend::downstreamReadyWrite()
PUBLIC 5e0d0 0 QNetworkAccessFileBackend::loadFileInfo()
PUBLIC 5e280 0 QNetworkAccessFileBackend::open()
PUBLIC 5e770 0 QNetworkAccessFileBackend::readMoreFromFile()
PUBLIC 5ec40 0 QNetworkAccessFileBackendFactory::supportedSchemes()
PUBLIC 5ec80 0 QNetworkAccessFileBackend::uploadReadyReadSlot()
PUBLIC 5ee80 0 QNetworkAccessCacheBackend::QNetworkAccessCacheBackend()
PUBLIC 5eea0 0 QNetworkAccessCacheBackend::`vector deleting destructor'(unsigned int)
PUBLIC 5eed0 0 QNetworkAccessCacheBackend::open()
PUBLIC 5f020 0 QNetworkAccessCacheBackend::sendCacheContents()
PUBLIC 5f350 0 QNetworkReplyDataImpl::QNetworkReplyDataImpl(QObject *,QNetworkRequest const &,QNetworkAccessManager::Operation)
PUBLIC 5f790 0 QNetworkReplyDataImplPrivate::~QNetworkReplyDataImplPrivate()
PUBLIC 5f800 0 QNetworkReplyDataImpl::`vector deleting destructor'(unsigned int)
PUBLIC 5f830 0 QNetworkReplyDataImplPrivate::`vector deleting destructor'(unsigned int)
PUBLIC 5f850 0 QNetworkReplyDataImpl::abort()
PUBLIC 5f860 0 QNetworkReplyDataImpl::bytesAvailable()
PUBLIC 5f890 0 QNetworkReplyDataImpl::metaObject()
PUBLIC 5f8b0 0 QNetworkReplyDataImpl::qt_metacast(char const *)
PUBLIC 5f910 0 QNetworkReplyDataImpl::readData(char *,__int64)
PUBLIC 5f930 0 QNetworkReplyDataImpl::size()
PUBLIC 5f940 0 QNetworkReplyFileImpl::QNetworkReplyFileImpl(QObject *,QNetworkRequest const &,QNetworkAccessManager::Operation)
PUBLIC 601a0 0 QNetworkReplyFileImplPrivate::~QNetworkReplyFileImplPrivate()
PUBLIC 60200 0 QNetworkReplyFileImpl::`vector deleting destructor'(unsigned int)
PUBLIC 60230 0 QNetworkReplyFileImplPrivate::`vector deleting destructor'(unsigned int)
PUBLIC 60250 0 QNetworkReplyFileImpl::bytesAvailable()
PUBLIC 60290 0 QNetworkReplyFileImpl::abort()
PUBLIC 602b0 0 QNetworkReplyFileImpl::metaObject()
PUBLIC 602d0 0 QNetworkReplyFileImpl::qt_metacast(char const *)
PUBLIC 60330 0 QNetworkReplyFileImpl::readData(char *,__int64)
PUBLIC 603c0 0 QNetworkReplyFileImpl::size()
PUBLIC 603d0 0 QConcatenable<QStringBuilder<QStringBuilder<char,QByteArray>,char> >::appendTo<char>(QStringBuilder<QStringBuilder<char,QByteArray>,char> const &,char * &)
PUBLIC 60430 0 QConcatenable<QStringBuilder<QStringBuilder<QStringBuilder<char,QByteArray>,char>,QByteArray> >::appendTo<char>(QStringBuilder<QStringBuilder<QStringBuilder<char,QByteArray>,char>,QByteArray> const &,char * &)
PUBLIC 60490 0 QConcatenable<QStringBuilder<QStringBuilder<QByteArray,char>,QByteArray> >::appendTo<char>(QStringBuilder<QStringBuilder<QByteArray,char>,QByteArray> const &,char * &)
PUBLIC 604f0 0 QConcatenable<QStringBuilder<QByteArray,char> >::appendTo<char>(QStringBuilder<QByteArray,char> const &,char * &)
PUBLIC 60550 0 QtStringBuilder::appendToByteArray<char const [13],QByteArray>(QByteArray &,QStringBuilder<char const [13],QByteArray> const &,char)
PUBLIC 605d0 0 QtStringBuilder::appendToByteArray<QStringBuilder<char const [4],QByteArray>,char const [3]>(QByteArray &,QStringBuilder<QStringBuilder<char const [4],QByteArray>,char const [3]> const &,char)
PUBLIC 60670 0 QtStringBuilder::appendToByteArray<QStringBuilder<char const [6],QByteArray>,char const [4]>(QByteArray &,QStringBuilder<QStringBuilder<char const [6],QByteArray>,char const [4]> const &,char)
PUBLIC 60710 0 QtStringBuilder::appendToByteArray<QStringBuilder<char const [8],QByteArray>,char const [4]>(QByteArray &,QStringBuilder<QStringBuilder<char const [8],QByteArray>,char const [4]> const &,char)
PUBLIC 607b0 0 QtStringBuilder::appendToByteArray<QStringBuilder<char const [9],QByteArray>,char const [4]>(QByteArray &,QStringBuilder<QStringBuilder<char const [9],QByteArray>,char const [4]> const &,char)
PUBLIC 60850 0 QtStringBuilder::appendToByteArray<QStringBuilder<char const [9],QByteArray>,char>(QByteArray &,QStringBuilder<QStringBuilder<char const [9],QByteArray>,char> const &,char)
PUBLIC 608e0 0 QtStringBuilder::appendToByteArray<QStringBuilder<char const [11],QByteArray>,char const [4]>(QByteArray &,QStringBuilder<QStringBuilder<char const [11],QByteArray>,char const [4]> const &,char)
PUBLIC 60980 0 QtStringBuilder::appendToByteArray<QStringBuilder<char const [11],QByteArray>,char>(QByteArray &,QStringBuilder<QStringBuilder<char const [11],QByteArray>,char> const &,char)
PUBLIC 60a10 0 QAuthenticatorPrivate::QAuthenticatorPrivate()
PUBLIC 60be0 0 QNtlmPhase3Block::QNtlmPhase3Block()
PUBLIC 60c60 0 QVariant::QVariant(QVariant &&)
PUBLIC 60cd0 0 QHash<QByteArray,QByteArray>::~QHash<QByteArray,QByteArray>()
PUBLIC 60d00 0 QHashNode<QByteArray,QByteArray>::~QHashNode<QByteArray,QByteArray>()
PUBLIC 60d60 0 QAuthenticator::~QAuthenticator()
PUBLIC 60d80 0 QAuthenticatorPrivate::~QAuthenticatorPrivate()
PUBLIC 60f20 0 QNtlmPhase1Block::~QNtlmPhase1Block()
PUBLIC 60f80 0 QNtlmPhase2Block::~QNtlmPhase2Block()
PUBLIC 61010 0 QNtlmPhase3Block::~QNtlmPhase3Block()
PUBLIC 61140 0 QHash<QString,QVariant>::operator=(QHash<QString,QVariant> const &)
PUBLIC 611b0 0 QAuthenticator::operator=(QAuthenticator const &)
PUBLIC 612a0 0 QByteRef::operator=(char)
PUBLIC 61550 0 QHash<QString,QVariant>::operator==(QHash<QString,QVariant> const &)
PUBLIC 61630 0 QHash<QByteArray,QByteArray>::operator[](QByteArray const &)
PUBLIC 61730 0 QHash<QString,QVariant>::operator[](QString const &)
PUBLIC 61820 0 QAuthenticatorPrivate::calculateResponse(QByteArray const &,QByteArray const &)
PUBLIC 61dc0 0 QHash<QString,QVariant>::createNode(unsigned int,QString const &,QVariant const &,QHashNode<QString,QVariant> * *)
PUBLIC 61e30 0 QHash<QByteArray,QByteArray>::deleteNode2(QHashData::Node *)
PUBLIC 61e40 0 QHash<QString,QVariant>::deleteNode2(QHashData::Node *)
PUBLIC 61e80 0 QHash<QString,QVariant>::detach()
PUBLIC 61ee0 0 QAuthenticator::detach()
PUBLIC 61f20 0 QHash<QString,QVariant>::detach_helper()
PUBLIC 61f70 0 QAuthenticatorPrivate::digestMd5Response(QByteArray const &,QByteArray const &,QByteArray const &)
PUBLIC 62b70 0 QHash<QString,QVariant>::duplicateNode(QHashData::Node *,void *)
PUBLIC 62bc0 0 QHash<QString,int>::findNode(QString const &,unsigned int *)
PUBLIC 62c40 0 QAuthenticator::isNull()
PUBLIC 62c50 0 QAuthenticatorPrivate::parseDigestAuthenticationChallenge(QByteArray const &)
PUBLIC 62fd0 0 QAuthenticatorPrivate::parseHttpResponse(QList<QPair<QByteArray,QByteArray> > const &,bool)
PUBLIC 639a0 0 qEncodeHmacMd5(QByteArray &,QByteArray const &)
PUBLIC 64f20 0 QNetworkInterface::hardwareAddress()
PUBLIC 64ff0 0 QAuthenticator::setPassword(QString const &)
PUBLIC 65060 0 QAuthenticator::setUser(QString const &)
PUBLIC 650b0 0 QAuthenticatorPrivate::updateCredentials()
PUBLIC 65280 0 QAuthenticator::user()
PUBLIC 65340 0 QHash<QByteArray,QByteArray>::value(QByteArray const &)
PUBLIC 653f0 0 QHttpNetworkRequest::QHttpNetworkRequest(QHttpNetworkRequest const &)
PUBLIC 65420 0 QHttpNetworkRequest::QHttpNetworkRequest(QUrl const &,QHttpNetworkRequest::Operation,QHttpNetworkRequest::Priority)
PUBLIC 65490 0 QHttpNetworkRequestPrivate::QHttpNetworkRequestPrivate(QHttpNetworkRequestPrivate const &)
PUBLIC 65500 0 QHttpNetworkRequest::~QHttpNetworkRequest()
PUBLIC 65550 0 QHttpNetworkRequestPrivate::~QHttpNetworkRequestPrivate()
PUBLIC 655d0 0 QHttpNetworkRequest::operator=(QHttpNetworkRequest const &)
PUBLIC 65620 0 QHttpNetworkRequest::operator==(QHttpNetworkRequest const &)
PUBLIC 65640 0 QHttpNetworkRequestPrivate::operator==(QHttpNetworkRequestPrivate const &)
PUBLIC 656d0 0 QSharedDataPointer<QHttpNetworkRequestPrivate>::operator->()
PUBLIC 656f0 0 QHttpNetworkHeader::`vector deleting destructor'(unsigned int)
PUBLIC 65710 0 QHttpNetworkRequest::`vector deleting destructor'(unsigned int)
PUBLIC 65760 0 QHttpNetworkRequest::contentLength()
PUBLIC 65770 0 QSharedDataPointer<QHttpNetworkRequestPrivate>::detach_helper()
PUBLIC 657d0 0 QHttpNetworkRequest::header()
PUBLIC 65840 0 QHttpNetworkRequestPrivate::header(QHttpNetworkRequest const &,bool)
PUBLIC 65c90 0 QHttpNetworkRequest::headerField(QByteArray const &,QByteArray const &)
PUBLIC 65cb0 0 QHttpNetworkRequest::isPipeliningAllowed()
PUBLIC 65cc0 0 QHttpNetworkRequest::isPreConnect()
PUBLIC 65cd0 0 QHttpNetworkRequest::isSPDYAllowed()
PUBLIC 65ce0 0 QHttpNetworkRequest::isSsl()
PUBLIC 65cf0 0 QHttpNetworkRequest::methodName()
PUBLIC 65e10 0 QHttpNetworkRequest::majorVersion()
PUBLIC 65e20 0 QHttpNetworkRequest::operation()
PUBLIC 65e30 0 QHttpNetworkRequest::priority()
PUBLIC 65e40 0 QHttpNetworkRequest::setContentLength(__int64)
PUBLIC 65e70 0 QHttpNetworkRequest::setCustomVerb(QByteArray const &)
PUBLIC 65ea0 0 QHttpNetworkRequest::setHeaderField(QByteArray const &,QByteArray const &)
PUBLIC 65ed0 0 QHttpNetworkRequest::setOperation(QHttpNetworkRequest::Operation)
PUBLIC 65f10 0 QHttpNetworkRequest::setPipeliningAllowed(bool)
PUBLIC 65f50 0 QHttpNetworkRequest::setPreConnect(bool)
PUBLIC 65f90 0 QHttpNetworkRequest::setPriority(QHttpNetworkRequest::Priority)
PUBLIC 65fd0 0 QHttpNetworkRequest::setSPDYAllowed(bool)
PUBLIC 66010 0 QHttpNetworkRequest::setSsl(bool)
PUBLIC 66050 0 QHttpNetworkRequest::setUploadByteDevice(QNonContiguousByteDevice *)
PUBLIC 66090 0 QHttpNetworkRequest::setUrl(QUrl const &)
PUBLIC 660c0 0 QHttpNetworkRequest::setWithCredentials(bool)
PUBLIC 66100 0 QHttpNetworkRequest::uploadByteDevice()
PUBLIC 66110 0 QHttpNetworkRequest::uri(bool)
PUBLIC 66200 0 QHttpNetworkRequest::url()
PUBLIC 66220 0 QHttpNetworkRequest::withCredentials()
PUBLIC 66230 0 QConcatenable<QStringBuilder<QStringBuilder<QStringBuilder<char const [7],QByteArray>,char>,QByteArray> >::appendTo<char>(QStringBuilder<QStringBuilder<QStringBuilder<char const [7],QByteArray>,char>,QByteArray> const &,char * &)
PUBLIC 662a0 0 QByteDataBuffer::QByteDataBuffer(QByteDataBuffer const &)
PUBLIC 66320 0 QNetworkReplyHttpImpl::QNetworkReplyHttpImpl(QNetworkAccessManager * const,QNetworkRequest const &,QNetworkAccessManager::Operation &,QIODevice *)
PUBLIC 666a0 0 QNetworkReplyHttpImplPrivate::QNetworkReplyHttpImplPrivate()
PUBLIC 66940 0 QNetworkReplyHttpImplPrivate::~QNetworkReplyHttpImplPrivate()
PUBLIC 66bb0 0 QDebug::operator<<(__int64)
PUBLIC 66be0 0 QNetworkReplyHttpImpl::`vector deleting destructor'(unsigned int)
PUBLIC 66c10 0 QNetworkReplyHttpImplPrivate::`vector deleting destructor'(unsigned int)
PUBLIC 66c30 0 QNonContiguousByteDeviceThreadForwardImpl::`vector deleting destructor'(unsigned int)
PUBLIC 66c90 0 QNetworkReplyHttpImplPrivate::_q_bufferOutgoingData()
PUBLIC 66df0 0 QNetworkReplyHttpImplPrivate::_q_bufferOutgoingDataFinished()
PUBLIC 66e70 0 QNetworkReplyHttpImplPrivate::_q_cacheLoadReadyRead()
PUBLIC 670a0 0 QNetworkReplyHttpImplPrivate::_q_cacheSaveDeviceAboutToClose()
PUBLIC 670b0 0 QNetworkReplyHttpImplPrivate::_q_finished()
PUBLIC 670c0 0 QNetworkReplyHttpImplPrivate::_q_metaDataChanged()
PUBLIC 671d0 0 QNetworkReplyHttpImplPrivate::_q_networkSessionConnected()
PUBLIC 672b0 0 QNetworkReplyHttpImplPrivate::_q_networkSessionFailed()
PUBLIC 67420 0 QNetworkReplyHttpImplPrivate::_q_networkSessionUsagePoliciesChanged(QFlags<QNetworkSession::UsagePolicy>)
PUBLIC 67500 0 QNetworkReplyHttpImplPrivate::_q_startOperation()
PUBLIC 67870 0 QNetworkReplyHttpImpl::abort()
PUBLIC 67930 0 QNonContiguousByteDeviceThreadForwardImpl::advanceReadPointer(__int64)
PUBLIC 67970 0 QNonContiguousByteDeviceThreadForwardImpl::atEnd()
PUBLIC 67990 0 QNetworkReplyHttpImpl::bytesAvailable()
PUBLIC 67a30 0 QNetworkReplyHttpImpl::canReadLine()
PUBLIC 67ab0 0 QNetworkReplyHttpImplPrivate::canResume()
PUBLIC 67c80 0 QNetworkReplyHttpImplPrivate::checkForRedirect(int)
PUBLIC 67e30 0 QNetworkReplyHttpImpl::close()
PUBLIC 67eb0 0 QNetworkReplyHttpImplPrivate::completeCacheSave()
PUBLIC 67f20 0 QNetworkReplyHttpImplPrivate::createCache()
PUBLIC 67fb0 0 QNetworkReplyHttpImplPrivate::createUploadByteDevice()
PUBLIC 68120 0 QNetworkReplyHttpImplPrivate::emitReplyUploadProgress(__int64,__int64)
PUBLIC 681b0 0 QNetworkReplyHttpImplPrivate::_q_error(QNetworkReply::NetworkError,QString const &)
PUBLIC 68220 0 QNetworkReplyHttpImplPrivate::fetchCacheMetaData(QNetworkCacheMetaData const &)
PUBLIC 68d30 0 QNetworkReplyHttpImplPrivate::finished()
PUBLIC 69070 0 QNetworkReplyHttpImplPrivate::httpAuthenticationRequired(QHttpNetworkRequest const &,QAuthenticator *)
PUBLIC 690b0 0 QNetworkReplyHttpImpl::ignoreSslErrors()
PUBLIC 690c0 0 QNetworkReplyHttpImpl::ignoreSslErrorsImplementation(QList<QSslError> const &)
PUBLIC 69100 0 QList<QByteArray>::indexOf(QByteArray const &,int)
PUBLIC 69200 0 QNetworkReplyHttpImplPrivate::initCacheSaveDevice()
PUBLIC 693f0 0 QHash<QByteArray,QByteArray>::insert(QByteArray const &,QByteArray const &)
PUBLIC 694c0 0 QNetworkReplyHttpImplPrivate::loadFromCacheIfAllowed(QHttpNetworkRequest &)
PUBLIC 69c20 0 QNetworkReplyHttpImplPrivate::migrateBackend()
PUBLIC 6a140 0 QNetworkReplyHttpImplPrivate::postRequest()
PUBLIC 6bb50 0 QNetworkReplyHttpImplPrivate::proxyAuthenticationRequired(QNetworkProxy const &,QAuthenticator *)
PUBLIC 6bba0 0 QNetworkReplyHttpImpl::readData(char *,__int64)
PUBLIC 6bd50 0 QNonContiguousByteDeviceThreadForwardImpl::readPointer(__int64,__int64 &)
PUBLIC 6bdc0 0 QList<QByteArray>::removeAt(int)
PUBLIC 6be30 0 QNetworkReplyHttpImplPrivate::replyDownloadData(QByteArray)
PUBLIC 6c190 0 QNetworkReplyHttpImplPrivate::replyDownloadMetaData(QList<QPair<QByteArray,QByteArray> >,int,QString,bool,QSharedPointer<char>,__int64,bool)
PUBLIC 6c7e0 0 QNetworkReplyHttpImplPrivate::replyDownloadProgressSlot(__int64,__int64)
PUBLIC 6c8f0 0 QNetworkReplyHttpImplPrivate::replyFinished()
PUBLIC 6c900 0 QNetworkReplyHttpImplPrivate::replySslConfigurationChanged(QSslConfiguration const &)
PUBLIC 6c910 0 QNetworkReplyHttpImplPrivate::replySslErrors(QList<QSslError> const &,bool *,QList<QSslError> *)
PUBLIC 6c970 0 QNonContiguousByteDeviceThreadForwardImpl::reset()
PUBLIC 6c9a0 0 QNetworkReplyHttpImplPrivate::resetUploadDataSlot(bool *)
PUBLIC 6c9c0 0 QNetworkReplyHttpImplPrivate::sendCacheContents(QNetworkCacheMetaData const &)
PUBLIC 6ccc0 0 QNetworkReplyHttpImplPrivate::sentUploadDataSlot(__int64)
PUBLIC 6cce0 0 QNetworkReplyHttpImplPrivate::setCachingEnabled(bool)
PUBLIC 6ce20 0 QNetworkReplyHttpImpl::setReadBufferSize(__int64)
PUBLIC 6ce50 0 QNetworkReplyHttpImpl::size()
PUBLIC 6ce60 0 QNonContiguousByteDeviceThreadForwardImpl::size()
PUBLIC 6ce70 0 QNetworkReplyHttpImpl::sslConfigurationImplementation(QSslConfiguration &)
PUBLIC 6ce90 0 QNetworkReplyHttpImplPrivate::start()
PUBLIC 6d020 0 QNetworkReplyHttpImplPrivate::uploadByteDeviceReadyReadSlot()
PUBLIC 6d040 0 QNetworkReplyHttpImplPrivate::wantUploadDataSlot(__int64)
PUBLIC 6d110 0 QHash<QHostAddress,QHostAddress>::operator[](QHostAddress const &)
PUBLIC 6d2a0 0 QHash<QHostAddress,QHostAddress>::createNode(unsigned int,QHostAddress const &,QHostAddress const &,QHashNode<QHostAddress,QHostAddress> * *)
PUBLIC 6d300 0 QHash<QHostAddress,QHostAddress>::deleteNode2(QHashData::Node *)
PUBLIC 6d320 0 QList<QNetworkAddressEntry>::detach_helper_grow(int,int)
PUBLIC 6d430 0 QHash<QHostAddress,QHostAddress>::duplicateNode(QHashData::Node *,void *)
PUBLIC 6d470 0 QHash<QHostAddress,QHostAddress>::findNode(QHostAddress const &,unsigned int *)
PUBLIC 6e360 0 QNetworkInterfaceManager::scan()
PUBLIC 6e3b0 0 QHash<QHostAddress,QHostAddress>::value(QHostAddress const &)
PUBLIC 6e450 0 QNetworkConfigurationManagerPrivate::qt_static_metacall(QObject *,QMetaObject::Call,int,void * *)
PUBLIC 6e650 0 QNetworkConfigurationManagerPrivate::configurationAdded(QNetworkConfiguration const &)
PUBLIC 6e680 0 QNetworkConfigurationManagerPrivate::configurationChanged(QNetworkConfiguration const &)
PUBLIC 6e6b0 0 QNetworkConfigurationManagerPrivate::configurationRemoved(QNetworkConfiguration const &)
PUBLIC 6e6e0 0 QNetworkConfigurationManagerPrivate::configurationUpdateComplete()
PUBLIC 6e700 0 QNetworkConfigurationManagerPrivate::metaObject()
PUBLIC 6e720 0 QNetworkConfigurationManagerPrivate::onlineStateChanged(bool)
PUBLIC 6e750 0 QNetworkConfigurationManagerPrivate::qt_metacall(QMetaObject::Call,int,void * *)
PUBLIC 6e7a0 0 QNetworkConfigurationManagerPrivate::qt_metacast(char const *)
PUBLIC 6e800 0 QAbstractSocketEngine::qt_static_metacall(QObject *,QMetaObject::Call,int,void * *)
PUBLIC 6e880 0 QAbstractSocketEngine::metaObject()
PUBLIC 6e8a0 0 QAbstractSocketEngine::qt_metacall(QMetaObject::Call,int,void * *)
PUBLIC 6e900 0 QAbstractSocketEngine::qt_metacast(char const *)
PUBLIC 6e960 0 QNativeSocketEngine::QNativeSocketEngine(QObject *)
PUBLIC 6e9d0 0 QNativeSocketEngine::`vector deleting destructor'(unsigned int)
PUBLIC 6ea00 0 QNativeSocketEnginePrivate::`vector deleting destructor'(unsigned int)
PUBLIC 6ea70 0 QExceptionNotifier::`vector deleting destructor'(unsigned int)
PUBLIC 6ea90 0 QNativeSocketEngine::accept()
PUBLIC 6eb50 0 QNativeSocketEngine::bind(QHostAddress const &,unsigned short)
PUBLIC 6ec00 0 QNativeSocketEngine::bytesAvailable()
PUBLIC 6ec60 0 QNativeSocketEnginePrivate::checkProxy(QHostAddress const &)
PUBLIC 6ed90 0 QNativeSocketEngine::close()
PUBLIC 6ee40 0 QNativeSocketEngine::connectToHost(QHostAddress const &,unsigned short)
PUBLIC 6ef10 0 QNativeSocketEngine::connectToHostByName(QString const &,unsigned short)
PUBLIC 6ef60 0 QNativeSocketEngine::connectionNotification()
PUBLIC 6ef90 0 QExceptionNotifier::event(QEvent *)
PUBLIC 6f000 0 QReadNotifier::event(QEvent *)
PUBLIC 6f040 0 QWriteNotifier::event(QEvent *)
PUBLIC 6f0b0 0 QNativeSocketEngine::hasPendingDatagrams()
PUBLIC 6f170 0 QNativeSocketEngine::initialize(int,QAbstractSocket::SocketState)
PUBLIC 6f290 0 QNativeSocketEngine::initialize(QAbstractSocket::SocketType,QAbstractSocket::NetworkLayerProtocol)
PUBLIC 6f3f0 0 QNativeSocketEngine::isExceptionNotificationEnabled()
PUBLIC 6f410 0 QNativeSocketEngine::isReadNotificationEnabled()
PUBLIC 6f430 0 QNativeSocketEngine::isValid()
PUBLIC 6f440 0 QNativeSocketEngine::isWriteNotificationEnabled()
PUBLIC 6f460 0 QNativeSocketEngine::joinMulticastGroup(QHostAddress const &,QNetworkInterface const &)
PUBLIC 6f5a0 0 QNativeSocketEngine::leaveMulticastGroup(QHostAddress const &,QNetworkInterface const &)
PUBLIC 6f670 0 QNativeSocketEngine::listen()
PUBLIC 6f730 0 QNativeSocketEngine::multicastInterface()
PUBLIC 6f7e0 0 QNativeSocketEngine::option(QAbstractSocketEngine::SocketOption)
PUBLIC 6f7f0 0 QNativeSocketEngine::pendingDatagramSize()
PUBLIC 6f850 0 QNativeSocketEngine::read(char *,__int64)
PUBLIC 6f970 0 QNativeSocketEngine::readDatagram(char *,__int64,QHostAddress *,unsigned short *)
PUBLIC 6f9f0 0 QNativeSocketEnginePrivate::setError(QAbstractSocket::SocketError,QNativeSocketEnginePrivate::ErrorString)
PUBLIC 70050 0 QNativeSocketEngine::setExceptionNotificationEnabled(bool)
PUBLIC 700d0 0 QNativeSocketEngine::setMulticastInterface(QNetworkInterface const &)
PUBLIC 70160 0 QNativeSocketEngine::setOption(QAbstractSocketEngine::SocketOption,int)
PUBLIC 70170 0 QNativeSocketEngine::setReadNotificationEnabled(bool)
PUBLIC 701f0 0 QNativeSocketEngine::setWriteNotificationEnabled(bool)
PUBLIC 70270 0 QNativeSocketEngine::socketDescriptor()
PUBLIC 70280 0 QNativeSocketEngine::waitForRead(int,bool *)
PUBLIC 703b0 0 QNativeSocketEngine::waitForReadOrWrite(bool *,bool *,bool,bool,int,bool *)
PUBLIC 70660 0 QNativeSocketEngine::waitForWrite(int,bool *)
PUBLIC 708f0 0 QNativeSocketEngine::write(char const *,__int64)
PUBLIC 70960 0 QNativeSocketEngine::writeDatagram(char const *,__int64,QHostAddress const &,unsigned short)
PUBLIC 709e0 0 QSystemLibrary::QSystemLibrary(wchar_t const *)
PUBLIC 70a80 0 QWindowsSystemProxy::QWindowsSystemProxy()
PUBLIC 70be0 0 QForeachContainer<QStringList const >::~QForeachContainer<QStringList const >()
PUBLIC 70c30 0 QWindowsSystemProxy::~QWindowsSystemProxy()
PUBLIC 70d10 0 QHash<QString,QNetworkProxy>::createNode(unsigned int,QString const &,QNetworkProxy const &,QHashNode<QString,QNetworkProxy> * *)
PUBLIC 70f50 0 QHash<QString,QNetworkProxy>::deleteNode2(QHashData::Node *)
PUBLIC 70f90 0 QHash<QString,QNetworkProxy>::duplicateNode(QHashData::Node *,void *)
PUBLIC 71180 0 QWindowsSystemProxy::init()
PUBLIC 71540 0 `anonymous namespace'::Q_QGS_systemProxy::innerFunction()
PUBLIC 715d0 0 QHash<QString,QNetworkProxy>::insert(QString const &,QNetworkProxy const &)
PUBLIC 72790 0 QSystemLibrary::resolve(char const *)
PUBLIC 727d0 0 QSystemLibrary::resolve(QString const &,char const *)
PUBLIC 72a20 0 QNetworkProxyFactory::systemProxyForQuery(QNetworkProxyQuery const &)
PUBLIC 72f10 0 QHash<QString,QNetworkProxy>::value(QString const &)
PUBLIC 72fb0 0 QSocks5BindData::QSocks5BindData()
PUBLIC 72ff0 0 QSocks5BindStore::QSocks5BindStore()
PUBLIC 73050 0 QSocks5SocketEnginePrivate::QSocks5SocketEnginePrivate()
PUBLIC 730e0 0 QSocks5PasswordAuthenticator::~QSocks5PasswordAuthenticator()
PUBLIC 73150 0 QSocks5SocketEngine::~QSocks5SocketEngine()
PUBLIC 73270 0 QSocks5SocketEnginePrivate::~QSocks5SocketEnginePrivate()
PUBLIC 73330 0 QDebug::operator<<(bool)
PUBLIC 73370 0 QSocks5Authenticator::`vector deleting destructor'(unsigned int)
PUBLIC 73390 0 QSocks5BindStore::`vector deleting destructor'(unsigned int)
PUBLIC 733f0 0 QSocks5PasswordAuthenticator::`vector deleting destructor'(unsigned int)
PUBLIC 73410 0 QSocks5SocketEngine::`vector deleting destructor'(unsigned int)
PUBLIC 73430 0 QSocks5SocketEnginePrivate::`vector deleting destructor'(unsigned int)
PUBLIC 73450 0 QSocks5SocketEnginePrivate::_q_controlSocketBytesWritten()
PUBLIC 734a0 0 QSocks5SocketEnginePrivate::_q_controlSocketConnected()
PUBLIC 73610 0 QSocks5SocketEnginePrivate::_q_controlSocketError(QAbstractSocket::SocketError)
PUBLIC 73730 0 QSocks5SocketEnginePrivate::_q_controlSocketReadNotification()
PUBLIC 73830 0 QSocks5SocketEnginePrivate::_q_emitPendingConnectionNotification()
PUBLIC 73840 0 QSocks5SocketEnginePrivate::_q_emitPendingReadNotification()
PUBLIC 738d0 0 QSocks5SocketEnginePrivate::_q_emitPendingWriteNotification()
PUBLIC 738f0 0 QSocks5SocketEnginePrivate::_q_udpSocketReadNotification()
PUBLIC 73c80 0 QSocks5SocketEngine::accept()
PUBLIC 73dd0 0 QSocks5BindStore::add(int,QSocks5BindData *)
PUBLIC 73e60 0 QSocks5Authenticator::beginAuthenticate(QTcpSocket *,bool *)
PUBLIC 73e70 0 QSocks5PasswordAuthenticator::beginAuthenticate(QTcpSocket *,bool *)
PUBLIC 74070 0 QSocks5SocketEngine::bind(QHostAddress const &,unsigned short)
PUBLIC 74530 0 QSocks5SocketEngine::bytesAvailable()
PUBLIC 74590 0 QSocks5SocketEngine::bytesToWrite()
PUBLIC 745b0 0 QSocks5SocketEngine::close()
PUBLIC 74680 0 QSocks5SocketEngine::connectInternal()
PUBLIC 74820 0 QSocks5SocketEngine::connectToHost(QHostAddress const &,unsigned short)
PUBLIC 74890 0 QSocks5SocketEngine::connectToHostByName(QString const &,unsigned short)
PUBLIC 748e0 0 QSocks5PasswordAuthenticator::continueAuthenticate(QTcpSocket *,bool *)
PUBLIC 74980 0 QSocks5SocketEngineHandler::createSocketEngine(int,QObject *)
PUBLIC 74a40 0 QSocks5SocketEngineHandler::createSocketEngine(QAbstractSocket::SocketType,QNetworkProxy const &,QObject *)
PUBLIC 74ac0 0 QHash<int,QSockNot *>::detach()
PUBLIC 74b20 0 QList<QSocks5RevivedDatagram>::detach_helper(int)
PUBLIC 74ba0 0 QList<QSocks5RevivedDatagram>::detach_helper_grow(int,int)
PUBLIC 74c70 0 QSocks5SocketEnginePrivate::emitConnectionNotification()
PUBLIC 74cc0 0 QSocks5SocketEnginePrivate::emitReadNotification()
PUBLIC 74d20 0 QSocks5SocketEnginePrivate::emitWriteNotification()
PUBLIC 74d80 0 QList<QSocks5RevivedDatagram>::erase(QList<QSocks5RevivedDatagram>::iterator)
PUBLIC 74e30 0 QSocks5Authenticator::errorString()
PUBLIC 74e40 0 QSocks5PasswordAuthenticator::errorString()
PUBLIC 74e60 0 QSocks5SocketEngine::hasPendingDatagrams()
PUBLIC 74ea0 0 QSocks5SocketEngine::initialize(int,QAbstractSocket::SocketState)
PUBLIC 750f0 0 QSocks5SocketEngine::initialize(QAbstractSocket::SocketType,QAbstractSocket::NetworkLayerProtocol)
PUBLIC 75120 0 QSocks5SocketEnginePrivate::initialize(QSocks5SocketEnginePrivate::Socks5Mode)
PUBLIC 75740 0 `anonymous namespace'::Q_QGS_socks5BindStore::innerFunction()
PUBLIC 757d0 0 QHash<int,QSockNot *>::insert(int const &,QSockNot * const &)
PUBLIC 758d0 0 QSocks5SocketEngine::isExceptionNotificationEnabled()
PUBLIC 758e0 0 QSocks5SocketEngine::isReadNotificationEnabled()
PUBLIC 758f0 0 QSocks5SocketEngine::isValid()
PUBLIC 75920 0 QSocks5SocketEngine::isWriteNotificationEnabled()
PUBLIC 75930 0 QSocks5SocketEngine::listen()
PUBLIC 75960 0 QSocks5PasswordAuthenticator::methodId()
PUBLIC 75970 0 QHttpSocketEngine::multicastInterface()
PUBLIC 75980 0 QList<QSocks5RevivedDatagram>::node_construct(QList<QSocks5RevivedDatagram>::Node *,QSocks5RevivedDatagram const &)
PUBLIC 759e0 0 QList<QSocks5RevivedDatagram>::node_copy(QList<QSocks5RevivedDatagram>::Node *,QList<QSocks5RevivedDatagram>::Node *,QList<QSocks5RevivedDatagram>::Node *)
PUBLIC 75a60 0 QList<QSocks5RevivedDatagram>::node_destruct(QList<QSocks5RevivedDatagram>::Node *,QList<QSocks5RevivedDatagram>::Node *)
PUBLIC 75ac0 0 QSocks5SocketEngine::option(QAbstractSocketEngine::SocketOption)
PUBLIC 75b30 0 QSocks5SocketEnginePrivate::parseAuthenticatingReply()
PUBLIC 75b80 0 QSocks5SocketEnginePrivate::parseAuthenticationMethodReply()
PUBLIC 75d60 0 QSocks5SocketEnginePrivate::parseRequestMethodReply()
PUBLIC 760c0 0 QSocks5SocketEngine::pendingDatagramSize()
PUBLIC 76560 0 QSocks5SocketEngine::read(char *,__int64)
PUBLIC 766a0 0 QSocks5SocketEngine::readDatagram(char *,__int64,QHostAddress *,unsigned short *)
PUBLIC 76790 0 QSocks5SocketEnginePrivate::reauthenticate()
PUBLIC 76c00 0 QSocks5BindStore::retrieve(int)
PUBLIC 76cc0 0 QSocks5SocketEnginePrivate::sendRequestMethod()
PUBLIC 76f30 0 QSocks5SocketEnginePrivate::setErrorState(QSocks5SocketEnginePrivate::Socks5State,QString const &)
PUBLIC 771f0 0 QSocks5SocketEnginePrivate::setErrorState(QSocks5SocketEnginePrivate::Socks5State,QSocks5SocketEnginePrivate::Socks5Error)
PUBLIC 774d0 0 QSocks5SocketEngine::setExceptionNotificationEnabled(bool)
PUBLIC 774e0 0 QSocks5SocketEngine::setOption(QAbstractSocketEngine::SocketOption,int)
PUBLIC 77560 0 QSocks5SocketEngine::setReadNotificationEnabled(bool)
PUBLIC 775e0 0 QSocks5SocketEngine::setWriteNotificationEnabled(bool)
PUBLIC 77620 0 QSocks5SocketEngine::socketDescriptor()
PUBLIC 77630 0 QHash<int,QSocks5BindData *>::take(int const &)
PUBLIC 776d0 0 QList<QSocks5RevivedDatagram>::takeFirst()
PUBLIC 77760 0 QSocks5BindStore::timerEvent(QTimerEvent *)
PUBLIC 77860 0 QSocks5Authenticator::unSeal(QTcpSocket *,QByteArray *)
PUBLIC 77890 0 QSocks5Authenticator::seal(QByteArray,QByteArray *)
PUBLIC 778e0 0 QSocks5SocketEnginePrivate::waitForConnected(int,bool *)
PUBLIC 77b30 0 QSocks5SocketEngine::waitForRead(int,bool *)
PUBLIC 77d10 0 QHttpSocketEngine::waitForReadOrWrite(bool *,bool *,bool,bool,int,bool *)
PUBLIC 77d50 0 QSocks5SocketEngine::waitForWrite(int,bool *)
PUBLIC 77ec0 0 QSocks5SocketEngine::write(char const *,__int64)
PUBLIC 78070 0 QSocks5SocketEngine::writeDatagram(char const *,__int64,QHostAddress const &,unsigned short)
PUBLIC 78420 0 QConcatenable<QStringBuilder<QStringBuilder<QByteArray,char const [3]>,QByteArray> >::appendTo<char>(QStringBuilder<QStringBuilder<QByteArray,char const [3]>,QByteArray> const &,char * &)
PUBLIC 78480 0 QConcatenable<QStringBuilder<QByteArray,char const [3]> >::appendTo<char>(QStringBuilder<QByteArray,char const [3]> const &,char * &)
PUBLIC 784f0 0 QtStringBuilder::appendToByteArray<char const [22],QByteArray>(QByteArray &,QStringBuilder<char const [22],QByteArray> const &,char)
PUBLIC 78570 0 QtStringBuilder::appendToByteArray<QStringBuilder<QStringBuilder<QByteArray,char const [3]>,QByteArray>,char const [3]>(QByteArray &,QStringBuilder<QStringBuilder<QStringBuilder<QByteArray,char const [3]>,QByteArray>,char const [3]> const &,char)
PUBLIC 78620 0 QHttpSocketEngine::QHttpSocketEngine(QObject *)
PUBLIC 78660 0 QHttpSocketEnginePrivate::QHttpSocketEnginePrivate()
PUBLIC 786d0 0 QHttpSocketEnginePrivate::~QHttpSocketEnginePrivate()
PUBLIC 78760 0 QHttpSocketEngine::`vector deleting destructor'(unsigned int)
PUBLIC 78790 0 QHttpSocketEnginePrivate::`vector deleting destructor'(unsigned int)
PUBLIC 787b0 0 QHttpSocketEngine::bytesAvailable()
PUBLIC 787e0 0 QHttpSocketEngine::bytesToWrite()
PUBLIC 78800 0 QHttpSocketEngine::close()
PUBLIC 78830 0 QHttpSocketEngine::connectInternal()
PUBLIC 78950 0 QHttpSocketEngine::connectToHost(QHostAddress const &,unsigned short)
PUBLIC 789b0 0 QHttpSocketEngine::connectToHostByName(QString const &,unsigned short)
PUBLIC 78a00 0 QHttpSocketEngineHandler::createSocketEngine(QAbstractSocket::SocketType,QNetworkProxy const &,QObject *)
PUBLIC 78a70 0 QHttpSocketEngine::emitConnectionNotification()
PUBLIC 78ac0 0 QHttpSocketEngine::emitPendingConnectionNotification()
PUBLIC 78ad0 0 QHttpSocketEngine::emitPendingReadNotification()
PUBLIC 78af0 0 QHttpSocketEngine::emitPendingWriteNotification()
PUBLIC 78b10 0 QHttpSocketEngine::emitReadNotification()
PUBLIC 78b80 0 QHttpSocketEngine::emitWriteNotification()
PUBLIC 78be0 0 QHttpSocketEngine::bind(QHostAddress const &,unsigned short)
PUBLIC 78bf0 0 QHttpSocketEngine::initialize(QAbstractSocket::SocketType,QAbstractSocket::NetworkLayerProtocol)
PUBLIC 78e70 0 QHttpSocketEngine::isExceptionNotificationEnabled()
PUBLIC 78e80 0 QHttpSocketEngine::isReadNotificationEnabled()
PUBLIC 78e90 0 QHttpSocketEngine::isValid()
PUBLIC 78ea0 0 QHttpSocketEngine::isWriteNotificationEnabled()
PUBLIC 78eb0 0 QHttpSocketEngine::joinMulticastGroup(QHostAddress const &,QNetworkInterface const &)
PUBLIC 78f10 0 QHttpSocketEngine::option(QAbstractSocketEngine::SocketOption)
PUBLIC 78f70 0 QHttpSocketEngine::read(char *,__int64)
PUBLIC 79040 0 QHttpSocketEngine::readHttpHeader()
PUBLIC 791d0 0 QHttpSocketEngine::setExceptionNotificationEnabled(bool)
PUBLIC 791e0 0 QHttpSocketEngine::setMulticastInterface(QNetworkInterface const &)
PUBLIC 79240 0 QHttpSocketEngine::setOption(QAbstractSocketEngine::SocketOption,int)
PUBLIC 792b0 0 QHttpSocketEngine::setProxy(QNetworkProxy const &)
PUBLIC 79370 0 QHttpSocketEngine::setReadNotificationEnabled(bool)
PUBLIC 793b0 0 QHttpSocketEngine::setWriteNotificationEnabled(bool)
PUBLIC 79420 0 QHttpSocketEngine::slotSocketBytesWritten()
PUBLIC 79440 0 QHttpSocketEngine::slotSocketConnected()
PUBLIC 79a40 0 QHttpSocketEngine::slotSocketError(QAbstractSocket::SocketError)
PUBLIC 79c20 0 QHttpSocketEngine::slotSocketReadNotification()
PUBLIC 7a210 0 QHttpSocketEngine::socketDescriptor()
PUBLIC 7a230 0 QHttpSocketEngine::waitForRead(int,bool *)
PUBLIC 7a360 0 QHttpSocketEngine::waitForWrite(int,bool *)
PUBLIC 7a440 0 QHttpSocketEngine::write(char const *,__int64)
PUBLIC 7a460 0 QHttpSocketEngine::readDatagram(char *,__int64,QHostAddress *,unsigned short *)
PUBLIC 7a470 0 QHostInfoLookupManager::qt_static_metacall(QObject *,QMetaObject::Call,int,void * *)
PUBLIC 7a490 0 QHostInfoResult::qt_static_metacall(QObject *,QMetaObject::Call,int,void * *)
PUBLIC 7a540 0 QAbstractHostInfoLookupManager::metaObject()
PUBLIC 7a560 0 QHostInfoLookupManager::metaObject()
PUBLIC 7a580 0 QHostInfoResult::metaObject()
PUBLIC 7a5a0 0 QHostInfoLookupManager::qt_metacall(QMetaObject::Call,int,void * *)
PUBLIC 7a600 0 QHostInfoResult::qt_metacall(QMetaObject::Call,int,void * *)
PUBLIC 7a650 0 QAbstractHostInfoLookupManager::qt_metacast(char const *)
PUBLIC 7a6b0 0 QHostInfoLookupManager::qt_metacast(char const *)
PUBLIC 7a710 0 QHostInfoResult::qt_metacast(char const *)
PUBLIC 7a770 0 QHostInfoResult::resultsReady(QHostInfo const &)
PUBLIC 7a7a0 0 QList<QHostAddress>::contains(QHostAddress const &)
PUBLIC 7a7f0 0 QHostInfoAgent::fromName(QString const &)
PUBLIC 7b1c0 0 operator<<<QString>(QDebug,QList<QString> const &)
PUBLIC 7b2e0 0 QSslCertificate::QSslCertificate(QSslCertificate const &)
PUBLIC 7b300 0 QSslCertificate::QSslCertificate(QByteArray const &,QSsl::EncodingFormat)
PUBLIC 7b390 0 QSslCertificatePrivate::QSslCertificatePrivate()
PUBLIC 7b3e0 0 QMap<QByteArray,QString>::~QMap<QByteArray,QString>()
PUBLIC 7b430 0 QSslCertificate::~QSslCertificate()
PUBLIC 7b460 0 QSslCertificatePrivate::~QSslCertificatePrivate()
PUBLIC 7b560 0 QSslCertificate::operator=(QSslCertificate const &)
PUBLIC 7b5c0 0 QString::operator=(QLatin1String)
PUBLIC 7b630 0 QSslCertificate::clear()
PUBLIC 7b6a0 0 QMapNode<QByteArray,QString>::destroySubTree()
PUBLIC 7b710 0 QSslCertificate::isBlacklisted()
PUBLIC 7b720 0 QSslCertificatePrivate::isBlacklisted(QSslCertificate const &)
PUBLIC 7b960 0 QSslCertificatePrivate::subjectInfoToString(QSslCertificate::SubjectInfo)
PUBLIC 7bb20 0 QStringBuilder<QStringBuilder<char const [29],QByteArray>,char const [27]>::convertTo<QByteArray>()
PUBLIC 7bb90 0 QMap<QByteArray,QString>::QMap<QByteArray,QString>(QMap<QByteArray,QString> const &)
PUBLIC 7bc00 0 QList<QVariant>::~QList<QVariant>()
PUBLIC 7bc30 0 QMap<QByteArray,QString>::operator=(QMap<QByteArray,QString> const &)
PUBLIC 7bca0 0 QSslCertificatePrivate::operator=(QSslCertificatePrivate const &)
PUBLIC 7bd10 0 QSslCertificate::operator==(QSslCertificate const &)
PUBLIC 7bd60 0 QSslCertificatePrivate::QByteArray_from_X509(x509_st *,QSsl::EncodingFormat)
PUBLIC 7c110 0 QSslCertificatePrivate::QSslCertificate_from_X509(x509_st *)
PUBLIC 7c3a0 0 QList<QVariant>::append(QVariant const &)
PUBLIC 7c410 0 QSslCertificatePrivate::certificatesFromDer(QByteArray const &,int)
PUBLIC 7c510 0 QSslCertificatePrivate::certificatesFromPem(QByteArray const &,int)
PUBLIC 7c740 0 QMapNode<QByteArray,QByteArray>::copy(QMapData<QByteArray,QByteArray> *)
PUBLIC 7c800 0 QMapNode<QString,QVariant>::copy(QMapData<QString,QVariant> *)
PUBLIC 7c8b0 0 QMapNode<QSsl::AlternativeNameEntryType,QString>::copy(QMapData<QSsl::AlternativeNameEntryType,QString> *)
PUBLIC 7c960 0 QList<QVariant>::dealloc(QListData::Data *)
PUBLIC 7c9b0 0 QMapNode<QString,QVariant>::destroySubTree()
PUBLIC 7ca00 0 QList<QSslCertificate>::detach_helper(int)
PUBLIC 7caa0 0 QMap<QByteArray,QString>::detach_helper()
PUBLIC 7cb20 0 QMap<QSsl::AlternativeNameEntryType,QString>::detach_helper()
PUBLIC 7cba0 0 QList<QVariant>::detach_helper_grow(int,int)
PUBLIC 7cc50 0 QSslCertificate::expiryDate()
PUBLIC 7cc70 0 QSslCertificatePrivate::init(QByteArray const &,QSsl::EncodingFormat)
PUBLIC 7cd40 0 QMap<QByteArray,QString>::insertMulti(QByteArray const &,QString const &)
PUBLIC 7ce00 0 QMap<QSsl::AlternativeNameEntryType,QString>::insertMulti(QSsl::AlternativeNameEntryType const &,QString const &)
PUBLIC 7cea0 0 QSslCertificate::issuerInfo(QSslCertificate::SubjectInfo)
PUBLIC 7cfc0 0 QMapNode<QByteArray,QString>::lowerBound(QByteArray const &)
PUBLIC 7d070 0 QList<QVariant>::node_copy(QList<QVariant>::Node *,QList<QVariant>::Node *,QList<QVariant>::Node *)
PUBLIC 7d0b0 0 QSslCertificate::serialNumber()
PUBLIC 7d250 0 QSslCertificate::subjectAlternativeNames()
PUBLIC 7d4e0 0 QSslCertificate::subjectInfo(QSslCertificate::SubjectInfo)
PUBLIC 7d600 0 QSslCertificate::toDer()
PUBLIC 7d670 0 QMap<QByteArray,QString>::values(QByteArray const &)
PUBLIC 7d760 0 QForeachContainer<QList<QSslCipher> >::QForeachContainer<QList<QSslCipher> >(QList<QSslCipher> const &)
PUBLIC 7d7e0 0 QSslCipher::QSslCipher(QSslCipher const &)
PUBLIC 7d860 0 QSslCipher::QSslCipher()
PUBLIC 7d8c0 0 QSslCipher::~QSslCipher()
PUBLIC 7d8e0 0 QSslCipherPrivate::~QSslCipherPrivate()
PUBLIC 7d9c0 0 QSslCipher::operator=(QSslCipher const &)
PUBLIC 7d9e0 0 QSslCipherPrivate::operator=(QSslCipherPrivate const &)
PUBLIC 7da50 0 QSslCipher::operator==(QSslCipher const &)
PUBLIC 7da90 0 QSslCertificate::isNull()
PUBLIC 7daa0 0 QSslCipher::name()
PUBLIC 7dad0 0 QSslCipher::usedBits()
PUBLIC 7dae0 0 QSslKey::QSslKey(QSslKey const &)
PUBLIC 7db00 0 QSslKey::QSslKey()
PUBLIC 7db60 0 QMap<QByteArray,QByteArray>::~QMap<QByteArray,QByteArray>()
PUBLIC 7dbb0 0 QSslKey::~QSslKey()
PUBLIC 7dbe0 0 QSslKey::operator=(QSslKey const &)
PUBLIC 7dc40 0 QSslKey::operator==(QSslKey const &)
PUBLIC 7dd40 0 QSslKey::algorithm()
PUBLIC 7dd50 0 QSslKeyPrivate::derFromPem(QByteArray const &,QMap<QByteArray,QByteArray> *)
PUBLIC 7e240 0 QMapNode<QByteArray,QByteArray>::destroySubTree()
PUBLIC 7e2b0 0 QMap<QByteArray,QByteArray>::detach_helper()
PUBLIC 7e330 0 QSslKey::handle()
PUBLIC 7e340 0 QMap<QByteArray,QByteArray>::insert(QByteArray const &,QByteArray const &)
PUBLIC 7e400 0 QSslKey::toDer(QByteArray const &)
PUBLIC 7e4a0 0 QForeachContainer<QList<QSslCertificate> >::QForeachContainer<QList<QSslCertificate> >(QList<QSslCertificate> const &)
PUBLIC 7e520 0 QList<QPair<int,int> >::QList<QPair<int,int> >(QList<QPair<int,int> > const &)
PUBLIC 7e590 0 QSharedPointer<QSslContext>::QSharedPointer<QSslContext>(QSslContext *)
PUBLIC 7e5f0 0 QOpenSslLocks::QOpenSslLocks()
PUBLIC 7e670 0 QSslSocketBackendPrivate::QSslSocketBackendPrivate()
PUBLIC 7e6d0 0 QWindowsCaRootFetcherThread::QWindowsCaRootFetcherThread()
PUBLIC 7e740 0 QOpenSslLocks::~QOpenSslLocks()
PUBLIC 7e7e0 0 QList<QPair<int,int> >::operator+=(QList<QPair<int,int> > const &)
PUBLIC 7e87b 0 [thunk]:QSslSocketBackendPrivate::`vector deleting destructor'`adjustor{136}' (unsigned int)
PUBLIC 7e890 0 QSslSocketBackendPrivate::`vector deleting destructor'(unsigned int)
PUBLIC 7e8d0 0 QWindowsCaRootFetcher::`vector deleting destructor'(unsigned int)
PUBLIC 7e900 0 QWindowsCaRootFetcherThread::`vector deleting destructor'(unsigned int)
PUBLIC 7e940 0 QSslSocketBackendPrivate::QSslCipher_from_SSL_CIPHER(ssl_cipher_st *)
PUBLIC 7ed90 0 QSslSocketBackendPrivate::STACKOFX509_to_QSslCertificates(stack_st_X509 *)
PUBLIC 7f1c0 0 QSslSocketBackendPrivate::_q_caRootLoaded(QSslCertificate,QSslCertificate)
PUBLIC 7f2d0 0 QList<QPair<int,int> >::append(QPair<int,int> const &)
PUBLIC 7f340 0 QSslSocketBackendPrivate::checkSslErrors()
PUBLIC 7f420 0 QSharedPointer<QNetworkSession>::clear()
PUBLIC 7f460 0 QSslSocketBackendPrivate::continueHandshake()
PUBLIC 7f650 0 QtSharedPointer::ExternalRefCountWithCustomDeleter<QSslContext,QtSharedPointer::NormalDeleter>::deleter(QtSharedPointer::ExternalRefCountData *)
PUBLIC 7f670 0 QSslSocketBackendPrivate::destroySslContext()
PUBLIC 7f6e0 0 QList<QPair<int,int> >::detach_helper_grow(int,int)
PUBLIC 7f7d0 0 QList<QSslError>::detach_helper_grow(int,int)
PUBLIC 7f8e0 0 QSslSocketBackendPrivate::disconnectFromHost()
PUBLIC 7f920 0 QSslSocketBackendPrivate::disconnected()
PUBLIC 7f950 0 QSslSocketPrivate::ensureCiphersAndCertsLoaded()
PUBLIC 7fa80 0 QSslSocketPrivate::ensureInitialized()
PUBLIC 7fa90 0 QSslSocketPrivate::ensureLibraryLoaded()
PUBLIC 7fbb0 0 QSslSocketBackendPrivate::fetchCaRootForCert(QSslCertificate const &)
PUBLIC 7fc90 0 QSslSocketBackendPrivate::getErrorsFromOpenSsl()
PUBLIC 7fd50 0 QSslSocketBackendPrivate::initSslContext()
PUBLIC 802c0 0 `anonymous namespace'::Q_QGS__q_sslErrorList::innerFunction()
PUBLIC 80360 0 `anonymous namespace'::Q_QGS_openssl_locks::innerFunction()
PUBLIC 803f0 0 `anonymous namespace'::Q_QGS_windowsCaRootFetcherThread::innerFunction()
PUBLIC 80480 0 QOpenSslLocks::lock(int)
PUBLIC 804f0 0 QList<QPair<int,int> >::node_copy(QList<QPair<int,int> >::Node *,QList<QPair<int,int> >::Node *,QList<QPair<int,int> >::Node *)
PUBLIC 80540 0 q_X509Callback(int,x509_store_ctx_st *)
PUBLIC 805a0 0 QVarLengthArray<char,4096>::realloc(int,int)
PUBLIC 80630 0 QList<QSslError>::removeAt(int)
PUBLIC 80680 0 QSslSocketPrivate::resetDefaultCiphers()
PUBLIC 808b0 0 QSslSocketBackendPrivate::sessionCipher()
PUBLIC 80940 0 QSslSocketBackendPrivate::sessionProtocol()
PUBLIC 80990 0 QSslSocketBackendPrivate::setupOpenSslOptions(QSsl::SslProtocol,QFlags<QSsl::SslOption>)
PUBLIC 809f0 0 QWindowsCaRootFetcher::start()
PUBLIC 80c10 0 QSslSocketBackendPrivate::startClientEncryption()
PUBLIC 80d30 0 QSslSocketBackendPrivate::startHandshake()
PUBLIC 81980 0 QSslSocketPrivate::supportsSsl()
PUBLIC 81990 0 QSslSocketPrivate::systemCaCertificates()
PUBLIC 81ae0 0 QSslSocketBackendPrivate::transmit()
PUBLIC 82540 0 QNetworkAccessCache::qt_static_metacall(QObject *,QMetaObject::Call,int,void * *)
PUBLIC 825f0 0 QtMetaTypePrivate::QMetaTypeFunctionHelper<int,1>::Create(void const *)
PUBLIC 82620 0 QNetworkAccessCache::entryReady(QNetworkAccessCache::CacheableObject *)
PUBLIC 82650 0 QNetworkAccessCache::metaObject()
PUBLIC 82670 0 QNetworkAccessCache::qt_metacall(QMetaObject::Call,int,void * *)
PUBLIC 826d0 0 QNetworkAccessCache::qt_metacast(char const *)
PUBLIC 82730 0 QMetaTypeId<QNetworkAccessCache::CacheableObject *>::qt_metatype_id()
PUBLIC 827c0 0 QNetworkCacheMetaData::QNetworkCacheMetaData()
PUBLIC 82820 0 QNetworkCacheMetaDataPrivate::QNetworkCacheMetaDataPrivate(QNetworkCacheMetaDataPrivate const &)
PUBLIC 828e0 0 QNetworkCacheMetaDataPrivate::QNetworkCacheMetaDataPrivate()
PUBLIC 82920 0 QNetworkCacheMetaData::~QNetworkCacheMetaData()
PUBLIC 82950 0 QNetworkCacheMetaDataPrivate::~QNetworkCacheMetaDataPrivate()
PUBLIC 829e0 0 QHash<QNetworkRequest::Attribute,QVariant>::operator=(QHash<QNetworkRequest::Attribute,QVariant> const &)
PUBLIC 82a50 0 QNetworkCacheMetaData::operator=(QNetworkCacheMetaData const &)
PUBLIC 82aa0 0 QNetworkCacheMetaData::operator==(QNetworkCacheMetaData const &)
PUBLIC 82ad0 0 QNetworkCacheMetaDataPrivate::operator==(QNetworkCacheMetaDataPrivate const &)
PUBLIC 82b30 0 QNetworkCacheMetaData::attributes()
PUBLIC 82b70 0 QSharedDataPointer<QNetworkCacheMetaDataPrivate>::detach_helper()
PUBLIC 82bd0 0 QNetworkCacheMetaData::expirationDate()
PUBLIC 82bf0 0 `anonymous namespace'::Q_QGS_metadata_shared_invalid::innerFunction()
PUBLIC 82c80 0 QNetworkCacheMetaData::isValid()
PUBLIC 82d00 0 QNetworkCacheMetaData::lastModified()
PUBLIC 82d20 0 QNetworkCacheMetaData::rawHeaders()
PUBLIC 82d90 0 QNetworkCacheMetaData::saveToDisk()
PUBLIC 82da0 0 QNetworkCacheMetaData::setAttributes(QHash<QNetworkRequest::Attribute,QVariant> const &)
PUBLIC 82dd0 0 QNetworkCacheMetaData::setExpirationDate(QDateTime const &)
PUBLIC 82e00 0 QNetworkCacheMetaData::setLastModified(QDateTime const &)
PUBLIC 82e30 0 QNetworkCacheMetaData::setRawHeaders(QList<QPair<QByteArray,QByteArray> > const &)
PUBLIC 82e60 0 QNetworkCacheMetaData::setSaveToDisk(bool)
PUBLIC 82e90 0 QNetworkCacheMetaData::setUrl(QUrl const &)
PUBLIC 82f70 0 QNetworkAccessBackend::qt_static_metacall(QObject *,QMetaObject::Call,int,void * *)
PUBLIC 83120 0 QtMetaTypePrivate::QMetaTypeFunctionHelper<signed char,1>::Delete(void *)
PUBLIC 83130 0 QNetworkAccessBackend::metaObject()
PUBLIC 83150 0 QNetworkAccessBackend::qt_metacall(QMetaObject::Call,int,void * *)
PUBLIC 831a0 0 QNetworkAccessBackend::qt_metacast(char const *)
PUBLIC 83200 0 QMetaTypeIdQObject<QIODevice *,1>::qt_metatype_id()
PUBLIC 832d0 0 QNetworkCookieJar::metaObject()
PUBLIC 832f0 0 QNetworkCookieJar::qt_metacast(char const *)
PUBLIC 83350 0 QFtpDTP::qt_static_metacall(QObject *,QMetaObject::Call,int,void * *)
PUBLIC 834c0 0 QFtpPI::qt_static_metacall(QObject *,QMetaObject::Call,int,void * *)
PUBLIC 83640 0 QFtp::qt_static_metacall(QObject *,QMetaObject::Call,int,void * *)
PUBLIC 83830 0 operator+=<QLatin1Char,QString>(QString &,QStringBuilder<QLatin1Char,QString> const &)
PUBLIC 83900 0 operator+=<QStringBuilder<QStringBuilder<QLatin1Char,QString>,QLatin1Char>,QString>(QString &,QStringBuilder<QStringBuilder<QStringBuilder<QLatin1Char,QString>,QLatin1Char>,QString> const &)
PUBLIC 839d0 0 QConcatenable<QStringBuilder<QStringBuilder<QStringBuilder<QLatin1Char,QString>,QLatin1Char>,QString> >::appendTo<QChar>(QStringBuilder<QStringBuilder<QStringBuilder<QLatin1Char,QString>,QLatin1Char>,QString> const &,QChar * &)
PUBLIC 83a50 0 QConcatenable<QStringBuilder<QStringBuilder<QStringBuilder<QStringBuilder<QStringBuilder<QStringBuilder<QString,QLatin1Char>,QString>,QLatin1Char>,QString>,QLatin1Char>,QString> >::appendTo<QChar>(QStringBuilder<QStringBuilder<QStringBuilder<QStringBuilder<QStringBuilder<QStringBuilder<QString,QLatin1Char>,QString>,QLatin1Char>,QString>,QLatin1Char>,QString> const &,QChar * &)
PUBLIC 83ac0 0 QConcatenable<QStringBuilder<QStringBuilder<QStringBuilder<QLatin1String,QString>,QLatin1Char>,QString> >::appendTo<QChar>(QStringBuilder<QStringBuilder<QStringBuilder<QLatin1String,QString>,QLatin1Char>,QString> const &,QChar * &)
PUBLIC 83b40 0 QConcatenable<QStringBuilder<QStringBuilder<QStringBuilder<QString,QLatin1Char>,QString>,QLatin1Char> >::appendTo<QChar>(QStringBuilder<QStringBuilder<QStringBuilder<QString,QLatin1Char>,QString>,QLatin1Char> const &,QChar * &)
PUBLIC 83bc0 0 QStringBuilder<QStringBuilder<QLatin1String,QString>,QLatin1String>::convertTo<QString>()
PUBLIC 83c60 0 QStringBuilder<QString,QLatin1String>::convertTo<QString>()
PUBLIC 83cd0 0 QFtp::QFtp(QObject *)
PUBLIC 83e70 0 QFtpCommand::QFtpCommand(QFtp::Command,QStringList,QIODevice *)
PUBLIC 83f40 0 QFtpDTP::QFtpDTP(QFtpPI *,QObject *)
PUBLIC 84010 0 QFtpPI::QFtpPI(QObject *)
PUBLIC 841a0 0 QFtpPrivate::QFtpPrivate()
PUBLIC 84210 0 QFtp::~QFtp()
PUBLIC 84250 0 QFtpCommand::~QFtpCommand()
PUBLIC 842e0 0 QFtpDTP::~QFtpDTP()
PUBLIC 84350 0 QFtpPI::~QFtpPI()
PUBLIC 84430 0 QFtpPrivate::~QFtpPrivate()
PUBLIC 84680 0 QCharRef::operator=(unsigned short)
PUBLIC 846d0 0 QStringBuilder<QStringBuilder<QStringBuilder<QLatin1String,QString>,QLatin1Char>,QString>::operator QString()
PUBLIC 84730 0 QStringBuilder<QString,QLatin1String>::operator QString()
PUBLIC 84740 0 QFtp::`vector deleting destructor'(unsigned int)
PUBLIC 84790 0 QFtpDTP::`vector deleting destructor'(unsigned int)
PUBLIC 847b0 0 QFtpPI::`vector deleting destructor'(unsigned int)
PUBLIC 847d0 0 QFtpPrivate::`vector deleting destructor'(unsigned int)
PUBLIC 85330 0 QFtpPrivate::_q_piConnectState(int)
PUBLIC 853d0 0 QFtpPrivate::_q_piError(int,QString const &)
PUBLIC 85a00 0 QFtpPrivate::_q_piFinished(QString const &)
PUBLIC 85b60 0 QFtpPrivate::_q_piFtpReply(int,QString const &)
PUBLIC 85bf0 0 QFtpPrivate::_q_startNextCommand()
PUBLIC 861f0 0 QFtp::abort()
PUBLIC 86220 0 QFtpPI::abort()
PUBLIC 86300 0 QFtpPrivate::addCommand(QFtpCommand *)
PUBLIC 86370 0 QFtp::bytesAvailable()
PUBLIC 863a0 0 QList<QString>::clear()
PUBLIC 863f0 0 QFtpDTP::clearError()
PUBLIC 86430 0 QFtp::clearPendingCommands()
PUBLIC 865d0 0 QFtpPI::clearPendingCommands()
PUBLIC 86680 0 QFtp::close()
PUBLIC 86720 0 QFtp::commandFinished(int,bool)
PUBLIC 86770 0 QFtp::commandStarted(int)
PUBLIC 867a0 0 QFtpDTP::connectState(int)
PUBLIC 867d0 0 QFtpPI::connectState(int)
PUBLIC 86800 0 QFtp::connectToHost(QString const &,unsigned short)
PUBLIC 86900 0 QFtpDTP::connectToHost(QString const &,unsigned short)
PUBLIC 86aa0 0 QFtpPI::connectToHost(QString const &,unsigned short)
PUBLIC 86b50 0 QFtpPI::connected()
PUBLIC 86bc0 0 QFtpPI::connectionClosed()
PUBLIC 86c10 0 QFtp::currentId()
PUBLIC 86c30 0 QFtp::dataTransferProgress(__int64,__int64)
PUBLIC 86c80 0 QFtpDTP::dataTransferProgress(__int64,__int64)
PUBLIC 86cd0 0 QFtpPI::delayedCloseFinished()
PUBLIC 86d00 0 QFtp::done(bool)
PUBLIC 86d30 0 QFtpPI::dtpConnectState(int)
PUBLIC 86e50 0 QFtp::error()
PUBLIC 86e70 0 QFtpPI::error(QAbstractSocket::SocketError)
PUBLIC 87130 0 QFtpPI::error(int,QString const &)
PUBLIC 87180 0 QFtp::errorString()
PUBLIC 871b0 0 QFtpPI::finished(QString const &)
PUBLIC 871e0 0 QFtp::get(QString const &,QIODevice *,QFtp::TransferType)
PUBLIC 87460 0 QFtpPI::hostFound()
PUBLIC 87490 0 QFtp::listInfo(QUrlInfo const &)
PUBLIC 874c0 0 QFtpDTP::listInfo(QUrlInfo const &)
PUBLIC 874f0 0 QFtp::login(QString const &,QString const &)
PUBLIC 87800 0 QFtp::metaObject()
PUBLIC 87820 0 QFtpDTP::metaObject()
PUBLIC 87840 0 QFtpPI::metaObject()
PUBLIC 87860 0 QFtpDTP::parseDir(QByteArray const &,QString const &,QUrlInfo *)
PUBLIC 87a40 0 QList<QString>::pop_front()
PUBLIC 87a80 0 QList<QString>::prepend(QString const &)
PUBLIC 87af0 0 QFtpPI::processReply()
PUBLIC 88150 0 QFtp::put(QIODevice *,QString const &,QFtp::TransferType)
PUBLIC 88430 0 QFtp::qt_metacall(QMetaObject::Call,int,void * *)
PUBLIC 88490 0 QFtpDTP::qt_metacall(QMetaObject::Call,int,void * *)
PUBLIC 884e0 0 QFtpPI::qt_metacall(QMetaObject::Call,int,void * *)
PUBLIC 88530 0 QFtp::qt_metacast(char const *)
PUBLIC 88590 0 QFtpDTP::qt_metacast(char const *)
PUBLIC 885f0 0 QFtpPI::qt_metacast(char const *)
PUBLIC 88650 0 QFtp::rawCommand(QString const &)
PUBLIC 88790 0 QFtp::rawCommandReply(int,QString const &)
PUBLIC 887e0 0 QFtpPI::rawFtpReply(int,QString const &)
PUBLIC 88830 0 QFtp::readAll()
PUBLIC 88850 0 QFtpDTP::readAll()
PUBLIC 888e0 0 QFtp::readyRead()
PUBLIC 88900 0 QFtpDTP::readyRead()
PUBLIC 88920 0 QFtpPI::readyRead()
PUBLIC 89020 0 QList<QFtpCommand *>::removeFirst()
PUBLIC 89060 0 QString::reserve(int)
PUBLIC 890b0 0 QFtpPI::sendCommands(QStringList const &)
PUBLIC 891a0 0 QFtpDTP::setBytesTotal(__int64)
PUBLIC 89220 0 QFtp::setProxy(QString const &,unsigned short)
PUBLIC 89310 0 QFtpDTP::setupListener(QHostAddress const &)
PUBLIC 89380 0 QFtpDTP::setupSocket()
PUBLIC 894b0 0 QFtpDTP::socketBytesWritten(__int64)
PUBLIC 89540 0 QFtpDTP::socketConnected()
PUBLIC 89580 0 QFtpDTP::socketConnectionClosed()
PUBLIC 89620 0 QFtpDTP::socketError(QAbstractSocket::SocketError)
PUBLIC 89670 0 QFtpDTP::socketReadyRead()
PUBLIC 89ad0 0 QFtpPI::startNextCmd()
PUBLIC 89f90 0 QFtp::state()
PUBLIC 89fa0 0 QFtp::stateChanged(int)
PUBLIC 89fd0 0 QFtpDTP::waitForConnection()
PUBLIC 89ff0 0 QFtpDTP::writeData()
PUBLIC 8a160 0 QNetworkAccessFtpBackend::qt_static_metacall(QObject *,QMetaObject::Call,int,void * *)
PUBLIC 8a200 0 QNetworkAccessFtpBackend::metaObject()
PUBLIC 8a220 0 QNetworkAccessFtpBackend::qt_metacall(QMetaObject::Call,int,void * *)
PUBLIC 8a270 0 QNetworkAccessFtpBackend::qt_metacast(char const *)
PUBLIC 8a2d0 0 QNetworkAccessFileBackend::qt_static_metacall(QObject *,QMetaObject::Call,int,void * *)
PUBLIC 8a2f0 0 QNetworkAccessFileBackend::metaObject()
PUBLIC 8a310 0 QNetworkAccessFileBackend::qt_metacall(QMetaObject::Call,int,void * *)
PUBLIC 8a370 0 QNetworkAccessFileBackend::qt_metacast(char const *)
PUBLIC 8a3d0 0 QHttpNetworkHeaderPrivate::QHttpNetworkHeaderPrivate(QHttpNetworkHeaderPrivate const &)
PUBLIC 8a420 0 QHttpNetworkHeaderPrivate::QHttpNetworkHeaderPrivate(QUrl const &)
PUBLIC 8a450 0 QHttpNetworkHeaderPrivate::operator==(QHttpNetworkHeaderPrivate const &)
PUBLIC 8a470 0 QHttpNetworkHeaderPrivate::contentLength()
PUBLIC 8a530 0 QHttpNetworkHeaderPrivate::headerField(QByteArray const &,QByteArray const &)
PUBLIC 8a700 0 QHttpNetworkHeaderPrivate::headerFieldValues(QByteArray const &)
PUBLIC 8a7d0 0 QHttpNetworkHeaderPrivate::setContentLength(__int64)
PUBLIC 8a870 0 QHttpNetworkHeaderPrivate::setHeaderField(QByteArray const &,QByteArray const &)
PUBLIC 8aa60 0 QNetworkReplyHttpImpl::qt_static_metacall(QObject *,QMetaObject::Call,int,void * *)
PUBLIC 8af60 0 QNetworkReplyHttpImpl::abortHttpRequest()
PUBLIC 8af80 0 QNetworkReplyHttpImpl::haveUploadData(QByteArray,bool,__int64)
PUBLIC 8b000 0 QNetworkReplyHttpImpl::metaObject()
PUBLIC 8b020 0 QNetworkReplyHttpImpl::qt_metacall(QMetaObject::Call,int,void * *)
PUBLIC 8b070 0 QNetworkReplyHttpImpl::qt_metacast(char const *)
PUBLIC 8b0d0 0 QNetworkReplyHttpImpl::readBufferFreed(__int64)
PUBLIC 8b100 0 QNetworkReplyHttpImpl::readBufferSizeChanged(__int64)
PUBLIC 8b130 0 QNetworkReplyHttpImpl::startHttpRequest()
PUBLIC 8b150 0 QNetworkReplyHttpImpl::startHttpRequestSynchronously()
PUBLIC 8b170 0 QHttpThreadDelegate::QHttpThreadDelegate(QObject *)
PUBLIC 8b2b0 0 QNetworkAccessCachedHttpConnection::QNetworkAccessCachedHttpConnection(QString const &,unsigned short,bool,QHttpNetworkConnection::ConnectionType,QSharedPointer<QNetworkSession>)
PUBLIC 8b350 0 QHttpThreadDelegate::~QHttpThreadDelegate()
PUBLIC 8b5a7 0 [thunk]:QNetworkAccessCachedHttpConnection::`vector deleting destructor'`adjustor{8}' (unsigned int)
PUBLIC 8b5b0 0 QHttpThreadDelegate::`vector deleting destructor'(unsigned int)
PUBLIC 8b5d0 0 QNetworkAccessCachedHttpConnection::`vector deleting destructor'(unsigned int)
PUBLIC 8b600 0 QHttpThreadDelegate::abortRequest()
PUBLIC 8b680 0 QHttpThreadDelegate::cacheCredentialsSlot(QHttpNetworkRequest const &,QAuthenticator *)
PUBLIC 8b6b0 0 QHttpThreadDelegate::dataReadProgressSlot(__int64,__int64)
PUBLIC 8b6e0 0 QNetworkAccessCachedHttpConnection::dispose()
PUBLIC 8b700 0 QHttpThreadDelegate::encryptedSlot()
PUBLIC 8b710 0 QHttpThreadDelegate::finishedSlot()
PUBLIC 8b9a0 0 QHttpThreadDelegate::finishedWithErrorSlot(QNetworkReply::NetworkError,QString const &)
PUBLIC 8ba90 0 QHttpThreadDelegate::headerChangedSlot()
PUBLIC 8c190 0 QHttpThreadDelegate::readBufferFreed(__int64)
PUBLIC 8c1f0 0 QHttpThreadDelegate::readBufferSizeChanged(__int64)
PUBLIC 8c240 0 QHttpThreadDelegate::readyReadSlot()
PUBLIC 8c3b0 0 QHttpThreadDelegate::sslErrorsSlot(QList<QSslError> const &)
PUBLIC 8c430 0 QHttpThreadDelegate::startRequest()
PUBLIC 8ca60 0 QHttpThreadDelegate::startRequestSynchronously()
PUBLIC 8cd20 0 QHttpThreadDelegate::synchronousAuthenticationRequiredSlot(QHttpNetworkRequest const &,QAuthenticator *)
PUBLIC 8cdd0 0 QHttpThreadDelegate::synchronousFinishedSlot()
PUBLIC 8d030 0 QHttpThreadDelegate::synchronousFinishedWithErrorSlot(QNetworkReply::NetworkError,QString const &)
PUBLIC 8d0f0 0 QHttpThreadDelegate::synchronousHeaderChangedSlot()
PUBLIC 8d1f0 0 QHttpThreadDelegate::synchronousProxyAuthenticationRequiredSlot(QNetworkProxy const &,QAuthenticator *)
PUBLIC 8d280 0 QHttpThreadDelegate::qt_static_metacall(QObject *,QMetaObject::Call,int,void * *)
PUBLIC 8d800 0 QNonContiguousByteDeviceThreadForwardImpl::qt_static_metacall(QObject *,QMetaObject::Call,int,void * *)
PUBLIC 8d8d0 0 QHttpThreadDelegate::authenticationRequired(QHttpNetworkRequest const &,QAuthenticator *)
PUBLIC 8d930 0 QHttpThreadDelegate::downloadData(QByteArray)
PUBLIC 8d990 0 QHttpThreadDelegate::downloadFinished()
PUBLIC 8d9b0 0 QHttpThreadDelegate::downloadMetaData(QList<QPair<QByteArray,QByteArray> >,int,QString,bool,QSharedPointer<char>,__int64,bool)
PUBLIC 8dad0 0 QHttpThreadDelegate::downloadProgress(__int64,__int64)
PUBLIC 8db20 0 QHttpThreadDelegate::encrypted()
PUBLIC 8db40 0 QHttpThreadDelegate::error(QNetworkReply::NetworkError,QString)
PUBLIC 8dbc0 0 QNonContiguousByteDeviceThreadForwardImpl::haveDataSlot(QByteArray,bool,__int64)
PUBLIC 8dc40 0 QHttpThreadDelegate::metaObject()
PUBLIC 8dc60 0 QNonContiguousByteDeviceThreadForwardImpl::metaObject()
PUBLIC 8dc80 0 QNonContiguousByteDeviceThreadForwardImpl::processedData(__int64)
PUBLIC 8dcb0 0 QHttpThreadDelegate::proxyAuthenticationRequired(QNetworkProxy const &,QAuthenticator *)
PUBLIC 8dd10 0 QHttpThreadDelegate::qt_metacall(QMetaObject::Call,int,void * *)
PUBLIC 8dd60 0 QNonContiguousByteDeviceThreadForwardImpl::qt_metacall(QMetaObject::Call,int,void * *)
PUBLIC 8ddc0 0 QHttpThreadDelegate::qt_metacast(char const *)
PUBLIC 8de20 0 QNonContiguousByteDeviceThreadForwardImpl::qt_metacast(char const *)
PUBLIC 8de80 0 QNonContiguousByteDeviceThreadForwardImpl::resetData(bool *)
PUBLIC 8deb0 0 QHttpThreadDelegate::sslConfigurationChanged(QSslConfiguration)
PUBLIC 8def0 0 QHttpThreadDelegate::sslErrors(QList<QSslError> const &,bool *,QList<QSslError> *)
PUBLIC 8df60 0 QNonContiguousByteDeviceThreadForwardImpl::wantData(__int64)
PUBLIC 8df90 0 QNativeSocketEngine::qt_static_metacall(QObject *,QMetaObject::Call,int,void * *)
PUBLIC 8dfb0 0 QNativeSocketEngine::metaObject()
PUBLIC 8dfd0 0 QNativeSocketEngine::qt_metacall(QMetaObject::Call,int,void * *)
PUBLIC 8e030 0 QNativeSocketEngine::qt_metacast(char const *)
PUBLIC 8e090 0 QWindowsSockInit::QWindowsSockInit()
PUBLIC 8e120 0 QWindowsSockInit::~QWindowsSockInit()
PUBLIC 8e130 0 QNativeSocketEnginePrivate::createNewSocket(QAbstractSocket::SocketType,QAbstractSocket::NetworkLayerProtocol &)
PUBLIC 8e290 0 QNativeSocketEnginePrivate::fetchConnectionParameters()
PUBLIC 8e460 0 QList<QNetworkAddressEntry>::first()
PUBLIC 8e630 0 QNativeSocketEnginePrivate::nativeAccept()
PUBLIC 8e7c0 0 QNativeSocketEnginePrivate::nativeBind(QHostAddress const &,unsigned short)
PUBLIC 8e9e0 0 QNativeSocketEnginePrivate::nativeBytesAvailable()
PUBLIC 8eaa0 0 QNativeSocketEnginePrivate::nativeClose()
PUBLIC 8eab0 0 QNativeSocketEnginePrivate::nativeConnect(QHostAddress const &,unsigned short)
PUBLIC 8ed00 0 QNativeSocketEnginePrivate::nativeHasPendingDatagrams()
PUBLIC 8ee10 0 QNativeSocketEnginePrivate::nativeJoinMulticastGroup(QHostAddress const &,QNetworkInterface const &)
PUBLIC 8ee30 0 QNativeSocketEnginePrivate::nativeLeaveMulticastGroup(QHostAddress const &,QNetworkInterface const &)
PUBLIC 8ee50 0 QNativeSocketEnginePrivate::nativeListen(int)
PUBLIC 8ee90 0 QNativeSocketEnginePrivate::nativeMulticastInterface()
PUBLIC 8f060 0 QNativeSocketEnginePrivate::nativePendingDatagramSize()
PUBLIC 8f130 0 QNativeSocketEnginePrivate::nativeRead(char *,__int64)
PUBLIC 8f1f0 0 QNativeSocketEnginePrivate::nativeReceiveDatagram(char *,__int64,QHostAddress *,unsigned short *)
PUBLIC 8f310 0 QNativeSocketEnginePrivate::nativeSelect(int,bool,bool,bool *,bool *)
PUBLIC 8f4c0 0 QNativeSocketEnginePrivate::nativeSelect(int,bool)
PUBLIC 8f5f0 0 QNativeSocketEnginePrivate::nativeSendDatagram(char const *,__int64,QHostAddress const &,unsigned short)
PUBLIC 8f6f0 0 QNativeSocketEnginePrivate::nativeSetMulticastInterface(QNetworkInterface const &)
PUBLIC 8f880 0 QNativeSocketEnginePrivate::nativeWrite(char const *,__int64)
PUBLIC 8f9b0 0 QNativeSocketEnginePrivate::option(QAbstractSocketEngine::SocketOption)
PUBLIC 8fca0 0 QNativeSocketEnginePrivate::setOption(QAbstractSocketEngine::SocketOption,int)
PUBLIC 8fde0 0 QNativeSocketEnginePrivate::setPortAndAddress(sockaddr_in *,qt_sockaddr_in6 *,unsigned short,QHostAddress const &,sockaddr * *,int *)
PUBLIC 8ff70 0 QSocks5SocketEngine::qt_static_metacall(QObject *,QMetaObject::Call,int,void * *)
PUBLIC 900a0 0 QSocks5SocketEngine::metaObject()
PUBLIC 900c0 0 QSocks5SocketEngine::qt_metacall(QMetaObject::Call,int,void * *)
PUBLIC 90110 0 QSocks5SocketEngine::qt_metacast(char const *)
PUBLIC 90170 0 QUdpSocket::QUdpSocket(QObject *)
PUBLIC 901d0 0 QUdpSocket::~QUdpSocket()
PUBLIC 901e0 0 QUdpSocket::`vector deleting destructor'(unsigned int)
PUBLIC 90210 0 QUdpSocketPrivate::doEnsureInitialized(QHostAddress const &,unsigned short,QHostAddress const &)
PUBLIC 902b0 0 QUdpSocket::hasPendingDatagrams()
PUBLIC 90310 0 QUdpSocket::pendingDatagramSize()
PUBLIC 90370 0 QUdpSocket::readDatagram(char *,__int64,QHostAddress *,unsigned short *)
PUBLIC 90480 0 QUdpSocket::writeDatagram(char const *,__int64,QHostAddress const &,unsigned short)
PUBLIC 905b0 0 QHttpSocketEngine::qt_static_metacall(QObject *,QMetaObject::Call,int,void * *)
PUBLIC 906b0 0 QHttpSocketEngine::metaObject()
PUBLIC 906d0 0 QHttpSocketEngine::qt_metacall(QMetaObject::Call,int,void * *)
PUBLIC 90720 0 QHttpSocketEngine::qt_metacast(char const *)
PUBLIC 90780 0 QHttpNetworkReply::QHttpNetworkReply(QUrl const &,QObject *)
PUBLIC 907d0 0 QHttpNetworkReplyPrivate::QHttpNetworkReplyPrivate(QUrl const &)
PUBLIC 90a00 0 QHttpNetworkReply::~QHttpNetworkReply()
PUBLIC 90a90 0 QHttpNetworkReplyPrivate::~QHttpNetworkReplyPrivate()
PUBLIC 90c70 0 QPointer<QHttpNetworkConnection>::operator->()
PUBLIC 90c83 0 [thunk]:QHttpNetworkReply::`vector deleting destructor'`adjustor{8}' (unsigned int)
PUBLIC 90c90 0 QHttpNetworkReply::`vector deleting destructor'(unsigned int)
PUBLIC 90cb0 0 QHttpNetworkReplyPrivate::`vector deleting destructor'(unsigned int)
PUBLIC 90cd0 0 QHttpNetworkReplyPrivate::authenticationMethod(bool)
PUBLIC 90e90 0 QHttpNetworkReplyPrivate::clear()
PUBLIC 90f20 0 QHttpNetworkReplyPrivate::clearHttpLayerInformation()
PUBLIC 91010 0 QHttpNetworkReply::contentLength()
PUBLIC 91020 0 QHttpNetworkReplyPrivate::eraseData()
PUBLIC 91040 0 QHttpNetworkReplyPrivate::expectContent()
PUBLIC 910a0 0 QHttpNetworkReplyPrivate::getChunkSize(QAbstractSocket *,__int64 *)
PUBLIC 912b0 0 QHttpNetworkReply::header()
PUBLIC 91320 0 QHttpNetworkReply::headerField(QByteArray const &,QByteArray const &)
PUBLIC 91340 0 QHttpNetworkReply::ignoreSslErrors(QList<QSslError> const &)
PUBLIC 91390 0 QHttpNetworkReply::ignoreSslErrors()
PUBLIC 913d0 0 QHttpNetworkReplyPrivate::initializeInflateStream()
PUBLIC 91430 0 QHttpNetworkReplyPrivate::isChunked()
PUBLIC 91440 0 QHttpNetworkReplyPrivate::isCompressed()
PUBLIC 91550 0 QHttpNetworkReplyPrivate::isConnectionCloseEnabled()
PUBLIC 91570 0 QHttpNetworkReply::isFinished()
PUBLIC 91580 0 QHttpNetworkReply::isPipeliningUsed()
PUBLIC 91590 0 QHttpNetworkReply::isSpdyUsed()
PUBLIC 915a0 0 QHttpNetworkReply::majorVersion()
PUBLIC 915b0 0 QHttpNetworkReply::minorVersion()
PUBLIC 915c0 0 QHttpNetworkReplyPrivate::parseHeader(QByteArray const &)
PUBLIC 919d0 0 QHttpNetworkReplyPrivate::parseStatus(QByteArray const &)
PUBLIC 91af0 0 QByteDataBuffer::read(__int64)
PUBLIC 91ba0 0 QHttpNetworkReply::read(__int64)
PUBLIC 91bd0 0 QHttpNetworkReply::readAll()
PUBLIC 91bf0 0 QHttpNetworkReply::readAny()
PUBLIC 91ca0 0 QHttpNetworkReply::readAnyAvailable()
PUBLIC 91cc0 0 QHttpNetworkReplyPrivate::readBody(QAbstractSocket *,QByteDataBuffer *)
PUBLIC 91e40 0 QHttpNetworkReplyPrivate::readBodyFast(QAbstractSocket *,QByteDataBuffer *)
PUBLIC 91fe0 0 QHttpNetworkReplyPrivate::readBodyVeryFast(QAbstractSocket *,char *)
PUBLIC 92040 0 QHttpNetworkReplyPrivate::readHeader(QAbstractSocket *)
PUBLIC 926a0 0 QHttpNetworkReplyPrivate::readReplyBodyChunked(QAbstractSocket *,QByteDataBuffer *)
PUBLIC 92870 0 QHttpNetworkReplyPrivate::readReplyBodyRaw(QAbstractSocket *,QByteDataBuffer *,__int64)
PUBLIC 92b20 0 QHttpNetworkReplyPrivate::readStatus(QAbstractSocket *)
PUBLIC 92c70 0 QHttpNetworkReply::reasonPhrase()
PUBLIC 92ca0 0 QHttpNetworkReplyPrivate::removeAutoDecompressHeader()
PUBLIC 92d80 0 QHttpNetworkReply::request()
PUBLIC 92da0 0 QHttpNetworkReply::setContentLength(__int64)
PUBLIC 92dc0 0 QHttpNetworkReply::setDownstreamLimited(bool)
PUBLIC 92e00 0 QHttpNetworkReply::setHeaderField(QByteArray const &,QByteArray const &)
PUBLIC 92e10 0 QHttpNetworkReply::setReadBufferSize(__int64)
PUBLIC 92e30 0 QHttpNetworkReply::setRequest(QHttpNetworkRequest const &)
PUBLIC 92e50 0 QHttpNetworkReply::setSpdyWasUsed(bool)
PUBLIC 92e60 0 QHttpNetworkReply::setStatusCode(int)
PUBLIC 92e70 0 QHttpNetworkReply::setUrl(QUrl const &)
PUBLIC 92e80 0 QHttpNetworkReply::setUserProvidedDownloadBuffer(char *)
PUBLIC 92ec0 0 QHttpNetworkReplyPrivate::shouldEmitSignals()
PUBLIC 92ee0 0 QHttpNetworkReply::sizeNextBlock()
PUBLIC 92f20 0 QHttpNetworkReply::sslConfiguration()
PUBLIC 92f90 0 QThreadPool::expiryTimeout()
PUBLIC 92fa0 0 QHttpNetworkReply::supportsUserProvidedDownloadBuffer()
PUBLIC 92fe0 0 QHttpNetworkReplyPrivate::uncompressBodyData(QByteDataBuffer *,QByteDataBuffer *)
PUBLIC 93490 0 QHttpNetworkReply::url()
PUBLIC 934b0 0 QSystemLibrary::`scalar deleting destructor'(unsigned int)
PUBLIC 93580 0 q_ASN1_STRING_data(asn1_string_st *)
PUBLIC 935d0 0 q_ASN1_STRING_length(asn1_string_st *)
PUBLIC 93620 0 q_ASN1_STRING_to_UTF8(unsigned char * *,asn1_string_st *)
PUBLIC 93670 0 q_BIO_ctrl(bio_st *,int,long,void *)
PUBLIC 936c0 0 q_BIO_free(bio_st *)
PUBLIC 93710 0 q_BIO_new(bio_method_st *)
PUBLIC 93760 0 q_BIO_read(bio_st *,void *,int)
PUBLIC 937b0 0 q_BIO_s_mem()
PUBLIC 93800 0 q_BIO_write(bio_st *,void const *,int)
PUBLIC 93850 0 q_BN_bin2bn(unsigned char const *,int,bignum_st *)
PUBLIC 938a0 0 q_BN_num_bits(bignum_st const *)
PUBLIC 938f0 0 q_CRYPTO_free(void *)
PUBLIC 93940 0 q_CRYPTO_num_locks()
PUBLIC 93990 0 q_CRYPTO_set_id_callback(unsigned long (*)(void))
PUBLIC 939e0 0 q_CRYPTO_set_locking_callback(void (*)(int,int,char const *,int))
PUBLIC 93a30 0 q_DH_free(dh_st *)
PUBLIC 93a80 0 q_DH_new()
PUBLIC 93ad0 0 q_DSA_free(dsa_st *)
PUBLIC 93b20 0 q_EC_KEY_free(ec_key_st *)
PUBLIC 93b70 0 q_EC_KEY_new_by_curve_name(int)
PUBLIC 93bc0 0 q_ERR_error_string(unsigned long,char *)
PUBLIC 93c10 0 q_ERR_free_strings()
PUBLIC 93c60 0 q_ERR_get_error()
PUBLIC 93cb0 0 q_EVP_PKEY_free(evp_pkey_st *)
PUBLIC 93d00 0 q_EVP_PKEY_new()
PUBLIC 93d50 0 q_EVP_PKEY_set1_DSA(evp_pkey_st *,dsa_st *)
PUBLIC 93da0 0 q_EVP_PKEY_set1_RSA(evp_pkey_st *,rsa_st *)
PUBLIC 93df0 0 q_EVP_des_ede3_cbc()
PUBLIC 93e40 0 q_OBJ_nid2sn(int)
PUBLIC 93e90 0 q_OBJ_obj2nid(asn1_object_st const *)
PUBLIC 93ee0 0 q_OBJ_obj2txt(char *,int,asn1_object_st *,int)
PUBLIC 93f30 0 q_OPENSSL_add_all_algorithms_conf()
PUBLIC 93f80 0 q_PEM_write_bio_DSAPrivateKey(bio_st *,dsa_st *,evp_cipher_st const *,unsigned char *,int,int (*)(char *,int,int,void *),void *)
PUBLIC 93fd0 0 q_PEM_write_bio_DSA_PUBKEY(bio_st *,dsa_st *)
PUBLIC 94020 0 q_PEM_write_bio_RSAPrivateKey(bio_st *,rsa_st *,evp_cipher_st const *,unsigned char *,int,int (*)(char *,int,int,void *),void *)
PUBLIC 94070 0 q_PEM_write_bio_RSA_PUBKEY(bio_st *,rsa_st *)
PUBLIC 940c0 0 q_RAND_seed(void const *,int)
PUBLIC 94110 0 q_RAND_status()
PUBLIC 94160 0 q_RSA_free(rsa_st *)
PUBLIC 941b0 0 q_SSL_CIPHER_description(ssl_cipher_st *,char *,int)
PUBLIC 94200 0 q_SSL_CIPHER_get_bits(ssl_cipher_st *,int *)
PUBLIC 94250 0 q_SSL_CTX_check_private_key(ssl_ctx_st const *)
PUBLIC 942a0 0 q_SSL_CTX_ctrl(ssl_ctx_st *,int,long,void *)
PUBLIC 942f0 0 q_SSL_CTX_free(ssl_ctx_st *)
PUBLIC 94340 0 q_SSL_CTX_load_verify_locations(ssl_ctx_st *,char const *,char const *)
PUBLIC 94390 0 q_SSL_CTX_new(ssl_method_st const *)
PUBLIC 943e0 0 q_SSL_CTX_set_cipher_list(ssl_ctx_st *,char const *)
PUBLIC 94430 0 q_SSL_CTX_set_next_proto_select_cb(ssl_ctx_st *,int (*)(ssl_st *,unsigned char * *,unsigned char *,unsigned char const *,unsigned int,void *),void *)
PUBLIC 94480 0 q_SSL_CTX_set_verify(ssl_ctx_st *,int,int (*)(int,x509_store_ctx_st *))
PUBLIC 944d0 0 q_SSL_CTX_set_verify_depth(ssl_ctx_st *,int)
PUBLIC 94520 0 q_SSL_CTX_use_PrivateKey(ssl_ctx_st *,evp_pkey_st *)
PUBLIC 94570 0 q_SSL_CTX_use_certificate(ssl_ctx_st *,x509_st *)
PUBLIC 945c0 0 q_SSL_SESSION_free(ssl_session_st *)
PUBLIC 94610 0 q_SSL_accept(ssl_st *)
PUBLIC 94660 0 q_SSL_clear(ssl_st *)
PUBLIC 946b0 0 q_SSL_connect(ssl_st *)
PUBLIC 94700 0 q_SSL_ctrl(ssl_st *,int,long,void *)
PUBLIC 94750 0 q_SSL_free(ssl_st *)
PUBLIC 947a0 0 q_SSL_get0_next_proto_negotiated(ssl_st const *,unsigned char const * *,unsigned int *)
PUBLIC 947f0 0 q_SSL_get1_session(ssl_st *)
PUBLIC 94840 0 q_SSL_get_ciphers(ssl_st const *)
PUBLIC 94890 0 q_SSL_get_current_cipher(ssl_st *)
PUBLIC 948e0 0 q_SSL_get_error(ssl_st *,int)
PUBLIC 94930 0 q_SSL_get_peer_cert_chain(ssl_st *)
PUBLIC 94980 0 q_SSL_get_peer_certificate(ssl_st *)
PUBLIC 949d0 0 q_SSL_get_session(ssl_st const *)
PUBLIC 94a20 0 q_SSL_library_init()
PUBLIC 94a70 0 q_SSL_load_error_strings()
PUBLIC 94ac0 0 q_SSL_new(ssl_ctx_st *)
PUBLIC 94b10 0 q_SSL_read(ssl_st *,void *,int)
PUBLIC 94b60 0 q_SSL_select_next_proto(unsigned char * *,unsigned char *,unsigned char const *,unsigned int,unsigned char const *,unsigned int)
PUBLIC 94bb0 0 q_SSL_set_accept_state(ssl_st *)
PUBLIC 94c00 0 q_SSL_set_bio(ssl_st *,bio_st *,bio_st *)
PUBLIC 94c50 0 q_SSL_set_connect_state(ssl_st *)
PUBLIC 94ca0 0 q_SSL_set_session(ssl_st *,ssl_session_st *)
PUBLIC 94cf0 0 q_SSL_shutdown(ssl_st *)
PUBLIC 94d40 0 q_SSL_version(ssl_st const *)
PUBLIC 94d90 0 q_SSL_write(ssl_st *,void const *,int)
PUBLIC 94de0 0 q_SSLeay()
PUBLIC 94e30 0 q_SSLv23_client_method()
PUBLIC 94e80 0 q_SSLv23_server_method()
PUBLIC 94ed0 0 q_SSLv2_client_method()
PUBLIC 94f20 0 q_SSLv2_server_method()
PUBLIC 94f70 0 q_SSLv3_client_method()
PUBLIC 94fc0 0 q_SSLv3_server_method()
PUBLIC 95010 0 q_TLSv1_1_client_method()
PUBLIC 95060 0 q_TLSv1_1_server_method()
PUBLIC 950b0 0 q_TLSv1_2_client_method()
PUBLIC 95100 0 q_TLSv1_2_server_method()
PUBLIC 95150 0 q_TLSv1_client_method()
PUBLIC 951a0 0 q_TLSv1_server_method()
PUBLIC 951f0 0 q_X509_NAME_ENTRY_get_data(X509_name_entry_st *)
PUBLIC 95240 0 q_X509_NAME_ENTRY_get_object(X509_name_entry_st *)
PUBLIC 95290 0 q_X509_NAME_entry_count(X509_name_st *)
PUBLIC 952e0 0 q_X509_NAME_get_entry(X509_name_st *,int)
PUBLIC 95330 0 q_X509_STORE_CTX_get_error(x509_store_ctx_st *)
PUBLIC 95380 0 q_X509_STORE_CTX_get_error_depth(x509_store_ctx_st *)
PUBLIC 953d0 0 q_X509_STORE_add_cert(x509_store_st *,x509_st *)
PUBLIC 95420 0 q_X509_cmp(x509_st *,x509_st *)
PUBLIC 95470 0 q_X509_dup(x509_st *)
PUBLIC 954c0 0 q_X509_free(x509_st *)
PUBLIC 95510 0 q_X509_get_ext_d2i(x509_st *,int,int *,int *)
PUBLIC 95560 0 q_X509_get_issuer_name(x509_st *)
PUBLIC 955b0 0 q_X509_get_subject_name(x509_st *)
PUBLIC 95600 0 q_d2i_SSL_SESSION(ssl_session_st * *,unsigned char const * *,long)
PUBLIC 95650 0 q_d2i_X509(x509_st * *,unsigned char const * *,long)
PUBLIC 956a0 0 q_getTimeFromASN1(asn1_string_st const *)
PUBLIC 95a30 0 q_i2d_SSL_SESSION(ssl_session_st *,unsigned char * *)
PUBLIC 95a80 0 q_i2d_X509(x509_st *,unsigned char * *)
PUBLIC 95ad0 0 q_resolveOpenSslSymbols()
PUBLIC 97de0 0 q_sk_free(stack_st *)
PUBLIC 97e30 0 q_sk_num(stack_st *)
PUBLIC 97e80 0 q_sk_pop_free(stack_st *,void (*)(void *))
PUBLIC 97ed0 0 q_sk_value(stack_st *,int)
PUBLIC 97f20 0 `anonymous namespace'::qsslSocketCannotResolveSymbolWarning(char const *)
PUBLIC 98160 0 QSslKeyPrivate::clear(bool)
PUBLIC 981d0 0 QSslKeyPrivate::handle()
PUBLIC 981f0 0 QSslKeyPrivate::length()
PUBLIC 98230 0 QSslKeyPrivate::toPem(QByteArray const &)
PUBLIC 983b0 0 QSslContext::QSslContext()
PUBLIC 98400 0 QSslContext::~QSslContext()
PUBLIC 984c0 0 QSslContext::cacheSession(ssl_st *)
PUBLIC 985a0 0 QSslContext::createSsl()
PUBLIC 98960 0 QSslContext::error()
PUBLIC 98970 0 QSslContext::errorString()
PUBLIC 98990 0 QSslContext::fromConfiguration(QSslSocket::SslMode,QSslConfiguration const &,bool)
PUBLIC 99510 0 QSslContext::npnContext()
PUBLIC 99530 0 QSslContext::sessionASN1()
PUBLIC 99550 0 QSslContext::sessionTicketLifeTimeHint()
PUBLIC 99560 0 QWindowsCaRootFetcher::qt_static_metacall(QObject *,QMetaObject::Call,int,void * *)
PUBLIC 99610 0 QWindowsCaRootFetcher::finished(QSslCertificate,QSslCertificate)
PUBLIC 99670 0 QWindowsCaRootFetcher::metaObject()
PUBLIC 99690 0 QWindowsCaRootFetcher::qt_metacall(QMetaObject::Call,int,void * *)
PUBLIC 996e0 0 QWindowsCaRootFetcher::qt_metacast(char const *)
PUBLIC 99740 0 QAbstractNetworkCache::qt_static_metacall(QObject *,QMetaObject::Call,int,void * *)
PUBLIC 99760 0 QUrlInfo::QUrlInfo()
PUBLIC 99770 0 QUrlInfoPrivate::QUrlInfoPrivate()
PUBLIC 997c0 0 QUrlInfo::~QUrlInfo()
PUBLIC 997e0 0 QUrlInfoPrivate::~QUrlInfoPrivate()
PUBLIC 99880 0 QUrlInfo::`vector deleting destructor'(unsigned int)
PUBLIC 998c0 0 QUrlInfo::isFile()
PUBLIC 998d0 0 QUrlInfo::isSymLink()
PUBLIC 998e0 0 QUrlInfo::owner()
PUBLIC 99910 0 QUrlInfo::setDir(bool)
PUBLIC 99960 0 QUrlInfo::setFile(bool)
PUBLIC 999b0 0 QUrlInfo::setGroup(QString const &)
PUBLIC 999f0 0 QUrlInfo::setLastModified(QDateTime const &)
PUBLIC 99a30 0 QUrlInfo::setName(QString const &)
PUBLIC 99a80 0 QUrlInfo::setOwner(QString const &)
PUBLIC 99ac0 0 QUrlInfo::setPermissions(int)
PUBLIC 99b10 0 QUrlInfo::setReadable(bool)
PUBLIC 99b60 0 QUrlInfo::setSize(__int64)
PUBLIC 99ba0 0 QUrlInfo::setSymLink(bool)
PUBLIC 99bf0 0 QUrlInfo::setWritable(bool)
PUBLIC 99c40 0 QHttpNetworkConnection::qt_static_metacall(QObject *,QMetaObject::Call,int,void * *)
PUBLIC 99cb0 0 QConcatenable<QStringBuilder<char const [2],QByteArray> >::appendTo<char>(QStringBuilder<char const [2],QByteArray> const &,char * &)
PUBLIC 99d10 0 QStringBuilder<QStringBuilder<char const [2],QByteArray>,char const [2]>::convertTo<QByteArray>()
PUBLIC 99d80 0 QHttpNetworkConnection::QHttpNetworkConnection(QString const &,unsigned short,bool,QHttpNetworkConnection::ConnectionType,QObject *,QSharedPointer<QNetworkSession>)
PUBLIC 99e30 0 QHttpNetworkConnectionPrivate::QHttpNetworkConnectionPrivate(QString const &,unsigned short,bool,QHttpNetworkConnection::ConnectionType)
PUBLIC 9a010 0 QMap<int,QPair<QHttpNetworkRequest,QHttpNetworkReply *> >::~QMap<int,QPair<QHttpNetworkRequest,QHttpNetworkReply *> >()
PUBLIC 9a070 0 QHttpNetworkConnection::~QHttpNetworkConnection()
PUBLIC 9a080 0 QHttpNetworkConnectionChannel::~QHttpNetworkConnectionChannel()
PUBLIC 9a180 0 QHttpNetworkConnectionPrivate::~QHttpNetworkConnectionPrivate()
PUBLIC 9a380 0 QHttpNetworkConnectionChannel::`vector deleting destructor'(unsigned int)
PUBLIC 9a3f0 0 QHttpNetworkConnection::`vector deleting destructor'(unsigned int)
PUBLIC 9a420 0 QHttpNetworkConnectionPrivate::`vector deleting destructor'(unsigned int)
PUBLIC 9a440 0 QHttpNetworkConnectionPrivate::_q_hostLookupFinished(QHostInfo)
PUBLIC 9a720 0 QHttpNetworkConnectionPrivate::_q_startNextRequest()
PUBLIC 9a9c0 0 QList<QPair<QHttpNetworkRequest,QHttpNetworkReply *> >::append(QPair<QHttpNetworkRequest,QHttpNetworkReply *> const &)
PUBLIC 9aa30 0 QHttpNetworkConnection::cacheProxy()
PUBLIC 9aa50 0 QHttpNetworkConnection::connectionType()
PUBLIC 9aa60 0 QMapNode<int,QPair<QHttpNetworkRequest,QHttpNetworkReply *> >::copy(QMapData<int,QPair<QHttpNetworkRequest,QHttpNetworkReply *> > *)
PUBLIC 9ab10 0 QHttpNetworkConnectionPrivate::copyCredentials(int,QAuthenticator *,bool)
PUBLIC 9ad40 0 QHttpNetworkConnectionPrivate::createAuthorization(QAbstractSocket *,QHttpNetworkRequest &)
PUBLIC 9afb0 0 QList<QPair<QHttpNetworkRequest,QHttpNetworkReply *> >::dealloc(QListData::Data *)
PUBLIC 9b000 0 QHttpNetworkConnectionPrivate::dequeueRequest(QAbstractSocket *)
PUBLIC 9b100 0 QMapNode<int,QPair<QHttpNetworkRequest,QHttpNetworkReply *> >::destroySubTree()
PUBLIC 9b120 0 QList<QPair<QHttpNetworkRequest,QHttpNetworkReply *> >::detach_helper(int)
PUBLIC 9b180 0 QMap<int,QPair<QHttpNetworkRequest,QHttpNetworkReply *> >::detach_helper()
PUBLIC 9b220 0 QList<QPair<QHttpNetworkRequest,QHttpNetworkReply *> >::detach_helper_grow(int,int)
PUBLIC 9b2d0 0 QHttpNetworkConnectionPrivate::emitProxyAuthenticationRequired(QHttpNetworkConnectionChannel const *,QNetworkProxy const &,QAuthenticator *)
PUBLIC 9b380 0 QHttpNetworkConnectionPrivate::emitReplyError(QAbstractSocket *,QHttpNetworkReply *,QNetworkReply::NetworkError)
PUBLIC 9b520 0 QList<QPair<QHttpNetworkRequest,QHttpNetworkReply *> >::erase(QList<QPair<QHttpNetworkRequest,QHttpNetworkReply *> >::iterator)
PUBLIC 9b5a0 0 QHttpNetworkConnectionPrivate::errorDetail(QNetworkReply::NetworkError,QAbstractSocket *,QString const &)
PUBLIC 9b910 0 QHttpNetworkConnectionPrivate::fillPipeline(QAbstractSocket *)
PUBLIC 9bba0 0 QHttpNetworkConnectionPrivate::fillPipeline(QList<QPair<QHttpNetworkRequest,QHttpNetworkReply *> > &,QHttpNetworkConnectionChannel &)
PUBLIC 9bcf0 0 QHttpNetworkConnectionPrivate::handleAuthenticateChallenge(QAbstractSocket *,QHttpNetworkReply *,bool,bool &)
PUBLIC 9c030 0 QHttpNetworkConnection::ignoreSslErrors(QList<QSslError> const &,int)
PUBLIC 9c090 0 QHttpNetworkConnection::ignoreSslErrors(int)
PUBLIC 9c0e0 0 QHttpNetworkConnectionPrivate::indexOf(QAbstractSocket *)
PUBLIC 9c140 0 QHttpNetworkConnectionPrivate::init()
PUBLIC 9c230 0 QMap<int,QPair<QHttpNetworkRequest,QHttpNetworkReply *> >::insertMulti(int const &,QPair<QHttpNetworkRequest,QHttpNetworkReply *> const &)
PUBLIC 9c2c0 0 QHttpNetworkConnection::metaObject()
PUBLIC 9c2e0 0 QHttpNetworkConnectionPrivate::networkLayerDetected(QAbstractSocket::NetworkLayerProtocol)
PUBLIC 9c320 0 QList<QPair<QHttpNetworkRequest,QHttpNetworkReply *> >::node_construct(QList<QPair<QHttpNetworkRequest,QHttpNetworkReply *> >::Node *,QPair<QHttpNetworkRequest,QHttpNetworkReply *> const &)
PUBLIC 9c360 0 QList<QPair<QHttpNetworkRequest,QHttpNetworkReply *> >::node_copy(QList<QPair<QHttpNetworkRequest,QHttpNetworkReply *> >::Node *,QList<QPair<QHttpNetworkRequest,QHttpNetworkReply *> >::Node *,QList<QPair<QHttpNetworkRequest,QHttpNetworkReply *> >::Node *)
PUBLIC 9c3c0 0 QHttpNetworkConnectionPrivate::pauseConnection()
PUBLIC 9c410 0 QHttpNetworkConnection::preConnectFinished()
PUBLIC 9c420 0 QHttpNetworkConnectionPrivate::predictNextRequest()
PUBLIC 9c4a0 0 QHttpNetworkConnectionPrivate::prepareRequest(QPair<QHttpNetworkRequest,QHttpNetworkReply *> &)
PUBLIC 9d130 0 QList<QPair<QHttpNetworkRequest,QHttpNetworkReply *> >::prepend(QPair<QHttpNetworkRequest,QHttpNetworkReply *> const &)
PUBLIC 9d1a0 0 QHttpNetworkConnection::qt_metacall(QMetaObject::Call,int,void * *)
PUBLIC 9d200 0 QHttpNetworkConnection::qt_metacast(char const *)
PUBLIC 9d260 0 QHttpNetworkConnectionPrivate::queueRequest(QHttpNetworkRequest const &)
PUBLIC 9d3d0 0 QHttpNetworkConnectionPrivate::readMoreLater(QHttpNetworkReply *)
PUBLIC 9d450 0 QMap<int,QPair<QHttpNetworkRequest,QHttpNetworkReply *> >::remove(int const &)
PUBLIC 9d4c0 0 QHttpNetworkConnectionPrivate::removeReply(QHttpNetworkReply *)
PUBLIC 9d9e0 0 QHttpNetworkConnectionPrivate::requeueRequest(QPair<QHttpNetworkRequest,QHttpNetworkReply *> const &)
PUBLIC 9da70 0 QHttpNetworkConnectionPrivate::resumeConnection()
PUBLIC 9db40 0 QHttpNetworkConnection::sendRequest(QHttpNetworkRequest const &)
PUBLIC 9db50 0 QHttpNetworkConnection::setCacheProxy(QNetworkProxy const &)
PUBLIC 9dc70 0 QHttpNetworkConnection::setConnectionType(QHttpNetworkConnection::ConnectionType)
PUBLIC 9dc80 0 QHttpNetworkConnection::setSslConfiguration(QSslConfiguration const &)
PUBLIC 9dcc0 0 QHttpNetworkConnection::setSslContext(QSharedPointer<QSslContext>)
PUBLIC 9dd30 0 QHttpNetworkConnection::setTransparentProxy(QNetworkProxy const &)
PUBLIC 9dd70 0 QHttpNetworkConnectionPrivate::shouldEmitChannelError(QAbstractSocket *)
PUBLIC 9df10 0 QHttpNetworkConnection::sslContext()
PUBLIC 9df50 0 QHttpNetworkConnectionPrivate::startHostInfoLookup()
PUBLIC 9e140 0 QHttpNetworkConnectionPrivate::startNetworkLayerStateLookup()
PUBLIC 9e280 0 QList<QPair<QHttpNetworkRequest,QHttpNetworkReply *> >::takeAt(int)
PUBLIC 9e2f0 0 QList<QPair<QHttpNetworkRequest,QHttpNetworkReply *> >::takeLast()
PUBLIC 9e370 0 QHttpNetworkConnection::transparentProxy()
PUBLIC 9e390 0 QMap<int,QPair<QHttpNetworkRequest,QHttpNetworkReply *> >::values()
PUBLIC 9e470 0 QUdpSocket::metaObject()
PUBLIC 9e490 0 QTcpSocket::qt_metacall(QMetaObject::Call,int,void * *)
PUBLIC 9e4a0 0 QUdpSocket::qt_metacast(char const *)
PUBLIC 9e500 0 QHttpNetworkReply::qt_static_metacall(QObject *,QMetaObject::Call,int,void * *)
PUBLIC 9e830 0 QHttpNetworkReply::authenticationRequired(QHttpNetworkRequest const &,QAuthenticator *)
PUBLIC 9e890 0 QHttpNetworkReply::cacheCredentials(QHttpNetworkRequest const &,QAuthenticator *)
PUBLIC 9e8f0 0 QHttpNetworkReply::dataReadProgress(__int64,__int64)
PUBLIC 9e940 0 QHttpNetworkReply::dataSendProgress(__int64,__int64)
PUBLIC 9e990 0 QHttpNetworkReply::encrypted()
PUBLIC 9e9b0 0 QHttpNetworkReply::finished()
PUBLIC 9e9d0 0 QHttpNetworkReply::finishedWithError(QNetworkReply::NetworkError,QString const &)
PUBLIC 9ea20 0 QHttpNetworkReply::headerChanged()
PUBLIC 9ea40 0 QHttpNetworkReply::metaObject()
PUBLIC 9ea60 0 QHttpNetworkReply::proxyAuthenticationRequired(QNetworkProxy const &,QAuthenticator *)
PUBLIC 9eac0 0 QHttpNetworkReply::qt_metacall(QMetaObject::Call,int,void * *)
PUBLIC 9eb10 0 QHttpNetworkReply::qt_metacast(char const *)
PUBLIC 9ebb0 0 QHttpNetworkReply::readyRead()
PUBLIC 9ebd0 0 QHttpNetworkReply::sslErrors(QList<QSslError> const &)
PUBLIC 9ec00 0 QAbstractProtocolHandler::QAbstractProtocolHandler(QHttpNetworkConnectionChannel *)
PUBLIC 9ec50 0 QAbstractProtocolHandler::~QAbstractProtocolHandler()
PUBLIC 9ec60 0 QAbstractProtocolHandler::`vector deleting destructor'(unsigned int)
PUBLIC 9ec80 0 QAbstractProtocolHandler::setReply(QHttpNetworkReply *)
PUBLIC 9ec90 0 QHttpNetworkConnectionChannel::qt_static_metacall(QObject *,QMetaObject::Call,int,void * *)
PUBLIC 9ee00 0 QHttpNetworkConnectionChannel::QHttpNetworkConnectionChannel()
PUBLIC 9ef10 0 QHttpNetworkConnectionChannel::_q_connected()
PUBLIC 9f2a0 0 QHttpNetworkConnectionChannel::_q_disconnected()
PUBLIC 9f3d0 0 QHttpNetworkConnectionChannel::_q_encrypted()
PUBLIC 9f670 0 QHttpNetworkConnectionChannel::_q_error(QAbstractSocket::SocketError)
PUBLIC 9fb20 0 QHttpNetworkConnectionChannel::_q_proxyAuthenticationRequired(QNetworkProxy const &,QAuthenticator *)
PUBLIC 9fbc0 0 QHttpNetworkConnectionChannel::_q_sslErrors(QList<QSslError> const &)
PUBLIC 9fd00 0 QHttpNetworkConnectionChannel::allDone()
PUBLIC 9ffd0 0 QHttpNetworkConnectionChannel::close()
PUBLIC a0000 0 QHttpNetworkConnectionChannel::closeAndResendCurrentRequest()
PUBLIC a00c0 0 QHttpNetworkConnectionChannel::detectPipeliningSupport()
PUBLIC a02a0 0 QHttpNetworkConnectionChannel::emitFinishedWithError(QNetworkReply::NetworkError,char const *)
PUBLIC a03f0 0 QHttpNetworkConnectionChannel::ensureConnection()
PUBLIC a0880 0 QHttpNetworkConnectionChannel::handleStatus()
PUBLIC a0ad0 0 QHttpNetworkConnectionChannel::handleUnexpectedEOF()
PUBLIC a0cb0 0 QHttpNetworkConnectionChannel::ignoreSslErrors(QList<QSslError> const &)
PUBLIC a0d00 0 QHttpNetworkConnectionChannel::ignoreSslErrors()
PUBLIC a0d20 0 QHttpNetworkConnectionChannel::init()
PUBLIC a1090 0 QHttpNetworkConnectionChannel::isSocketBusy()
PUBLIC a10a0 0 QHttpNetworkConnectionChannel::isSocketReading()
PUBLIC a10b0 0 QHttpNetworkConnectionChannel::isSocketWaiting()
PUBLIC a10c0 0 QHttpNetworkConnectionChannel::metaObject()
PUBLIC a10e0 0 QHttpNetworkConnectionChannel::pipelineFlush()
PUBLIC a1110 0 QHttpNetworkConnectionChannel::pipelineInto(QPair<QHttpNetworkRequest,QHttpNetworkReply *> &)
PUBLIC a1250 0 QHttpNetworkConnectionChannel::qt_metacall(QMetaObject::Call,int,void * *)
PUBLIC a12a0 0 QHttpNetworkConnectionChannel::qt_metacast(char const *)
PUBLIC a1300 0 QHttpNetworkConnectionChannel::requeueCurrentlyPipelinedRequests()
PUBLIC a1450 0 QHttpNetworkConnectionChannel::requeueSpdyRequests()
PUBLIC a1580 0 QScopedPointer<QAbstractProtocolHandler,QScopedPointerDeleter<QAbstractProtocolHandler> >::reset(QAbstractProtocolHandler *)
PUBLIC a15b0 0 QHttpNetworkConnectionChannel::resetUploadData()
PUBLIC a1620 0 QHttpNetworkConnectionChannel::sendRequest()
PUBLIC a1630 0 QHttpNetworkConnectionChannel::setConnection(QHttpNetworkConnection *)
PUBLIC a1640 0 QHttpNetworkConnectionChannel::setProxy(QNetworkProxy const &)
PUBLIC a1670 0 QHttpNetworkConnectionChannel::setSslConfiguration(QSslConfiguration const &)
PUBLIC a16a0 0 QList<QPair<QHttpNetworkRequest,QHttpNetworkReply *> >::takeFirst()
PUBLIC a1720 0 QHttpProtocolHandler::QHttpProtocolHandler(QHttpNetworkConnectionChannel *)
PUBLIC a1740 0 QHttpProtocolHandler::`vector deleting destructor'(unsigned int)
PUBLIC a1760 0 QHttpProtocolHandler::_q_readyRead()
PUBLIC a17f0 0 QHttpProtocolHandler::_q_receiveReply()
PUBLIC a1b90 0 QHttpProtocolHandler::sendRequest()
PUBLIC a22c0 0 QConcatenable<QStringBuilder<QByteArray,QByteArray> >::appendTo<char>(QStringBuilder<QByteArray,QByteArray> const &,char * &)
PUBLIC a2340 0 QtStringBuilder::appendToByteArray<QByteArray,QByteArray>(QByteArray &,QStringBuilder<QByteArray,QByteArray> const &,char)
PUBLIC a23d0 0 QSpdyProtocolHandler::QSpdyProtocolHandler(QHttpNetworkConnectionChannel *)
PUBLIC a24a0 0 QSpdyProtocolHandler::~QSpdyProtocolHandler()
PUBLIC a2559 0 [thunk]:QSpdyProtocolHandler::`vector deleting destructor'`adjustor{8}' (unsigned int)
PUBLIC a2570 0 QSpdyProtocolHandler::`vector deleting destructor'(unsigned int)
PUBLIC a2590 0 QSpdyProtocolHandler::_q_readyRead()
PUBLIC a25a0 0 QSpdyProtocolHandler::_q_receiveReply()
PUBLIC a26c0 0 QSpdyProtocolHandler::_q_replyDestroyed(QObject *)
PUBLIC a2780 0 QSpdyProtocolHandler::_q_uploadDataReadyRead()
PUBLIC a27d0 0 QSpdyProtocolHandler::composeHeader(QHttpNetworkRequest const &)
PUBLIC a3090 0 QHash<unsigned int,QPair<QHttpNetworkRequest,QHttpNetworkReply *> >::createNode(unsigned int,unsigned int const &,QPair<QHttpNetworkRequest,QHttpNetworkReply *> const &,QHashNode<unsigned int,QPair<QHttpNetworkRequest,QHttpNetworkReply *> > * *)
PUBLIC a3100 0 QHash<unsigned int,QPair<QHttpNetworkRequest,QHttpNetworkReply *> >::deleteNode2(QHashData::Node *)
PUBLIC a3110 0 QHash<unsigned int,QPair<QHttpNetworkRequest,QHttpNetworkReply *> >::detach()
PUBLIC a3170 0 QHash<unsigned int,QPair<QHttpNetworkRequest,QHttpNetworkReply *> >::duplicateNode(QHashData::Node *,void *)
PUBLIC a31b0 0 QMap<int,QPair<QHttpNetworkRequest,QHttpNetworkReply *> >::erase(QMap<int,QPair<QHttpNetworkRequest,QHttpNetworkReply *> >::iterator)
PUBLIC a3270 0 QMap<int,QPair<QHttpNetworkRequest,QHttpNetworkReply *> >::find(int const &)
PUBLIC a32d0 0 QSpdyProtocolHandler::handleControlFrame(QByteArray const &)
PUBLIC a3530 0 QSpdyProtocolHandler::handleDataFrame(QByteArray const &)
PUBLIC a39b0 0 QSpdyProtocolHandler::handleGOAWAY(char,unsigned int,QByteArray const &)
PUBLIC a3af0 0 QSpdyProtocolHandler::handlePING(char,unsigned int,QByteArray const &)
PUBLIC a3ba0 0 QSpdyProtocolHandler::handleRST_STREAM(char,unsigned int,QByteArray const &)
PUBLIC a3d70 0 QSpdyProtocolHandler::handleSETTINGS(char,unsigned int,QByteArray const &)
PUBLIC a3ec0 0 QSpdyProtocolHandler::handleSYN_STREAM(char,unsigned int,QByteArray const &)
PUBLIC a3f70 0 QSpdyProtocolHandler::handleWINDOW_UPDATE(char,unsigned int,QByteArray const &)
PUBLIC a41e0 0 QHash<unsigned int,QPair<QHttpNetworkRequest,QHttpNetworkReply *> >::insert(unsigned int const &,QPair<QHttpNetworkRequest,QHttpNetworkReply *> const &)
PUBLIC a42c0 0 QMap<int,QPair<QHttpNetworkRequest,QHttpNetworkReply *> >::keys()
PUBLIC a4370 0 QSpdyProtocolHandler::parseHttpHeaders(char,QByteArray const &)
PUBLIC a4a60 0 QList<QByteArray>::prepend(QByteArray const &)
PUBLIC a4ad0 0 QSpdyProtocolHandler::readNextChunk(__int64,char *)
PUBLIC a4be0 0 QHash<unsigned int,QPair<QHttpNetworkRequest,QHttpNetworkReply *> >::remove(unsigned int const &)
PUBLIC a4cb0 0 QMultiMap<int,QPair<QHttpNetworkRequest,QHttpNetworkReply *> >::remove(int const &,QPair<QHttpNetworkRequest,QHttpNetworkReply *> const &)
PUBLIC a4d50 0 QSpdyProtocolHandler::replyFinished(QHttpNetworkReply *,int)
PUBLIC a4df0 0 QSpdyProtocolHandler::replyFinishedWithError(QHttpNetworkReply *,int,QNetworkReply::NetworkError,char const *)
PUBLIC a4ee0 0 QSpdyProtocolHandler::sendControlFrame(QSpdyProtocolHandler::FrameType,QFlags<QSpdyProtocolHandler::ControlFrameFlag>,char const *,unsigned int)
PUBLIC a4fc0 0 QSpdyProtocolHandler::sendDataFrame(int,QFlags<QSpdyProtocolHandler::DataFrameFlag>,unsigned int,char const *)
PUBLIC a5140 0 QSpdyProtocolHandler::sendRST_STREAM(int,QSpdyProtocolHandler::RST_STREAM_STATUS_CODE)
PUBLIC a51d0 0 QSpdyProtocolHandler::sendRequest()
PUBLIC a5500 0 QSpdyProtocolHandler::sendSYN_STREAM(QPair<QHttpNetworkRequest,QHttpNetworkReply *>,int,int)
PUBLIC a5790 0 QSpdyProtocolHandler::sendWINDOW_UPDATE(int,unsigned int)
PUBLIC a5820 0 QSpdyProtocolHandler::uncompressHeader(QByteArray const &,QByteArray *)
PUBLIC a5990 0 QSpdyProtocolHandler::uploadData(int)
PUBLIC a5c90 0 QHash<unsigned int,QPair<QHttpNetworkRequest,QHttpNetworkReply *> >::value(unsigned int const &)
PUBLIC a5d30 0 QSpdyProtocolHandler::qt_static_metacall(QObject *,QMetaObject::Call,int,void * *)
PUBLIC a5d80 0 QSpdyProtocolHandler::metaObject()
PUBLIC a5da0 0 QSpdyProtocolHandler::qt_metacall(QMetaObject::Call,int,void * *)
PUBLIC a5e00 0 QSpdyProtocolHandler::qt_metacast(char const *)
PUBLIC a5ea0 0 QArrayData::allocate(unsigned int,unsigned int,unsigned int,QFlags<QArrayData::AllocationOption>)
PUBLIC a5f70 0 QArrayData::deallocate(QArrayData *,unsigned int,unsigned int)
PUBLIC a5f90 0 QtPrivate::QContainerImplHelper::mid(int,int *,int *)
PUBLIC a6000 0 std::_Lower_bound<UCS2Pair const *,unsigned short,int,std::less<void> >(UCS2Pair const *,UCS2Pair const *,unsigned short const &,std::less<void>,int *)
PUBLIC a6050 0 std::_Lower_bound<UCS2SurrogatePair const *,unsigned int,int,std::less<void> >(UCS2SurrogatePair const *,UCS2SurrogatePair const *,unsigned int const &,std::less<void>,int *)
PUBLIC a60b0 0 `anonymous namespace'::UnrollTailLoop<3>::exec<int,<lambda_3b69afa15b2cca22b768e69c9932d5cb>,<lambda_7fe3a25e8df180e5536a9f5f2085c5a1> >(int,int,<lambda_3b69afa15b2cca22b768e69c9932d5cb>,<lambda_7fe3a25e8df180e5536a9f5f2085c5a1>,int)
PUBLIC a6100 0 `anonymous namespace'::UnrollTailLoop<4>::exec<int,<lambda_3b69afa15b2cca22b768e69c9932d5cb>,<lambda_7fe3a25e8df180e5536a9f5f2085c5a1> >(int,int,<lambda_3b69afa15b2cca22b768e69c9932d5cb>,<lambda_7fe3a25e8df180e5536a9f5f2085c5a1>,int)
PUBLIC a6160 0 `anonymous namespace'::UnrollTailLoop<5>::exec<int,<lambda_3b69afa15b2cca22b768e69c9932d5cb>,<lambda_7fe3a25e8df180e5536a9f5f2085c5a1> >(int,int,<lambda_3b69afa15b2cca22b768e69c9932d5cb>,<lambda_7fe3a25e8df180e5536a9f5f2085c5a1>,int)
PUBLIC a61c0 0 `anonymous namespace'::UnrollTailLoop<6>::exec<int,<lambda_3b69afa15b2cca22b768e69c9932d5cb>,<lambda_7fe3a25e8df180e5536a9f5f2085c5a1> >(int,int,<lambda_3b69afa15b2cca22b768e69c9932d5cb>,<lambda_7fe3a25e8df180e5536a9f5f2085c5a1>,int)
PUBLIC a6220 0 `anonymous namespace'::UnrollTailLoop<1>::exec<int,<lambda_59e854fba85492c0bc60302019284d63>,<lambda_59e854fba85492c0bc60302019284d63> >(int,int,<lambda_59e854fba85492c0bc60302019284d63>,<lambda_59e854fba85492c0bc60302019284d63>,int)
PUBLIC a6270 0 `anonymous namespace'::UnrollTailLoop<2>::exec<int,<lambda_59e854fba85492c0bc60302019284d63>,<lambda_59e854fba85492c0bc60302019284d63> >(int,int,<lambda_59e854fba85492c0bc60302019284d63>,<lambda_59e854fba85492c0bc60302019284d63>,int)
PUBLIC a62e0 0 `anonymous namespace'::UnrollTailLoop<3>::exec<int,<lambda_59e854fba85492c0bc60302019284d63>,<lambda_59e854fba85492c0bc60302019284d63> >(int,int,<lambda_59e854fba85492c0bc60302019284d63>,<lambda_59e854fba85492c0bc60302019284d63>,int)
PUBLIC a6350 0 `anonymous namespace'::UnrollTailLoop<4>::exec<int,<lambda_59e854fba85492c0bc60302019284d63>,<lambda_59e854fba85492c0bc60302019284d63> >(int,int,<lambda_59e854fba85492c0bc60302019284d63>,<lambda_59e854fba85492c0bc60302019284d63>,int)
PUBLIC a63c0 0 `anonymous namespace'::UnrollTailLoop<5>::exec<int,<lambda_59e854fba85492c0bc60302019284d63>,<lambda_59e854fba85492c0bc60302019284d63> >(int,int,<lambda_59e854fba85492c0bc60302019284d63>,<lambda_59e854fba85492c0bc60302019284d63>,int)
PUBLIC a6430 0 `anonymous namespace'::UnrollTailLoop<3>::exec<int,<lambda_612ca84e3ec7b10bd1afee32aa74f7fe>,<lambda_bdcf5c73874d57aff15794cfb14695c4> >(int,int,<lambda_612ca84e3ec7b10bd1afee32aa74f7fe>,<lambda_bdcf5c73874d57aff15794cfb14695c4>,int)
PUBLIC a6480 0 `anonymous namespace'::UnrollTailLoop<5>::exec<int,<lambda_612ca84e3ec7b10bd1afee32aa74f7fe>,<lambda_bdcf5c73874d57aff15794cfb14695c4> >(int,int,<lambda_612ca84e3ec7b10bd1afee32aa74f7fe>,<lambda_bdcf5c73874d57aff15794cfb14695c4>,int)
PUBLIC a64f0 0 `anonymous namespace'::UnrollTailLoop<7>::exec<int,<lambda_612ca84e3ec7b10bd1afee32aa74f7fe>,<lambda_bdcf5c73874d57aff15794cfb14695c4> >(int,int,<lambda_612ca84e3ec7b10bd1afee32aa74f7fe>,<lambda_bdcf5c73874d57aff15794cfb14695c4>,int)
PUBLIC a6560 0 `anonymous namespace'::UnrollTailLoop<9>::exec<int,<lambda_612ca84e3ec7b10bd1afee32aa74f7fe>,<lambda_bdcf5c73874d57aff15794cfb14695c4> >(int,int,<lambda_612ca84e3ec7b10bd1afee32aa74f7fe>,<lambda_bdcf5c73874d57aff15794cfb14695c4>,int)
PUBLIC a65d0 0 `anonymous namespace'::UnrollTailLoop<11>::exec<int,<lambda_612ca84e3ec7b10bd1afee32aa74f7fe>,<lambda_bdcf5c73874d57aff15794cfb14695c4> >(int,int,<lambda_612ca84e3ec7b10bd1afee32aa74f7fe>,<lambda_bdcf5c73874d57aff15794cfb14695c4>,int)
PUBLIC a6640 0 `anonymous namespace'::UnrollTailLoop<13>::exec<int,<lambda_612ca84e3ec7b10bd1afee32aa74f7fe>,<lambda_bdcf5c73874d57aff15794cfb14695c4> >(int,int,<lambda_612ca84e3ec7b10bd1afee32aa74f7fe>,<lambda_bdcf5c73874d57aff15794cfb14695c4>,int)
PUBLIC a66b0 0 `anonymous namespace'::UnrollTailLoop<2>::exec<int,<lambda_abb16998277e9dd3eabc868afcc2e6f8>,<lambda_abb16998277e9dd3eabc868afcc2e6f8> >(int,int,<lambda_abb16998277e9dd3eabc868afcc2e6f8>,<lambda_abb16998277e9dd3eabc868afcc2e6f8>,int)
PUBLIC a6730 0 `anonymous namespace'::UnrollTailLoop<3>::exec<int,<lambda_abb16998277e9dd3eabc868afcc2e6f8>,<lambda_abb16998277e9dd3eabc868afcc2e6f8> >(int,int,<lambda_abb16998277e9dd3eabc868afcc2e6f8>,<lambda_abb16998277e9dd3eabc868afcc2e6f8>,int)
PUBLIC a67a0 0 `anonymous namespace'::UnrollTailLoop<4>::exec<int,<lambda_abb16998277e9dd3eabc868afcc2e6f8>,<lambda_abb16998277e9dd3eabc868afcc2e6f8> >(int,int,<lambda_abb16998277e9dd3eabc868afcc2e6f8>,<lambda_abb16998277e9dd3eabc868afcc2e6f8>,int)
PUBLIC a6810 0 `anonymous namespace'::UnrollTailLoop<5>::exec<int,<lambda_abb16998277e9dd3eabc868afcc2e6f8>,<lambda_abb16998277e9dd3eabc868afcc2e6f8> >(int,int,<lambda_abb16998277e9dd3eabc868afcc2e6f8>,<lambda_abb16998277e9dd3eabc868afcc2e6f8>,int)
PUBLIC a6880 0 `anonymous namespace'::UnrollTailLoop<6>::exec<int,<lambda_abb16998277e9dd3eabc868afcc2e6f8>,<lambda_abb16998277e9dd3eabc868afcc2e6f8> >(int,int,<lambda_abb16998277e9dd3eabc868afcc2e6f8>,<lambda_abb16998277e9dd3eabc868afcc2e6f8>,int)
PUBLIC a68f0 0 `anonymous namespace'::UnrollTailLoop<7>::exec<int,<lambda_abb16998277e9dd3eabc868afcc2e6f8>,<lambda_abb16998277e9dd3eabc868afcc2e6f8> >(int,int,<lambda_abb16998277e9dd3eabc868afcc2e6f8>,<lambda_abb16998277e9dd3eabc868afcc2e6f8>,int)
PUBLIC a6960 0 `anonymous namespace'::UnrollTailLoop<8>::exec<int,<lambda_abb16998277e9dd3eabc868afcc2e6f8>,<lambda_abb16998277e9dd3eabc868afcc2e6f8> >(int,int,<lambda_abb16998277e9dd3eabc868afcc2e6f8>,<lambda_abb16998277e9dd3eabc868afcc2e6f8>,int)
PUBLIC a69d0 0 `anonymous namespace'::UnrollTailLoop<9>::exec<int,<lambda_abb16998277e9dd3eabc868afcc2e6f8>,<lambda_abb16998277e9dd3eabc868afcc2e6f8> >(int,int,<lambda_abb16998277e9dd3eabc868afcc2e6f8>,<lambda_abb16998277e9dd3eabc868afcc2e6f8>,int)
PUBLIC a6a40 0 `anonymous namespace'::UnrollTailLoop<10>::exec<int,<lambda_abb16998277e9dd3eabc868afcc2e6f8>,<lambda_abb16998277e9dd3eabc868afcc2e6f8> >(int,int,<lambda_abb16998277e9dd3eabc868afcc2e6f8>,<lambda_abb16998277e9dd3eabc868afcc2e6f8>,int)
PUBLIC a6ab0 0 `anonymous namespace'::UnrollTailLoop<11>::exec<int,<lambda_abb16998277e9dd3eabc868afcc2e6f8>,<lambda_abb16998277e9dd3eabc868afcc2e6f8> >(int,int,<lambda_abb16998277e9dd3eabc868afcc2e6f8>,<lambda_abb16998277e9dd3eabc868afcc2e6f8>,int)
PUBLIC a6b20 0 `anonymous namespace'::UnrollTailLoop<12>::exec<int,<lambda_abb16998277e9dd3eabc868afcc2e6f8>,<lambda_abb16998277e9dd3eabc868afcc2e6f8> >(int,int,<lambda_abb16998277e9dd3eabc868afcc2e6f8>,<lambda_abb16998277e9dd3eabc868afcc2e6f8>,int)
PUBLIC a6b90 0 `anonymous namespace'::UnrollTailLoop<13>::exec<int,<lambda_abb16998277e9dd3eabc868afcc2e6f8>,<lambda_abb16998277e9dd3eabc868afcc2e6f8> >(int,int,<lambda_abb16998277e9dd3eabc868afcc2e6f8>,<lambda_abb16998277e9dd3eabc868afcc2e6f8>,int)
PUBLIC a6c00 0 `anonymous namespace'::UnrollTailLoop<2>::exec<int,<lambda_e5729918b468e51f32d5c145b5d6cd82>,<lambda_9f59965aaf4c9c2ba8f2fd8083239f6d> >(int,int,<lambda_e5729918b468e51f32d5c145b5d6cd82>,<lambda_9f59965aaf4c9c2ba8f2fd8083239f6d>,int)
PUBLIC a6c60 0 `anonymous namespace'::UnrollTailLoop<3>::exec<int,<lambda_e5729918b468e51f32d5c145b5d6cd82>,<lambda_9f59965aaf4c9c2ba8f2fd8083239f6d> >(int,int,<lambda_e5729918b468e51f32d5c145b5d6cd82>,<lambda_9f59965aaf4c9c2ba8f2fd8083239f6d>,int)
PUBLIC a6cc0 0 `anonymous namespace'::UnrollTailLoop<4>::exec<int,<lambda_e5729918b468e51f32d5c145b5d6cd82>,<lambda_9f59965aaf4c9c2ba8f2fd8083239f6d> >(int,int,<lambda_e5729918b468e51f32d5c145b5d6cd82>,<lambda_9f59965aaf4c9c2ba8f2fd8083239f6d>,int)
PUBLIC a6d20 0 `anonymous namespace'::UnrollTailLoop<5>::exec<int,<lambda_e5729918b468e51f32d5c145b5d6cd82>,<lambda_9f59965aaf4c9c2ba8f2fd8083239f6d> >(int,int,<lambda_e5729918b468e51f32d5c145b5d6cd82>,<lambda_9f59965aaf4c9c2ba8f2fd8083239f6d>,int)
PUBLIC a6d80 0 `anonymous namespace'::UnrollTailLoop<6>::exec<int,<lambda_e5729918b468e51f32d5c145b5d6cd82>,<lambda_9f59965aaf4c9c2ba8f2fd8083239f6d> >(int,int,<lambda_e5729918b468e51f32d5c145b5d6cd82>,<lambda_9f59965aaf4c9c2ba8f2fd8083239f6d>,int)
PUBLIC a6de0 0 `anonymous namespace'::UnrollTailLoop<7>::exec<int,<lambda_e5729918b468e51f32d5c145b5d6cd82>,<lambda_9f59965aaf4c9c2ba8f2fd8083239f6d> >(int,int,<lambda_e5729918b468e51f32d5c145b5d6cd82>,<lambda_9f59965aaf4c9c2ba8f2fd8083239f6d>,int)
PUBLIC a6e40 0 `anonymous namespace'::UnrollTailLoop<8>::exec<int,<lambda_e5729918b468e51f32d5c145b5d6cd82>,<lambda_9f59965aaf4c9c2ba8f2fd8083239f6d> >(int,int,<lambda_e5729918b468e51f32d5c145b5d6cd82>,<lambda_9f59965aaf4c9c2ba8f2fd8083239f6d>,int)
PUBLIC a6ea0 0 `anonymous namespace'::UnrollTailLoop<9>::exec<int,<lambda_e5729918b468e51f32d5c145b5d6cd82>,<lambda_9f59965aaf4c9c2ba8f2fd8083239f6d> >(int,int,<lambda_e5729918b468e51f32d5c145b5d6cd82>,<lambda_9f59965aaf4c9c2ba8f2fd8083239f6d>,int)
PUBLIC a6f00 0 `anonymous namespace'::UnrollTailLoop<10>::exec<int,<lambda_e5729918b468e51f32d5c145b5d6cd82>,<lambda_9f59965aaf4c9c2ba8f2fd8083239f6d> >(int,int,<lambda_e5729918b468e51f32d5c145b5d6cd82>,<lambda_9f59965aaf4c9c2ba8f2fd8083239f6d>,int)
PUBLIC a6f60 0 `anonymous namespace'::UnrollTailLoop<11>::exec<int,<lambda_e5729918b468e51f32d5c145b5d6cd82>,<lambda_9f59965aaf4c9c2ba8f2fd8083239f6d> >(int,int,<lambda_e5729918b468e51f32d5c145b5d6cd82>,<lambda_9f59965aaf4c9c2ba8f2fd8083239f6d>,int)
PUBLIC a6fc0 0 `anonymous namespace'::UnrollTailLoop<12>::exec<int,<lambda_e5729918b468e51f32d5c145b5d6cd82>,<lambda_9f59965aaf4c9c2ba8f2fd8083239f6d> >(int,int,<lambda_e5729918b468e51f32d5c145b5d6cd82>,<lambda_9f59965aaf4c9c2ba8f2fd8083239f6d>,int)
PUBLIC a7020 0 `anonymous namespace'::UnrollTailLoop<13>::exec<int,<lambda_e5729918b468e51f32d5c145b5d6cd82>,<lambda_9f59965aaf4c9c2ba8f2fd8083239f6d> >(int,int,<lambda_e5729918b468e51f32d5c145b5d6cd82>,<lambda_9f59965aaf4c9c2ba8f2fd8083239f6d>,int)
PUBLIC a7450 0 QVarLengthArray<unsigned short,256>::QVarLengthArray<unsigned short,256>(int)
PUBLIC a74a0 0 QVector<QPointF>::QVector<QPointF>(QVector<QPointF> const &)
PUBLIC a7560 0 QString::QString(int,QChar)
PUBLIC a75f0 0 QString::QString(int,Qt::Initialization)
PUBLIC a7630 0 QString::QString(QChar const *,int)
PUBLIC a76e0 0 QString::QString(QChar)
PUBLIC a7730 0 QStringMatcher::QStringMatcher(QChar const *,int,Qt::CaseSensitivity)
PUBLIC a7780 0 QMap<int,int>::~QMap<int,int>()
PUBLIC a77c0 0 QVector<QPointF>::~QVector<QPointF>()
PUBLIC a77f0 0 QStringMatcher::~QStringMatcher()
PUBLIC a7820 0 QString::operator=(QString const &)
PUBLIC a7880 0 QString::operator=(QChar)
PUBLIC a78f0 0 operator<<(QDataStream &,QString const &)
PUBLIC a7a50 0 QVector<QPointF>::operator==(QVector<QPointF> const &)
PUBLIC a7af0 0 operator==(QString const &,QString const &)
PUBLIC a7b30 0 operator==(QString const &,QStringRef const &)
PUBLIC a7b90 0 operator==(QStringRef const &,QStringRef const &)
PUBLIC a7c10 0 operator==(QLatin1String,QStringRef const &)
PUBLIC a7c70 0 QString::operator==(QLatin1String)
PUBLIC a7cf0 0 QMap<int,int>::operator[](int const &)
PUBLIC a7d70 0 operator<(QString const &,QString const &)
PUBLIC a7de0 0 QString::operator>(QLatin1String)
PUBLIC a7e50 0 QString::append(QString const &)
PUBLIC a7f00 0 QString::append(QStringRef const &)
PUBLIC a7fb0 0 QString::append(QChar const *,int)
PUBLIC a8040 0 QString::append(QChar)
PUBLIC a80b0 0 QString::append(QLatin1String)
PUBLIC a8120 0 QAbstractConcatenable::appendLatin1To(char const *,int,QChar *)
PUBLIC a8140 0 QStringRef::appendTo(QString *)
PUBLIC a81b0 0 QString::arg(QString const &,int,QChar)
PUBLIC a8380 0 QString::arg(double,int,char,int,QChar)
PUBLIC a86f0 0 QString::arg(QChar,int,QChar)
PUBLIC a87a0 0 QString::arg(__int64,int,int,QChar)
PUBLIC a8ae0 0 QString::arg(unsigned __int64,int,int,QChar)
PUBLIC a9650 0 QChar::category(unsigned int)
PUBLIC a9670 0 QString::chop(int)
PUBLIC a9690 0 QString::compare(QString const &,Qt::CaseSensitivity)
PUBLIC a9730 0 QString::compare(QLatin1String,Qt::CaseSensitivity)
PUBLIC a97a0 0 QString::compare_helper(QChar const *,int,QChar const *,int,Qt::CaseSensitivity)
PUBLIC a9820 0 QString::compare_helper(QChar const *,int,char const *,int,Qt::CaseSensitivity)
PUBLIC a9ad0 0 QMapNode<int,int>::copy(QMapData<int,int> *)
PUBLIC a9b50 0 QString::count(QChar,Qt::CaseSensitivity)
PUBLIC a9b70 0 QMapData<int,int>::createNode(int const &,int const &,QMapNode<int,int> *,bool)
PUBLIC a9eb0 0 QVector<QPointF>::defaultConstruct(QPointF *,QPointF *)
PUBLIC a9ee0 0 QMap<int,int>::detach_helper()
PUBLIC a9f50 0 QSharedDataPointer<QLocalePrivate>::detach_helper()
PUBLIC a9fb0 0 QChar::digitValue(unsigned int)
PUBLIC a9fd0 0 QVector<QPointF>::end()
PUBLIC aa040 0 QString::endsWith(QString const &,Qt::CaseSensitivity)
PUBLIC aa090 0 QString::endsWith(QChar,Qt::CaseSensitivity)
PUBLIC aa0f0 0 QString::endsWith(QLatin1String,Qt::CaseSensitivity)
PUBLIC aa120 0 QStringRef::endsWith(QChar,Qt::CaseSensitivity)
PUBLIC aa1a0 0 QStringRef::endsWith(QLatin1String,Qt::CaseSensitivity)
PUBLIC aa1e0 0 QString::expand(int)
PUBLIC aa250 0 QString::fill(QChar,int)
PUBLIC aa680 0 QString::fromAscii_helper(char const *,int)
PUBLIC aa6f0 0 QString::fromLatin1_helper(char const *,int)
PUBLIC aa780 0 QString::fromLocal8Bit_helper(char const *,int)
PUBLIC aa820 0 QString::fromRawData(QChar const *,int)
PUBLIC aa8a0 0 QString::fromUcs4(unsigned int const *,int)
PUBLIC aa900 0 QTextCodec::fromUnicode(QChar const *,int,QTextCodec::ConverterState *)
PUBLIC aa930 0 QString::fromUtf16(unsigned short const *,int)
PUBLIC aa990 0 QString::fromUtf8_helper(char const *,int)
PUBLIC aaa40 0 QStringMatcher::indexIn(QChar const *,int,int)
PUBLIC aaa80 0 QString::indexOf(QRegExp &,int)
PUBLIC aaaa0 0 QString::indexOf(QString const &,int,Qt::CaseSensitivity)
PUBLIC aaad0 0 QString::indexOf(QChar,int,Qt::CaseSensitivity)
PUBLIC aab00 0 QString::indexOf(QLatin1String,int,Qt::CaseSensitivity)
PUBLIC aab30 0 QStringRef::indexOf(QChar,int,Qt::CaseSensitivity)
PUBLIC aab70 0 QMap<int,int>::insert(int const &,int const &)
PUBLIC aac00 0 QString::insert(int,QChar const *,int)
PUBLIC aacf0 0 QString::insert(int,QChar)
PUBLIC aad70 0 QString::insert(int,QLatin1String)
PUBLIC aae00 0 QChar::isLetterOrNumber_helper(unsigned int)
PUBLIC aae30 0 QChar::isLetter_helper(unsigned int)
PUBLIC aae60 0 QChar::isMark(unsigned int)
PUBLIC aae90 0 QChar::isSpace_helper(unsigned int)
PUBLIC aaec0 0 QString::lastIndexOf(QChar,int,Qt::CaseSensitivity)
PUBLIC aaef0 0 QString::left(int)
PUBLIC aaf40 0 QStringRef::left(int)
PUBLIC aaf80 0 QString::leftJustified(int,QChar,bool)
PUBLIC ab090 0 QString::leftRef(int)
PUBLIC ab250 0 QString::localeAwareCompare(QString const &)
PUBLIC ab280 0 QString::localeAwareCompare_helper(QChar const *,int,QChar const *,int)
PUBLIC ab310 0 QString::mid(int,int)
PUBLIC ab3c0 0 QStringRef::mid(int,int)
PUBLIC ab460 0 QString::midRef(int,int)
PUBLIC ab500 0 QString::multiArg(int,QString const * *)
PUBLIC aba10 0 QString::number(int,int)
PUBLIC abad0 0 QString::number(unsigned int,int)
PUBLIC abb80 0 QString::number(double,char,int)
PUBLIC abc00 0 QString::number(__int64,int)
PUBLIC abcc0 0 QString::number(unsigned __int64,int)
PUBLIC abd80 0 qFindString(QChar const *,int,int,QChar const *,int,Qt::CaseSensitivity)
PUBLIC abfb0 0 qFindStringBoyerMoore(QChar const *,int,int,QChar const *,int,Qt::CaseSensitivity)
PUBLIC ac0d0 0 qToLower(char)
PUBLIC ac320 0 qt_from_latin1(unsigned short *,char const *,unsigned int)
PUBLIC ac670 0 qt_string_normalize(QString *,QString::NormalizationForm,QChar::UnicodeVersion,int)
PUBLIC ac9b0 0 QVector<QPointF>::reallocData(int,int,QFlags<QArrayData::AllocationOption>)
PUBLIC acb80 0 QString::reallocData(unsigned int,bool)
PUBLIC acc90 0 QString::remove(int,int)
PUBLIC acd30 0 QString::remove(QChar,Qt::CaseSensitivity)
PUBLIC acf00 0 QString::replace(QRegExp const &,QString const &)
PUBLIC ad670 0 QString::replace(int,int,QString const &)
PUBLIC ad730 0 QString::replace(int,int,QChar const *,int)
PUBLIC ad770 0 QString::replace(QChar const *,int,QChar const *,int,Qt::CaseSensitivity)
PUBLIC ad940 0 QString::replace(QChar,QChar,Qt::CaseSensitivity)
PUBLIC ada90 0 QString::replace(QChar,QString const &,Qt::CaseSensitivity)
PUBLIC adca0 0 QString::replace(QChar,QLatin1String,Qt::CaseSensitivity)
PUBLIC ae0a0 0 QString::replace_helper(unsigned int *,int,int,QChar const *,int)
PUBLIC ae390 0 QString::resize(int)
PUBLIC ae470 0 QString::right(int)
PUBLIC ae4c0 0 QStringRef::right(int)
PUBLIC ae500 0 QString::rightJustified(int,QChar,bool)
PUBLIC ae610 0 QString::section(QString const &,int,int,QFlags<QString::SectionFlag>)
PUBLIC ae990 0 QString::setNum(double,char,int)
PUBLIC aea40 0 QString::setUtf16(unsigned short const *,int)
PUBLIC aea80 0 QString::simplified()
PUBLIC aee50 0 QString::split(QString const &,QString::SplitBehavior,Qt::CaseSensitivity)
PUBLIC aee90 0 QString::split(QChar,QString::SplitBehavior,Qt::CaseSensitivity)
PUBLIC aeed0 0 QString::sprintf(char const *,...)
PUBLIC aeef0 0 QString::startsWith(QString const &,Qt::CaseSensitivity)
PUBLIC aef40 0 QString::startsWith(QChar,Qt::CaseSensitivity)
PUBLIC aefa0 0 QString::startsWith(QLatin1String,Qt::CaseSensitivity)
PUBLIC aefd0 0 QStringRef::startsWith(QChar,Qt::CaseSensitivity)
PUBLIC af050 0 QChar::toCaseFolded()
PUBLIC af0a0 0 QString::toCaseFolded()
PUBLIC af330 0 QString::toDouble(bool *)
PUBLIC af350 0 QString::toFloat(bool *)
PUBLIC af400 0 QString::toInt(bool *,int)
PUBLIC af460 0 QStringRef::toInt(bool *,int)
PUBLIC af4e0 0 QString::toLatin1_helper(QString const &)
PUBLIC af520 0 QString::toLatin1_helper(QChar const *,int)
PUBLIC af560 0 QString::toLocal8Bit_helper(QChar const *,int)
PUBLIC af5b0 0 QString::toLongLong(bool *,int)
PUBLIC af5e0 0 QChar::toLower(unsigned int)
PUBLIC af620 0 QString::toLower()
PUBLIC af940 0 QStringRef::toString()
PUBLIC af9c0 0 QString::toUInt(bool *,int)
PUBLIC afa10 0 QString::toULongLong(bool *,int)
PUBLIC afa40 0 QString::toUShort(bool *,int)
PUBLIC afaa0 0 QString::toUcs4_helper(unsigned short const *,int,unsigned int *)
PUBLIC afb20 0 QTextCodec::toUnicode(char const *,int,QTextCodec::ConverterState *)
PUBLIC afb50 0 QChar::toUpper(unsigned int)
PUBLIC afb90 0 QString::toUpper()
PUBLIC afeb0 0 QString::toUtf8_helper(QString const &)
PUBLIC afef0 0 QString::trimmed()
PUBLIC b0090 0 QString::truncate(int)
PUBLIC b0510 0 QChar::unicodeVersion(unsigned int)
PUBLIC b0530 0 QString::utf16()
PUBLIC b0550 0 QString::vsprintf(char const *,char *)
PUBLIC b1020 0 QFile::QFile(QString const &)
PUBLIC b10d0 0 QFile::QFile()
PUBLIC b1160 0 QFile::~QFile()
PUBLIC b1170 0 QFile::`vector deleting destructor'(unsigned int)
PUBLIC b11a0 0 QFilePrivate::`vector deleting destructor'(unsigned int)
PUBLIC b1200 0 QFilePrivate::engine()
PUBLIC b1230 0 QFile::exists()
PUBLIC b1260 0 QFile::exists(QString const &)
PUBLIC b1270 0 QFile::fileName()
PUBLIC b12a0 0 QFile::open(QFlags<QIODevice::OpenModeFlag>)
PUBLIC b14b0 0 QFile::permissions()
PUBLIC b14c0 0 QFile::remove()
PUBLIC b15e0 0 QFile::remove(QString const &)
PUBLIC b1650 0 QFile::resize(__int64)
PUBLIC b1660 0 QFile::setFileName(QString const &)
PUBLIC b17a0 0 QFile::setPermissions(QFlags<QFileDevice::Permission>)
PUBLIC b17b0 0 QFile::size()
PUBLIC b17c0 0 std::_Adjust_heap<QDirSortItem *,int,QDirSortItem,QDirSortItemComparator>(QDirSortItem *,int,int,QDirSortItem &&,QDirSortItemComparator)
PUBLIC b18b0 0 std::_Insertion_sort1<QDirSortItem *,QDirSortItemComparator,QDirSortItem>(QDirSortItem *,QDirSortItem *,QDirSortItemComparator,QDirSortItem *)
PUBLIC b1ab0 0 std::_Make_heap<QDirSortItem *,int,QDirSortItem,QDirSortItemComparator>(QDirSortItem *,QDirSortItem *,QDirSortItemComparator,int *,QDirSortItem *)
PUBLIC b1c10 0 std::_Med3<QDirSortItem *,QDirSortItemComparator>(QDirSortItem *,QDirSortItem *,QDirSortItem *,QDirSortItemComparator)
PUBLIC b1c70 0 std::_Median<QDirSortItem *,QDirSortItemComparator>(QDirSortItem *,QDirSortItem *,QDirSortItem *,QDirSortItemComparator)
PUBLIC b1d20 0 std::_Move_backward<QDirSortItem *,QDirSortItem *>(QDirSortItem *,QDirSortItem *,QDirSortItem *,std::_Nonscalar_ptr_iterator_tag)
PUBLIC b1d70 0 std::_Pop_heap_0<QDirSortItem *,QDirSortItem,QDirSortItemComparator>(QDirSortItem *,QDirSortItem *,QDirSortItemComparator,QDirSortItem *)
PUBLIC b1e70 0 std::_Push_heap<QDirSortItem *,int,QDirSortItem,QDirSortItemComparator>(QDirSortItem *,int,int,QDirSortItem &&,QDirSortItemComparator)
PUBLIC b1f20 0 std::_Sort<QDirSortItem *,int,QDirSortItemComparator>(QDirSortItem *,QDirSortItem *,int,QDirSortItemComparator)
PUBLIC b2060 0 std::_Sort_heap<QDirSortItem *,QDirSortItemComparator>(QDirSortItem *,QDirSortItem *,QDirSortItemComparator)
PUBLIC b20c0 0 std::_Unguarded_partition<QDirSortItem *,QDirSortItemComparator>(QDirSortItem *,QDirSortItem *,QDirSortItemComparator)
PUBLIC b22d0 0 QStringBuilder<QStringBuilder<QString,QLatin1Char>,QString>::convertTo<QString>()
PUBLIC b23a0 0 QStringBuilder<QString,QLatin1Char>::convertTo<QString>()
PUBLIC b2440 0 std::swap<QDirSortItem>(QDirSortItem &,QDirSortItem &)
PUBLIC b2530 0 QList<QFileInfo>::QList<QFileInfo>(QList<QFileInfo> const &)
PUBLIC b25f0 0 QVarLengthArray<QChar,256>::QVarLengthArray<QChar,256>(int)
PUBLIC b2660 0 QDir::QDir(QString const &)
PUBLIC b2760 0 QDirPrivate::QDirPrivate(QDirPrivate const &)
PUBLIC b2860 0 QDirPrivate::QDirPrivate(QString const &,QStringList const &,QFlags<QDir::SortFlag>,QFlags<QDir::Filter>)
PUBLIC b2b00 0 QDirSortItem::QDirSortItem()
PUBLIC b2b60 0 QWriteLocker::QWriteLocker(QReadWriteLock *)
PUBLIC b2b90 0 QList<QFileInfo>::~QList<QFileInfo>()
PUBLIC b2bf0 0 QScopedArrayPointer<QDirSortItem,QScopedPointerArrayDeleter<QDirSortItem> >::~QScopedArrayPointer<QDirSortItem,QScopedPointerArrayDeleter<QDirSortItem> >()
PUBLIC b2c20 0 QScopedPointer<QAbstractFileEngine,QScopedPointerDeleter<QAbstractFileEngine> >::~QScopedPointer<QAbstractFileEngine,QScopedPointerDeleter<QAbstractFileEngine> >()
PUBLIC b2c30 0 QScopedPointer<QDirPrivate,QScopedPointerDeleter<QDirPrivate> >::~QScopedPointer<QDirPrivate,QScopedPointerDeleter<QDirPrivate> >()
PUBLIC b2c50 0 QSharedDataPointer<QDirPrivate>::~QSharedDataPointer<QDirPrivate>()
PUBLIC b2c80 0 QDirPrivate::~QDirPrivate()
PUBLIC b2d90 0 QDirSortItem::~QDirSortItem()
PUBLIC b2e30 0 QReadLocker::~QReadLocker()
PUBLIC b2e50 0 QSharedDataPointer<QDirPrivate>::operator=(QDirPrivate *)
PUBLIC b2ea0 0 QFileSystemEntry::operator=(QFileSystemEntry const &)
PUBLIC b2ee0 0 QList<QString>::operator==(QList<QString> const &)
PUBLIC b2f50 0 QStringBuilder<QStringBuilder<QString,QLatin1Char>,QString>::operator QString()
PUBLIC b2f70 0 QStringBuilder<QString,QLatin1Char>::operator QString()
PUBLIC b2f90 0 QDirSortItemComparator::operator()(QDirSortItem const &,QDirSortItem const &)
PUBLIC b34b0 0 QDir::absoluteFilePath(QString const &)
PUBLIC b36f0 0 QDir::absolutePath()
PUBLIC b3720 0 QList<QFileInfo>::append(QFileInfo const &)
PUBLIC b3800 0 QDir::canonicalPath()
PUBLIC b38a0 0 QDir::cd(QString const &)
PUBLIC b3c60 0 QDir::cdUp()
PUBLIC b3cf0 0 QDir::cleanPath(QString const &)
PUBLIC b3e80 0 QDirPrivate::clearFileLists()
PUBLIC b3ef0 0 QDir::currentPath()
PUBLIC b3fb0 0 QMapNode<QString,QStringList>::destroySubTree()
PUBLIC b4040 0 QSharedDataPointer<QDirPrivate>::detach_helper()
PUBLIC b40e0 0 QList<QFileInfo>::detach_helper_grow(int,int)
PUBLIC b4240 0 QDir::dirName()
PUBLIC b4260 0 QDir::entryList(QStringList const &,QFlags<QDir::Filter>,QFlags<QDir::SortFlag>)
PUBLIC b44b0 0 QDir::entryList(QFlags<QDir::Filter>,QFlags<QDir::SortFlag>)
PUBLIC b44e0 0 QDir::exists()
PUBLIC b44f0 0 QDirPrivate::exists()
PUBLIC b4560 0 QDir::filePath(QString const &)
PUBLIC b46c0 0 QDir::fromNativeSeparators(QString const &)
PUBLIC b4810 0 QDir::homePath()
PUBLIC b4830 0 QDirPrivate::initFileLists(QDir const &)
PUBLIC b4970 0 QChar::isLetter()
PUBLIC b49a0 0 QDir::isRoot()
PUBLIC b49e0 0 QDir::mkpath(QString const &)
PUBLIC b4af0 0 QList<QFileInfo>::node_copy(QList<QFileInfo>::Node *,QList<QFileInfo>::Node *,QList<QFileInfo>::Node *)
PUBLIC b4b90 0 QList<QFileInfo>::node_destruct(QList<QFileInfo>::Node *,QList<QFileInfo>::Node *)
PUBLIC b4bc0 0 QDir::path()
PUBLIC b4be0 0 qt_normalizePathSegments(QString const &,bool)
PUBLIC b4f70 0 QDir::removeRecursively()
PUBLIC b5220 0 QDirPrivate::resolveAbsoluteEntry()
PUBLIC b5400 0 QDir::rmdir(QString const &)
PUBLIC b5510 0 QDir::searchPaths(QString const &)
PUBLIC b5610 0 QDir::separator()
PUBLIC b5620 0 QDirPrivate::setPath(QString const &)
PUBLIC b5880 0 QDirPrivate::sortFileList(QFlags<QDir::SortFlag>,QList<QFileInfo> &,QStringList *,QList<QFileInfo> *)
PUBLIC b5b20 0 QDir::tempPath()
PUBLIC b5b40 0 QDir::toNativeSeparators(QString const &)
PUBLIC b5c90 0 QMap<QString,QStringList>::value(QString const &,QStringList const &)
PUBLIC b5d00 0 QObject::qt_static_metacall(QObject *,QMetaObject::Call,int,void * *)
PUBLIC b5ef0 0 operator<<<QByteArray>(QDebug,QList<QByteArray> const &)
PUBLIC b60c0 0 std::_Upper_bound<QPostEvent *,QPostEvent,int,std::less<void> >(QPostEvent *,QPostEvent *,QPostEvent const &,std::less<void>,int *)
PUBLIC b6120 0 qDeleteAll<QDirIteratorPrivateIteratorStack<QAbstractFileEngineIterator> >(QDirIteratorPrivateIteratorStack<QAbstractFileEngineIterator> const &)
PUBLIC b6170 0 QList<QAbstractEventDispatcher::TimerInfo>::QList<QAbstractEventDispatcher::TimerInfo>(QList<QAbstractEventDispatcher::TimerInfo> const &)
PUBLIC b6230 0 QVarLengthArray<QArgumentType,10>::QVarLengthArray<QArgumentType,10>(int)
PUBLIC b62a0 0 QObjectPrivate::ExtraData::ExtraData()
PUBLIC b62d0 0 QMetaCallEvent::QMetaCallEvent(unsigned short,unsigned short,void (*)(QObject *,QMetaObject::Call,int,void * *),QObject const *,int,int,int *,void * *,QSemaphore *)
PUBLIC b6330 0 QMetaCallEvent::QMetaCallEvent(QtPrivate::QSlotObjectBase *,QObject const *,int,int,int *,void * *,QSemaphore *)
PUBLIC b63a0 0 QObject::QObject(QObjectPrivate &,QObject *)
PUBLIC b64a0 0 QObject::QObject(QObject *)
PUBLIC b6610 0 QObjectPrivate::QObjectPrivate(int)
PUBLIC b66d0 0 QOrderedMutexLocker::QOrderedMutexLocker(QMutex *,QMutex *)
PUBLIC b6720 0 QScopedArrayPointer<int,QScopedPointerArrayDeleter<int> >::~QScopedArrayPointer<int,QScopedPointerArrayDeleter<int> >()
PUBLIC b6730 0 QScopedPointer<QObjectPrivate::Connection,QScopedPointerDeleter<QObjectPrivate::Connection> >::~QScopedPointer<QObjectPrivate::Connection,QScopedPointerDeleter<QObjectPrivate::Connection> >()
PUBLIC b6780 0 QScopedPointer<QtPrivate::QSlotObjectBase,QSlotObjectBaseDeleter>::~QScopedPointer<QtPrivate::QSlotObjectBase,QSlotObjectBaseDeleter>()
PUBLIC b67b0 0 QVarLengthArray<QArgumentType,10>::~QVarLengthArray<QArgumentType,10>()
PUBLIC b6810 0 QMetaObject::Connection::~Connection()
PUBLIC b6870 0 QObjectPrivate::ExtraData::~ExtraData()
PUBLIC b69f0 0 QConnectionSenderSwitcher::~QConnectionSenderSwitcher()
PUBLIC b6a20 0 QMetaCallEvent::~QMetaCallEvent()
PUBLIC b6af0 0 QObject::~QObject()
PUBLIC b7060 0 QObjectData::~QObjectData()
PUBLIC b7090 0 QObjectPrivate::~QObjectPrivate()
PUBLIC b71f0 0 QOrderedMutexLocker::~QOrderedMutexLocker()
PUBLIC b7220 0 operator<<(QDebug,QObject const *)
PUBLIC b73e0 0 QList<QVariant>::operator[](int)
PUBLIC b7410 0 QVector<QObjectPrivate::ConnectionList>::operator[](int)
PUBLIC b7480 0 QMetaCallEvent::`vector deleting destructor'(unsigned int)
PUBLIC b74a0 0 QObjectPrivate::_q_reregisterTimers(void *)
PUBLIC b7500 0 QMetaObject::activate(QObject *,int,int,void * *)
PUBLIC b7b70 0 QMetaObject::activate(QObject *,QMetaObject const *,int,void * *)
PUBLIC b7ba0 0 QObjectPrivate::addConnection(int,QObjectPrivate::Connection *)
PUBLIC b7cc0 0 QPostEventList::addEvent(QPostEvent const &)
PUBLIC b7d40 0 QVector<int>::append(int const &)
PUBLIC b7db0 0 QVector<QPostEvent>::append(QPostEvent const &)
PUBLIC b7e40 0 QVector<QPostEvent>::begin()
PUBLIC b7ea0 0 QObject::blockSignals(bool)
PUBLIC b8090 0 QObjectPrivate::cleanConnectionLists()
PUBLIC b8190 0 QVarLengthArray<QArgumentType,10>::clear()
PUBLIC b81b0 0 QtPrivate::QSlotObjectBase::compare(void * *)
PUBLIC b81d0 0 QMetaObjectPrivate::connect(QObject const *,int,QMetaObject const *,QObject const *,int,QMetaObject const *,int,int *)
PUBLIC b8430 0 QObject::connect(QObject const *,char const *,QObject const *,char const *,Qt::ConnectionType)
PUBLIC b89d0 0 QObject::connectImpl(QObject const *,void * *,QObject const *,void * *,QtPrivate::QSlotObjectBase *,Qt::ConnectionType,int const *,QMetaObject const *)
PUBLIC b8b30 0 QObjectPrivate::connectImpl(QObject const *,int,QObject const *,void * *,QtPrivate::QSlotObjectBase *,Qt::ConnectionType,int const *,QMetaObject const *)
PUBLIC b8e10 0 QVector<QObjectPrivate::ConnectionList>::defaultConstruct(QObjectPrivate::ConnectionList *,QObjectPrivate::ConnectionList *)
PUBLIC b8e40 0 QVector<QPostEvent>::defaultConstruct(QPostEvent *,QPostEvent *)
PUBLIC b8e80 0 QObjectPrivate::deleteChildren()
PUBLIC b8f30 0 QObject::deleteLater()
PUBLIC b8fa0 0 QObjectPrivate::Connection::deref()
PUBLIC b9000 0 QtPrivate::QSlotObjectBase::destroyIfLastRef()
PUBLIC b9020 0 QObject::destroyed(QObject *)
PUBLIC b9060 0 QVector<QPostEvent>::detach()
PUBLIC b90b0 0 QList<QVariant>::detach_helper(int)
PUBLIC b9180 0 QMetaObjectPrivate::disconnect(QObject const *,int,QMetaObject const *,QObject const *,int,void * *,QMetaObjectPrivate::DisconnectType)
PUBLIC b9370 0 QObject::disconnect(QObject const *,char const *,QObject const *,char const *)
PUBLIC b9910 0 QMetaObjectPrivate::disconnectHelper(QObjectPrivate::Connection *,QObject const *,int,void * *,QMutex *,QMetaObjectPrivate::DisconnectType)
PUBLIC b9aa0 0 QObjectData::dynamicMetaObject()
PUBLIC b9ac0 0 QVector<QPostEvent>::end()
PUBLIC b9f60 0 QObject::event(QEvent *)
PUBLIC ba260 0 QVector<int>::indexOf(int const &,int)
PUBLIC ba2e0 0 QVector<QPostEvent>::insert(QPostEvent *,int,QPostEvent const &)
PUBLIC ba3e0 0 QObject::killTimer(int)
PUBLIC ba5a0 0 QObject::metaObject()
PUBLIC ba5d0 0 QObject::moveToThread(QThread *)
PUBLIC ba7b0 0 QObjectPrivate::moveToThread_helper()
PUBLIC ba870 0 QArgumentType::name()
PUBLIC ba8d0 0 QObject::objectName()
PUBLIC ba9a0 0 QObject::objectNameChanged(QString const &,QObject::QPrivateSignal)
PUBLIC ba9e0 0 QMetaCallEvent::placeMetaCall(QObject *)
PUBLIC baa60 0 QObject::property(char const *)
PUBLIC bab30 0 QThreadStorage<QNetworkAccessCache *>::deleteData(void *)
PUBLIC bab40 0 QObject::qt_metacall(QMetaObject::Call,int,void * *)
PUBLIC bac20 0 QObject::qt_metacast(char const *)
PUBLIC bac70 0 qt_qFindChildren_helper(QObject const *,QString const &,QMetaObject const &,QList<void *> *,QFlags<Qt::FindChildOption>)
PUBLIC bb560 0 QVarLengthArray<QArgumentType,10>::realloc(int,int)
PUBLIC bb700 0 QVector<int>::reallocData(int,int,QFlags<QArrayData::AllocationOption>)
PUBLIC bb8a0 0 QVector<QObjectPrivate::ConnectionList>::reallocData(int,int,QFlags<QArrayData::AllocationOption>)
PUBLIC bba20 0 QVector<QPostEvent>::reallocData(int,int,QFlags<QArrayData::AllocationOption>)
PUBLIC bbc00 0 QList<QObject *>::removeAt(int)
PUBLIC bbc40 0 QList<QVariant>::removeAt(int)
PUBLIC bbca0 0 QCoreApplication::sendEvent(QObject *,QEvent *)
PUBLIC bbcd0 0 QObject::sender()
PUBLIC bbd40 0 QObject::setObjectName(QString const &)
PUBLIC bbdf0 0 QObject::setParent(QObject *)
PUBLIC bbe00 0 QObjectPrivate::setParent_helper(QObject *)
PUBLIC bbfe0 0 QObject::setProperty(char const *,QVariant const &)
PUBLIC bc1e0 0 QObjectPrivate::setThreadData_helper(QThreadData *,QThreadData *)
PUBLIC bc2e0 0 QObject::startTimer(int,Qt::TimerType)
PUBLIC bc400 0 QObject::thread()
PUBLIC bc410 0 QList<QVariant>::value(int)
PUBLIC bc460 0 QList<bool (*)(void * *)>::QList<bool (*)(void * *)>(QList<bool (*)(void * *)> const &)
PUBLIC bc520 0 std::bad_alloc::bad_alloc(std::bad_alloc const &)
PUBLIC bc5b0 0 std::bad_alloc::~bad_alloc()
PUBLIC bc5c0 0 QVector<QList<bool (*)(void * *)> >::operator[](int)
PUBLIC bc630 0 std::bad_alloc::`vector deleting destructor'(unsigned int)
PUBLIC bc660 0 QInternal::activateCallbacks(QInternal::Callback,void * *)
PUBLIC bc760 0 QVector<QList<bool (*)(void * *)> >::defaultConstruct(QList<bool (*)(void * *)> *,QList<bool (*)(void * *)> *)
PUBLIC bc790 0 QVector<QList<bool (*)(void * *)> >::destruct(QList<bool (*)(void * *)> *,QList<bool (*)(void * *)> *)
PUBLIC bc7e0 0 `anonymous namespace'::Q_QGS_global_callback_table::innerFunction()
PUBLIC bc8a0 0 QList<void (*)(void)>::node_copy(QList<void (*)(void)>::Node *,QList<void (*)(void)>::Node *,QList<void (*)(void)>::Node *)
PUBLIC bc8d0 0 qBadAlloc()
PUBLIC bc910 0 qEnvironmentVariableIsEmpty(char const *)
PUBLIC bc940 0 qEnvironmentVariableIsSet(char const *)
PUBLIC bc970 0 qTerminate()
PUBLIC bc980 0 qgetenv(char const *)
PUBLIC bcab0 0 qrand()
PUBLIC bcac0 0 qt_error_string(int)
PUBLIC bccf0 0 QVector<QList<bool (*)(void * *)> >::reallocData(int,int,QFlags<QArrayData::AllocationOption>)
PUBLIC bd080 0 QSysInfo::windowsVersion()
PUBLIC bd420 0 operator+=<QStringBuilder<QLatin1String,QString>,QLatin1Char>(QString &,QStringBuilder<QStringBuilder<QLatin1String,QString>,QLatin1Char> const &)
PUBLIC bd530 0 QMessagePattern::QMessagePattern()
PUBLIC bd6b0 0 QDebug::Stream::Stream(QtMsgType)
PUBLIC bd720 0 QMessagePattern::~QMessagePattern()
PUBLIC bd890 0 QMessageLogger::critical(char const *,...)
PUBLIC bd960 0 QMessageLogger::debug(char const *,...)
PUBLIC bd9f0 0 QMessageLogger::debug()
PUBLIC bda80 0 QMessageLogger::fatal(char const *,...)
PUBLIC bdb40 0 QString::fromLocal8Bit(QByteArray const &)
PUBLIC bdb90 0 `anonymous namespace'::Q_QGS_qMessagePattern::innerFunction()
PUBLIC bdd70 0 qCleanupFuncinfo(QByteArray)
PUBLIC be170 0 qErrnoWarning(int,char const *,...)
PUBLIC be2f0 0 qErrnoWarning(char const *,...)
PUBLIC be470 0 qFormatLogMessage(QtMsgType,QMessageLogContext const &,QString const &)
PUBLIC beb10 0 qt_message_output(QtMsgType,QMessageLogContext const &,QString const &)
PUBLIC bec60 0 QMessagePattern::setPattern(QString const &)
PUBLIC bf6b0 0 QMessageLogger::warning(char const *,...)
PUBLIC bf780 0 QMessageLogger::warning()
PUBLIC bf8d0 0 QByteArray::QByteArray(int,char)
PUBLIC bf940 0 QByteArray::QByteArray(int,Qt::Initialization)
PUBLIC bf980 0 QByteArray::QByteArray(char const *,int)
PUBLIC bfa20 0 QScopedPointer<QTypedArrayData<char>,QScopedPointerPodDeleter>::~QScopedPointer<QTypedArrayData<char>,QScopedPointerPodDeleter>()
PUBLIC bfa30 0 QByteArray::operator=(QByteArray const &)
PUBLIC bfa90 0 QByteArray::operator=(char const *)
PUBLIC bfb90 0 operator<<(QDataStream &,QByteArray const &)
PUBLIC bfbd0 0 QByteArray::append(QByteArray const &)
PUBLIC bfc90 0 QByteArray::append(char)
PUBLIC bfd00 0 QByteArray::append(char const *)
PUBLIC bfd90 0 QByteArray::append(char const *,int)
PUBLIC bfe40 0 QByteArray::chop(int)
PUBLIC bfe60 0 QByteArray::clear()
PUBLIC bfea0 0 QByteArray::endsWith(char)
PUBLIC bfed0 0 QByteArray::endsWith(char const *)
PUBLIC bff40 0 QByteArray::expand(int)
PUBLIC bff70 0 QByteArray::fromBase64(QByteArray const &)
PUBLIC bffa0 0 QByteArray::fromBase64(QByteArray const &,QFlags<QByteArray::Base64Option>)
PUBLIC c0130 0 QByteArray::fromPercentEncoding(QByteArray const &,char)
PUBLIC c0230 0 QByteArray::fromRawData(char const *,int)
PUBLIC c02b0 0 QByteArray::indexOf(QByteArray const &,int)
PUBLIC c0320 0 QByteArray::indexOf(char,int)
PUBLIC c0390 0 QByteArray::indexOf(char const *,int)
PUBLIC c0410 0 QByteArray::insert(int,char const *)
PUBLIC c0460 0 QByteArray::isNull()
PUBLIC c0470 0 QByteArray::lastIndexOf(char,int)
PUBLIC c04c0 0 QByteArray::left(int)
PUBLIC c0510 0 QByteArray::leftJustified(int,char,bool)
PUBLIC c0620 0 QByteArray::mid(int,int)
PUBLIC c06d0 0 QByteArray::nulTerminated()
PUBLIC c07e0 0 QByteArray::number(int,int)
PUBLIC c0870 0 QByteArray::number(double,char,int)
PUBLIC c08f0 0 QByteArray::number(__int64,int)
PUBLIC c0960 0 QByteArray::number(unsigned __int64,int)
PUBLIC c0a30 0 QByteArray::prepend(QByteArray const &)
PUBLIC c0b30 0 QByteArray::prepend(char)
PUBLIC c0bc0 0 QByteArray::prepend(char const *)
PUBLIC c0c00 0 QByteArray::prepend(char const *,int)
PUBLIC c0ca0 0 qAllocMore(int,int)
PUBLIC c0cd0 0 qUncompress(unsigned char const *,int)
PUBLIC c1400 0 qstrcmp(QByteArray const &,QByteArray const &)
PUBLIC c14a0 0 qstrcmp(QByteArray const &,char const *)
PUBLIC c1500 0 qstrcmp(char const *,char const *)
PUBLIC c1550 0 qstricmp(char const *,char const *)
PUBLIC c15c0 0 qstrncpy(char *,char const *,unsigned int)
PUBLIC c1660 0 QByteArray::reallocData(unsigned int,QFlags<QArrayData::AllocationOption>)
PUBLIC c1790 0 QByteArray::remove(int,int)
PUBLIC c1830 0 QByteArray::replace(char const *,int,char const *,int)
PUBLIC c1c60 0 QScopedPointer<QTypedArrayData<char>,QScopedPointerPodDeleter>::reset(QTypedArrayData<char> *)
PUBLIC c1c80 0 QByteArray::resize(int)
PUBLIC c1db0 0 QByteArray::right(int)
PUBLIC c1e10 0 QByteArray::rightJustified(int,char,bool)
PUBLIC c1f20 0 QByteArray::setNum(double,char,int)
PUBLIC c2040 0 QByteArray::setNum(__int64,int)
PUBLIC c20f0 0 QByteArray::setNum(unsigned __int64,int)
PUBLIC c2180 0 QByteArray::split(char)
PUBLIC c22f0 0 QByteArray::startsWith(char)
PUBLIC c2310 0 QByteArray::startsWith(char const *)
PUBLIC c2370 0 QByteArray::toBase64(QFlags<QByteArray::Base64Option>)
PUBLIC c2660 0 QByteArray::toBase64()
PUBLIC c2690 0 QByteArray::toDouble(bool *)
PUBLIC c2730 0 QByteArray::toFloat(bool *)
PUBLIC c27d0 0 QByteArray::toHex()
PUBLIC c28f0 0 QByteArray::toInt(bool *,int)
PUBLIC c29b0 0 QByteArray::toLongLong(bool *,int)
PUBLIC c2a50 0 QByteArray::toLower()
PUBLIC c2b60 0 QByteArray::toPercentEncoding(QByteArray const &,QByteArray const &,char)
PUBLIC c2d80 0 QByteArray::toUInt(bool *,int)
PUBLIC c2e40 0 QByteArray::toULongLong(bool *,int)
PUBLIC c2ee0 0 QByteArray::trimmed()
PUBLIC c2ff0 0 QByteArray::truncate(int)
PUBLIC c3010 0 QString::toLatin1()
PUBLIC c3030 0 QString::toLocal8Bit()
PUBLIC c3060 0 QString::toUtf8()
PUBLIC c3080 0 QListData::append(QListData const &)
PUBLIC c30a0 0 QListData::append(int)
PUBLIC c3170 0 QListData::append()
PUBLIC c3180 0 QListData::detach(int)
PUBLIC c31e0 0 QListData::detach_grow(int *,int)
PUBLIC c3290 0 QListData::dispose(QListData::Data *)
PUBLIC c32a0 0 QListData::erase(void * *)
PUBLIC c32e0 0 QListData::insert(int)
PUBLIC c33e0 0 QListData::prepend()
PUBLIC c34c0 0 QListData::realloc(int)
PUBLIC c3500 0 QListData::remove(int)
PUBLIC c3580 0 QListData::remove(int,int)
PUBLIC c3630 0 QSingleShotTimer::qt_static_metacall(QObject *,QMetaObject::Call,int,void * *)
PUBLIC c3670 0 QSingleShotTimer::QSingleShotTimer(int,Qt::TimerType,QObject const *,char const *)
PUBLIC c3730 0 QTimer::QTimer(QObject *)
PUBLIC c3770 0 QPointer<QObject const >::~QPointer<QObject const >()
PUBLIC c3790 0 QSingleShotTimer::~QSingleShotTimer()
PUBLIC c3840 0 QTimer::~QTimer()
PUBLIC c38b0 0 QSingleShotTimer::`vector deleting destructor'(unsigned int)
PUBLIC c38d0 0 QTimer::`vector deleting destructor'(unsigned int)
PUBLIC c3950 0 QSingleShotTimer::metaObject()
PUBLIC c3970 0 QSingleShotTimer::qt_metacall(QMetaObject::Call,int,void * *)
PUBLIC c39d0 0 QSingleShotTimer::qt_metacast(char const *)
PUBLIC c3a30 0 QTimer::remainingTime()
PUBLIC c3a60 0 QTimer::setInterval(int)
PUBLIC c3aa0 0 QTimer::singleShot(int,QObject const *,char const *)
PUBLIC c3ad0 0 QTimer::singleShot(int,Qt::TimerType,QObject const *,char const *)
PUBLIC c3c50 0 QTimer::start(int)
PUBLIC c3cb0 0 QTimer::start()
PUBLIC c3d00 0 QTimer::stop()
PUBLIC c3d20 0 QSingleShotTimer::timeout()
PUBLIC c3d40 0 QSingleShotTimer::timerEvent(QTimerEvent *)
PUBLIC c3de0 0 QTimer::timerEvent(QTimerEvent *)
PUBLIC c3e20 0 QProcess::qt_static_metacall(QObject *,QMetaObject::Call,int,void * *)
PUBLIC c4020 0 QProcess::QProcess(QObject *)
PUBLIC c40a0 0 QProcessPrivate::QProcessPrivate()
PUBLIC c42d0 0 QHash<QProcEnvKey,QString>::~QHash<QProcEnvKey,QString>()
PUBLIC c4300 0 QHashNode<QProcEnvKey,QString>::~QHashNode<QProcEnvKey,QString>()
PUBLIC c4360 0 QProcessPrivate::Channel::~Channel()
PUBLIC c4410 0 QProcess::~QProcess()
PUBLIC c45c0 0 QProcessPrivate::~QProcessPrivate()
PUBLIC c47b0 0 QProcess::`vector deleting destructor'(unsigned int)
PUBLIC c47d0 0 QProcessPrivate::`vector deleting destructor'(unsigned int)
PUBLIC c47f0 0 QProcessPrivate::_q_canWrite()
PUBLIC c49e0 0 QProcessPrivate::_q_processDied()
PUBLIC c4bd0 0 QProcessPrivate::_q_startupNotification()
PUBLIC c4ce0 0 QProcess::atEnd()
PUBLIC c4d30 0 QProcess::bytesAvailable()
PUBLIC c4d60 0 QProcess::bytesToWrite()
PUBLIC c4d80 0 QProcess::canReadLine()
PUBLIC c4dc0 0 QProcessPrivate::cleanup()
PUBLIC c4f70 0 QProcessPrivate::Channel::clear()
PUBLIC c5000 0 QProcess::close()
PUBLIC c5030 0 QProcessPrivate::closeWriteChannel()
PUBLIC c5070 0 QHash<QByteArray,QByteArray>::createNode(unsigned int,QByteArray const &,QByteArray const &,QHashNode<QByteArray,QByteArray> * *)
PUBLIC c50f0 0 QHash<QProcEnvKey,QString>::deleteNode2(QHashData::Node *)
PUBLIC c5100 0 QHash<QProcEnvKey,QString>::detach()
PUBLIC c5160 0 QHash<QByteArray,QByteArray>::duplicateNode(QHashData::Node *,void *)
PUBLIC c51b0 0 QProcess::error(QProcess::ProcessError)
PUBLIC c51e0 0 QProcess::execute(QString const &,QStringList const &)
PUBLIC c52d0 0 QHash<QProcEnvKey,QString>::findNode(QProcEnvKey const &,unsigned int *)
PUBLIC c5390 0 QProcess::finished(int)
PUBLIC c53c0 0 QProcess::finished(int,QProcess::ExitStatus)
PUBLIC c5410 0 QRingBuffer::getChar()
PUBLIC c5460 0 QRingBuffer::indexOf(char)
PUBLIC c54f0 0 QHash<QProcEnvKey,QString>::insert(QProcEnvKey const &,QString const &)
PUBLIC c55c0 0 QProcessEnvironment::isEmpty()
PUBLIC c55e0 0 QProcess::metaObject()
PUBLIC c5600 0 QProcess::open(QFlags<QIODevice::OpenModeFlag>)
PUBLIC c5690 0 QProcess::program()
PUBLIC c56c0 0 QProcess::qt_metacall(QMetaObject::Call,int,void * *)
PUBLIC c5720 0 QProcess::qt_metacast(char const *)
PUBLIC c5780 0 QIODevicePrivateLinearBuffer::readAll()
PUBLIC c57d0 0 QProcess::readAllStandardError()
PUBLIC c5850 0 QProcess::readAllStandardOutput()
PUBLIC c58d0 0 QProcess::readData(char *,__int64)
PUBLIC c5a50 0 QProcess::readyReadStandardError(QProcess::QPrivateSignal)
PUBLIC c5a70 0 QProcess::readyReadStandardOutput(QProcess::QPrivateSignal)
PUBLIC c5a90 0 QProcess::setProcessState(QProcess::ProcessState)
PUBLIC c5ae0 0 QProcess::setReadChannel(QProcess::ProcessChannel)
PUBLIC c5bd0 0 QProcess::start(QString const &,QStringList const &,QFlags<QIODevice::OpenModeFlag>)
PUBLIC c5c40 0 QProcessPrivate::start(QFlags<QIODevice::OpenModeFlag>)
PUBLIC c5d20 0 QProcess::started(QProcess::QPrivateSignal)
PUBLIC c5d40 0 QProcess::state()
PUBLIC c5d50 0 QProcess::stateChanged(QProcess::ProcessState,QProcess::QPrivateSignal)
PUBLIC c5d80 0 QProcess::tr(char const *,char const *,int)
PUBLIC c5db0 0 QProcessPrivate::tryReadFromChannel(QProcessPrivate::Channel *)
PUBLIC c5fd0 0 QRingBuffer::ungetChar(char)
PUBLIC c6120 0 QProcess::waitForBytesWritten(int)
PUBLIC c61d0 0 QProcess::waitForFinished(int)
PUBLIC c6280 0 QProcess::waitForReadyRead(int)
PUBLIC c62c0 0 QProcess::writeData(char const *,__int64)
PUBLIC c6350 0 QVector<QPostEvent>::QVector<QPostEvent>(QVector<QPostEvent> const &)
PUBLIC c63f0 0 QCoreApplication::QCoreApplication(int &,char * *,int)
PUBLIC c64a0 0 QCoreApplicationPrivate::QCoreApplicationPrivate(int &,char * *,unsigned int)
PUBLIC c65e0 0 QVector<QPostEvent>::~QVector<QPostEvent>()
PUBLIC c66b0 0 QCoreApplication::~QCoreApplication()
PUBLIC c6810 0 QCoreApplicationData::~QCoreApplicationData()
PUBLIC c6970 0 QCoreApplicationPrivate::~QCoreApplicationPrivate()
PUBLIC c6aa0 0 QMutexUnlocker::~QMutexUnlocker()
PUBLIC c6ac0 0 QScopedLoopLevelCounter::~QScopedLoopLevelCounter()
PUBLIC c6ad0 0 QVector<QPostEvent>::operator=(QVector<QPostEvent> &&)
PUBLIC c6b00 0 QVector<QPostEvent>::operator[](int)
PUBLIC c6b80 0 QCoreApplication::`vector deleting destructor'(unsigned int)
PUBLIC c6ba0 0 QCoreApplicationPrivate::`vector deleting destructor'(unsigned int)
PUBLIC c6bc0 0 QCoreApplicationPrivate::appendApplicationPathToLibraryPaths()
PUBLIC c6d40 0 QCoreApplication::applicationDirPath()
PUBLIC c6ea0 0 QCoreApplication::applicationFilePath()
PUBLIC c7050 0 QCoreApplication::applicationName()
PUBLIC c71e0 0 QCoreApplication::applicationPid()
PUBLIC c71f0 0 QCoreApplication::applicationVersion()
PUBLIC c7230 0 QCoreApplication::arguments()
PUBLIC c74e0 0 QCoreApplicationPrivate::cleanupThreadData()
PUBLIC c75f0 0 QVector<QPostEvent>::clear()
PUBLIC c7670 0 QCoreApplicationPrivate::clearApplicationFilePath()
PUBLIC c76c0 0 QCoreApplication::closingDown()
PUBLIC c76d0 0 QCoreApplication::compressEvent(QEvent *,QObject *,QPostEventList *)
PUBLIC c77b0 0 QVector<QPostEvent>::copyConstruct(QPostEvent const *,QPostEvent const *,QPostEvent *)
PUBLIC c77f0 0 QCoreApplicationPrivate::createEventDispatcher()
PUBLIC c7870 0 QFile::decodeName(QByteArray const &)
PUBLIC c7890 0 QVector<QPostEvent>::erase(QPostEvent *,QPostEvent *)
PUBLIC c7930 0 QCoreApplication::event(QEvent *)
PUBLIC c7960 0 QCoreApplication::exec()
PUBLIC c7b40 0 QCoreApplication::exit(int)
PUBLIC c7b90 0 QCoreApplication::init()
PUBLIC c7c70 0 QCoreApplicationPrivate::initLocale()
PUBLIC c7c90 0 `anonymous namespace'::Q_QGS_coreappdata::innerFunction()
PUBLIC c7d70 0 `anonymous namespace'::Q_QGS_postRList::innerFunction()
PUBLIC c7e30 0 `anonymous namespace'::Q_QGS_preRList::innerFunction()
PUBLIC c7ef0 0 QCoreApplication::isQuitLockEnabled()
PUBLIC c7f00 0 QCoreApplicationPrivate::mainThread()
PUBLIC c7f10 0 QCoreApplication::notify(QObject *,QEvent *)
PUBLIC c7f80 0 QCoreApplication::notifyInternal(QObject *,QEvent *)
PUBLIC c8030 0 QCoreApplicationPrivate::notify_helper(QObject *,QEvent *)
PUBLIC c8070 0 QCoreApplication::organizationDomain()
PUBLIC c80b0 0 QCoreApplication::organizationName()
PUBLIC c80f0 0 QCoreApplication::postEvent(QObject *,QEvent *,int)
PUBLIC c8290 0 QCoreApplicationPrivate::processCommandLineArguments()
PUBLIC c84c0 0 qAddPostRoutine(void (*)(void))
PUBLIC c84e0 0 qAddPreRoutine(void (*)(void))
PUBLIC c8570 0 qGlobalPostedEventsCount()
PUBLIC c86b0 0 qt_call_post_routines()
PUBLIC c8860 0 QCoreApplication::quit()
PUBLIC c8870 0 QVarLengthArray<QEvent *,256>::realloc(int,int)
PUBLIC c8920 0 QCoreApplicationPrivate::removePostedEvent(QEvent *)
PUBLIC c8a00 0 QCoreApplication::removePostedEvents(QObject *,int)
PUBLIC c8f00 0 QCoreApplication::sendPostedEvents(QObject *,int)
PUBLIC c8f20 0 QCoreApplicationPrivate::sendPostedEvents(QObject *,int,QThreadData *)
PUBLIC c91e0 0 QCoreApplicationPrivate::sendThroughApplicationEventFilters(QObject *,QEvent *)
PUBLIC c92b0 0 QCoreApplicationPrivate::sendThroughObjectEventFilters(QObject *,QEvent *)
PUBLIC c9380 0 QCoreApplicationPrivate::setApplicationFilePath(QString const &)
PUBLIC c93d0 0 QCoreApplication::setApplicationName(QString const &)
PUBLIC c9430 0 QCoreApplication::setApplicationVersion(QString const &)
PUBLIC c9490 0 QCoreApplication::setOrganizationDomain(QString const &)
PUBLIC c94f0 0 QCoreApplication::setOrganizationName(QString const &)
PUBLIC c9540 0 QCoreApplication::setQuitLockEnabled(bool)
PUBLIC c9550 0 QCoreApplication::translate(char const *,char const *,char const *,int)
PUBLIC c9730 0 QFreeListElement<QMutexPrivate>::QFreeListElement<QMutexPrivate>()
PUBLIC c9750 0 QMutex::QMutex(QMutex::RecursionMode)
PUBLIC c97f0 0 QMutexPrivate::QMutexPrivate()
PUBLIC c9860 0 QRecursiveMutexPrivate::QRecursiveMutexPrivate()
PUBLIC c9880 0 QFreeList<QMutexPrivate,`anonymous namespace'::FreeListConstants>::~QFreeList<QMutexPrivate,`anonymous namespace'::FreeListConstants>()
PUBLIC c98c0 0 QFreeListElement<QMutexPrivate>::~QFreeListElement<QMutexPrivate>()
PUBLIC c98d0 0 QMutex::~QMutex()
PUBLIC c9960 0 QFreeList<QMutexPrivate,`anonymous namespace'::FreeListConstants>::allocate(int,int)
PUBLIC c9ae0 0 QMutexPrivate::allocate()
PUBLIC c9b50 0 QMutexPrivate::deref()
PUBLIC c9b90 0 QMutexPrivate::derefWaiters(int)
PUBLIC c9bc0 0 A0xfc25ee47::`anonymous namespace'::Q_QGS_freelist::innerFunction()
PUBLIC c9ca0 0 QBasicMutex::isRecursive()
PUBLIC c9cb0 0 QMutex::lock()
PUBLIC c9d20 0 QRecursiveMutexPrivate::lock(int)
PUBLIC c9d90 0 QBasicMutex::lockInternal(int)
PUBLIC c9f70 0 QFreeList<QMutexPrivate,`anonymous namespace'::FreeListConstants>::next()
PUBLIC ca040 0 QFreeList<QMutexPrivate,`anonymous namespace'::FreeListConstants>::release(int)
PUBLIC ca0b0 0 QMutexPrivate::release()
PUBLIC ca0e0 0 QMutex::tryLock(int)
PUBLIC ca120 0 QMutex::unlock()
PUBLIC ca170 0 QBasicMutex::unlockInternal()
PUBLIC ca200 0 QMutexPrivate::wait(int)
PUBLIC ca220 0 QChildEvent::QChildEvent(QEvent::Type,QObject *)
PUBLIC ca260 0 QDeferredDeleteEvent::QDeferredDeleteEvent()
PUBLIC ca2a0 0 QDynamicPropertyChangeEvent::QDynamicPropertyChangeEvent(QByteArray const &)
PUBLIC ca2f0 0 QEvent::QEvent(QEvent::Type)
PUBLIC ca320 0 QTimerEvent::QTimerEvent(int)
PUBLIC ca360 0 QChildEvent::~QChildEvent()
PUBLIC ca380 0 QDynamicPropertyChangeEvent::~QDynamicPropertyChangeEvent()
PUBLIC ca3e0 0 QChildEvent::`vector deleting destructor'(unsigned int)
PUBLIC ca420 0 QDynamicPropertyChangeEvent::`vector deleting destructor'(unsigned int)
PUBLIC ca490 0 QLibrary::QLibrary(QString const &,QObject *)
PUBLIC ca500 0 QLibraryPrivate::QLibraryPrivate(QString const &,QString const &,QFlags<QLibrary::LoadHint>)
PUBLIC ca640 0 QForeachContainer<QMap<QString,QLibraryPrivate *> >::~QForeachContainer<QMap<QString,QLibraryPrivate *> >()
PUBLIC ca690 0 QLibrary::~QLibrary()
PUBLIC ca700 0 QLibraryPrivate::~QLibraryPrivate()
PUBLIC ca820 0 QLibrary::`vector deleting destructor'(unsigned int)
PUBLIC ca8a0 0 QLibraryStore::cleanup()
PUBLIC cacb0 0 QMapNode<QString,QLibraryPrivate *>::copy(QMapData<QString,QLibraryPrivate *> *)
PUBLIC cad30 0 QMapData<QString,QLibraryPrivate *>::createNode(QString const &,QLibraryPrivate * const &,QMapNode<QString,QLibraryPrivate *> *,bool)
PUBLIC cad80 0 QMapNode<QString,QLibraryPrivate *>::destroySubTree()
PUBLIC cadd0 0 QMap<QString,QLibraryPrivate *>::detach_helper()
PUBLIC cae50 0 QFile::encodeName(QString const &)
PUBLIC cae70 0 QLibrary::fileName()
PUBLIC caec0 0 QLibraryStore::findOrCreate(QString const &,QString const &,QFlags<QLibrary::LoadHint>)
PUBLIC cb010 0 QLibraryPrivate::fromRawMetaData(char const *)
PUBLIC cb0b0 0 QMap<QString,QLibraryPrivate *>::insert(QString const &,QLibraryPrivate * const &)
PUBLIC cb170 0 QLibraryPrivate::load()
PUBLIC cb270 0 QLibrary::loadHints()
PUBLIC cb2a0 0 QLibraryPrivate::loadPlugin()
PUBLIC cb3e0 0 QMapNode<QString,QLibraryPrivate *>::lowerBound(QString const &)
PUBLIC cb420 0 qt_debug_component()
PUBLIC cb4c0 0 QLibraryPrivate::release()
PUBLIC cb4d0 0 QLibraryStore::releaseLibrary(QLibraryPrivate *)
PUBLIC cb5b0 0 QLibrary::resolve(char const *)
PUBLIC cb600 0 QLibrary::resolve(QString const &,char const *)
PUBLIC cb6f0 0 QLibrary::setFileName(QString const &)
PUBLIC cb7a0 0 QLibrary::setLoadHints(QFlags<QLibrary::LoadHint>)
PUBLIC cb8f0 0 QMap<QString,QLibraryPrivate *>::take(QString const &)
PUBLIC cb980 0 QLibrary::tr(char const *,char const *,int)
PUBLIC cb9b0 0 QLibraryPrivate::unload(QLibraryPrivate::UnloadFlag)
PUBLIC cbaf0 0 QSemaphore::QSemaphore(int)
PUBLIC cbb70 0 QSemaphore::~QSemaphore()
PUBLIC cbbe0 0 QSemaphore::acquire(int)
PUBLIC cbc80 0 QSemaphore::release(int)
PUBLIC cbd00 0 QSemaphore::tryAcquire(int,int)
PUBLIC cbe40 0 qDeleteAll<QList<QWaitConditionEvent *>::const_iterator>(QList<QWaitConditionEvent *>::const_iterator,QList<QWaitConditionEvent *>::const_iterator)
PUBLIC cbe80 0 QWaitCondition::QWaitCondition()
PUBLIC cbf10 0 QWaitCondition::~QWaitCondition()
PUBLIC cbfc0 0 QWaitConditionPrivate::~QWaitConditionPrivate()
PUBLIC cc070 0 QList<QWaitConditionEvent *>::insert(int,QWaitConditionEvent * const &)
PUBLIC cc100 0 QWaitConditionPrivate::post(QWaitConditionEvent *,bool)
PUBLIC cc190 0 QWaitConditionPrivate::pre()
PUBLIC cc250 0 QWaitCondition::wait(QMutex *,unsigned long)
PUBLIC cc2f0 0 QWaitCondition::wakeAll()
PUBLIC cc370 0 QWaitCondition::wakeOne()
PUBLIC cc3f0 0 QAbstractEventDispatcher::QAbstractEventDispatcher(QAbstractEventDispatcherPrivate &,QObject *)
PUBLIC cc410 0 QAbstractEventDispatcher::~QAbstractEventDispatcher()
PUBLIC cc420 0 QAbstractEventDispatcherPrivate::~QAbstractEventDispatcherPrivate()
PUBLIC cc4a0 0 QAbstractEventDispatcher::`vector deleting destructor'(unsigned int)
PUBLIC cc4d0 0 QFreeList<void,QtTimerIdFreeListConstants>::allocate(int,int)
PUBLIC cc5d0 0 QAbstractEventDispatcher::filterNativeEvent(QByteArray const &,void *,long *)
PUBLIC cc680 0 `anonymous namespace'::Q_QGS_timerIdFreeList::innerFunction()
PUBLIC cc770 0 QAbstractEventDispatcher::installNativeEventFilter(QAbstractNativeEventFilter *)
PUBLIC cc7b0 0 QAbstractEventDispatcher::instance(QThread *)
PUBLIC cc7d0 0 QFreeList<void,QtTimerIdFreeListConstants>::next()
PUBLIC cc870 0 QAbstractEventDispatcher::registerTimer(int,Qt::TimerType,QObject *)
PUBLIC cc8b0 0 QFreeList<void,QtTimerIdFreeListConstants>::release(int)
PUBLIC cc910 0 QAbstractEventDispatcherPrivate::releaseTimerId(int)
PUBLIC cc930 0 QAbstractEventDispatcher::removeNativeEventFilter(QAbstractNativeEventFilter *)
PUBLIC cc9a0 0 QThread::qt_static_metacall(QObject *,QMetaObject::Call,int,void * *)
PUBLIC cca70 0 QThread::finished(QThread::QPrivateSignal)
PUBLIC cca90 0 QThread::metaObject()
PUBLIC ccab0 0 QThread::qt_metacall(QMetaObject::Call,int,void * *)
PUBLIC ccb10 0 QThread::qt_metacast(char const *)
PUBLIC ccb70 0 QThread::started(QThread::QPrivateSignal)
PUBLIC ccb90 0 QAdoptedThread::QAdoptedThread(QThreadData *)
PUBLIC ccc40 0 QThread::QThread(QObject *)
PUBLIC cccd0 0 QThreadData::QThreadData(int)
PUBLIC ccd90 0 QThreadPrivate::QThreadPrivate(QThreadData *)
PUBLIC cce70 0 QStack<QAbstractFileEngineIterator *>::~QStack<QAbstractFileEngineIterator *>()
PUBLIC ccea0 0 QPostEventList::~QPostEventList()
PUBLIC ccf20 0 QThread::~QThread()
PUBLIC cd040 0 QThreadData::~QThreadData()
PUBLIC cd1a0 0 QAdoptedThread::`vector deleting destructor'(unsigned int)
PUBLIC cd1d0 0 QThread::`vector deleting destructor'(unsigned int)
PUBLIC cd1f0 0 QThreadPrivate::`vector deleting destructor'(unsigned int)
PUBLIC cd290 0 QThread::currentThread()
PUBLIC cd2a0 0 QThreadData::deref()
PUBLIC cd2c0 0 QThread::event(QEvent *)
PUBLIC cd2e0 0 QThread::exec()
PUBLIC cd3e0 0 QThread::exit(int)
PUBLIC cd490 0 QThread::isFinished()
PUBLIC cd4d0 0 QThread::isRunning()
PUBLIC cd510 0 QThread::quit()
PUBLIC cd520 0 QThreadData::ref()
PUBLIC cd530 0 QAdoptedThread::run()
PUBLIC cd560 0 QThread::run()
PUBLIC cd570 0 QVector<int>::QVector<int>(QVector<int> const &)
PUBLIC cd620 0 QThreadData::clearCurrentThreadData()
PUBLIC cd630 0 QThreadPrivate::createEventDispatcher(QThreadData *)
PUBLIC cd6a0 0 QThreadData::current(bool)
PUBLIC cd800 0 QThread::currentThreadId()
PUBLIC cd810 0 QVector<int>::detach()
PUBLIC cd860 0 QVector<int>::erase(int *,int *)
PUBLIC cd8d0 0 QThreadPrivate::finish(void *,bool)
PUBLIC cda30 0 QThread::idealThreadCount()
PUBLIC cda50 0 QAdoptedThread::init()
PUBLIC cda70 0 QVector<void *>::insert(void * *,int,void * const &)
PUBLIC cdb30 0 QThread::msleep(unsigned long)
PUBLIC cdb40 0 QVector<void *>::prepend(void * const &)
PUBLIC cdbb0 0 qt_adopted_thread_watcher_function(void *)
PUBLIC cde40 0 qt_create_tls()
PUBLIC cdee0 0 qt_watch_adopted_thread(void * const,QThread *)
PUBLIC cdfe0 0 QThread::start(QThread::Priority)
PUBLIC ce190 0 QThreadPrivate::start(void *)
PUBLIC ce340 0 QThread::terminate()
PUBLIC ce3e0 0 QThread::wait(unsigned long)
PUBLIC ce530 0 QThread::yieldCurrentThread()
PUBLIC ce540 0 QAbstractNativeEventFilter::QAbstractNativeEventFilter()
PUBLIC ce550 0 QAbstractNativeEventFilter::~QAbstractNativeEventFilter()
PUBLIC ce580 0 QAbstractNativeEventFilter::`vector deleting destructor'(unsigned int)
PUBLIC ce5c0 0 QIODevice::QIODevice(QIODevicePrivate &,QObject *)
PUBLIC ce5e0 0 QIODevice::QIODevice(QObject *)
PUBLIC ce660 0 QIODevicePrivate::QIODevicePrivate()
PUBLIC ce6f0 0 QIODevice::~QIODevice()
PUBLIC ce700 0 QIODevicePrivate::~QIODevicePrivate()
PUBLIC ce750 0 QIODevice::`vector deleting destructor'(unsigned int)
PUBLIC ce780 0 QIODevicePrivate::`vector deleting destructor'(unsigned int)
PUBLIC ce7e0 0 QIODevice::atEnd()
PUBLIC ce810 0 QIODevice::bytesAvailable()
PUBLIC ce8a0 0 QIODevice::bytesToWrite()
PUBLIC ce8b0 0 QIODevice::canReadLine()
PUBLIC ce8d0 0 QIODevice::close()
PUBLIC ce980 0 QIODevice::errorString()
PUBLIC ce9e0 0 QIODevice::getChar(char *)
PUBLIC cea10 0 QIODevice::isOpen()
PUBLIC cea20 0 QIODevicePrivate::isSequential()
PUBLIC cea60 0 QIODevice::isTextModeEnabled()
PUBLIC cea70 0 QIODevice::isWritable()
PUBLIC cea80 0 QIODevice::open(QFlags<QIODevice::OpenModeFlag>)
PUBLIC ceb00 0 QIODevice::peek(__int64)
PUBLIC ceb30 0 QIODevice::peek(char *,__int64)
PUBLIC ceb50 0 QIODevicePrivate::peek(__int64)
PUBLIC cec60 0 QIODevicePrivate::peek(char *,__int64)
PUBLIC cece0 0 QIODevice::pos()
PUBLIC cecf0 0 QIODevice::putChar(char)
PUBLIC ced00 0 QIODevicePrivate::putCharHelper(char)
PUBLIC ced30 0 QIODevice::read(__int64)
PUBLIC cef90 0 QIODevice::read(char *,__int64)
PUBLIC cf430 0 QIODevicePrivateLinearBuffer::read(char *,__int64)
PUBLIC cf480 0 QIODevice::readAll()
PUBLIC cf780 0 QIODevice::readLine(__int64)
PUBLIC cfa30 0 QIODevice::readLine(char *,__int64)
PUBLIC cfc70 0 QIODevicePrivateLinearBuffer::readLine(char *,__int64)
PUBLIC cfce0 0 QIODevice::readLineData(char *,__int64)
PUBLIC cfda0 0 QIODevice::reset()
PUBLIC cfdb0 0 QIODevice::seek(__int64)
PUBLIC cfef0 0 QIODevice::setErrorString(QString const &)
PUBLIC cff00 0 QIODevice::setOpenMode(QFlags<QIODevice::OpenModeFlag>)
PUBLIC cff60 0 QIODevice::setTextModeEnabled(bool)
PUBLIC cffc0 0 QIODevice::size()
PUBLIC d0020 0 QIODevicePrivateLinearBuffer::skip(__int64)
PUBLIC d0080 0 QIODevice::tr(char const *,char const *,int)
PUBLIC d00b0 0 QIODevice::ungetChar(char)
PUBLIC d0170 0 QIODevice::write(char const *,__int64)
PUBLIC d0400 0 QtPrivate::QStringList_contains(QStringList const *,QString const &,Qt::CaseSensitivity)
PUBLIC d0470 0 QtPrivate::QStringList_join(QStringList const *,QChar const *,int)
PUBLIC d0620 0 QDate::QDate(int,int,int)
PUBLIC d0640 0 QDateTime::QDateTime(QDate const &)
PUBLIC d0730 0 QDateTime::QDateTime(QDate const &,QTime const &,Qt::TimeSpec)
PUBLIC d07b0 0 QDateTime::QDateTime(QDate const &,QTime const &,Qt::TimeSpec,int)
PUBLIC d0830 0 QDateTime::QDateTime()
PUBLIC d08d0 0 QDateTimeParser::QDateTimeParser(QVariant::Type,QDateTimeParser::Context)
PUBLIC d0a00 0 QDateTimePrivate::QDateTimePrivate(QDate const &,QTime const &,Qt::TimeSpec,int)
PUBLIC d0aa0 0 QTime::QTime(int,int,int,int)
PUBLIC d0b00 0 QVector<QDateTimeParser::SectionNode>::~QVector<QDateTimeParser::SectionNode>()
PUBLIC d0b30 0 QDateTime::~QDateTime()
PUBLIC d0b60 0 QDateTimeParser::~QDateTimeParser()
PUBLIC d0c80 0 QDateTime::operator=(QDateTime const &)
PUBLIC d0cd0 0 operator<<(QDebug,QDate const &)
PUBLIC d0e10 0 operator<<(QDebug,QDateTime const &)
PUBLIC d12f0 0 operator<<(QDebug,QTime const &)
PUBLIC d1470 0 QDateTime::operator==(QDateTime const &)
PUBLIC d1510 0 QSharedDataPointer<QTimeZonePrivate>::operator->()
PUBLIC d1560 0 QDateTime::operator<(QDateTime const &)
PUBLIC d17c0 0 QDateTimeParser::`vector deleting destructor'(unsigned int)
PUBLIC d17e0 0 QDate::addDays(__int64)
PUBLIC d1870 0 QDateTime::addDays(__int64)
PUBLIC d1a10 0 QDateTime::addMSecs(__int64)
PUBLIC d1b40 0 QTime::addMSecs(int)
PUBLIC d1bc0 0 QDate::addMonths(int)
PUBLIC d1ce0 0 QDateTime::addMonths(int)
PUBLIC d1e80 0 QDateTime::addSecs(__int64)
PUBLIC d1ec0 0 QExplicitlySharedDataPointer<QDateTimePrivate>::clone()
PUBLIC d1f60 0 QDate::currentDate()
PUBLIC d1fd0 0 QDateTime::currentDateTime()
PUBLIC d2140 0 QDateTime::currentDateTimeUtc()
PUBLIC d22b0 0 QDateTime::currentMSecsSinceEpoch()
PUBLIC d2360 0 QTime::currentTime()
PUBLIC d2410 0 QDateTimeParser::cursorPosition()
PUBLIC d2420 0 QDateTime::date()
PUBLIC d2480 0 QDate::day()
PUBLIC d24d0 0 QDate::dayOfWeek()
PUBLIC d2530 0 QDate::daysInMonth()
PUBLIC d25b0 0 QDate::daysTo(QDate const &)
PUBLIC d2620 0 QDateTime::daysTo(QDateTime const &)
PUBLIC d26f0 0 QExplicitlySharedDataPointer<QDateTimePrivate>::detach_helper()
PUBLIC d2740 0 QTime::elapsed()
PUBLIC d2a90 0 floor(float)
PUBLIC d2db0 0 QDateTime::fromMSecsSinceEpoch(__int64,Qt::TimeSpec,int)
PUBLIC d3180 0 QDate::fromString(QString const &,Qt::DateFormat)
PUBLIC d36d0 0 QDateTime::fromString(QString const &,QString const &)
PUBLIC d3960 0 QDateTime::fromString(QString const &,Qt::DateFormat)
PUBLIC d4260 0 QTime::fromString(QString const &,Qt::DateFormat)
PUBLIC d4470 0 QDateTime::fromTime_t(unsigned int)
PUBLIC d44a0 0 QDate::getDate(int *,int *,int *)
PUBLIC d46c0 0 QDateTimePrivate::getDateTime(QDate *,QTime *)
PUBLIC d4710 0 QTime::hour()
PUBLIC d4740 0 QChar::isDigit()
PUBLIC d4770 0 QDate::isLeapYear(int)
PUBLIC d47d0 0 QDateTime::isNull()
PUBLIC d47f0 0 QDate::isValid(int,int,int)
PUBLIC d4840 0 QDateTime::isValid()
PUBLIC d4860 0 QTime::isValid()
PUBLIC d4880 0 QTime::isValid(int,int,int,int)
PUBLIC d4db0 0 QDateTimeParser::locale()
PUBLIC d4dd0 0 QTime::minute()
PUBLIC d4e10 0 QDate::month()
PUBLIC d4e60 0 QTime::msec()
PUBLIC d4ea0 0 QDateTime::msecsTo(QDateTime const &)
PUBLIC d4f10 0 QTime::msecsTo(QTime const &)
PUBLIC d5070 0 pow(double,int)
PUBLIC d50d0 0 qRound(double)
PUBLIC d55d0 0 qt_monthNumberFromShortName(QString const &)
PUBLIC d56c0 0 QDateTimePrivate::refreshDateTime()
PUBLIC d60d0 0 QTime::second()
PUBLIC d6100 0 QDateTime::secsTo(QDateTime const &)
PUBLIC d6120 0 QDate::setDate(int,int,int)
PUBLIC d61c0 0 QDateTime::setDate(QDate const &)
PUBLIC d6220 0 QDateTimePrivate::setDateTime(QDate const &,QTime const &)
PUBLIC d6380 0 QDateTimePrivate::setDaylightStatus(QDateTimePrivate::DaylightStatus)
PUBLIC d63c0 0 QDateTime::setMSecsSinceEpoch(__int64)
PUBLIC d6500 0 QDateTime::setOffsetFromUtc(int)
PUBLIC d65c0 0 QDateTime::setTime(QTime const &)
PUBLIC d6640 0 QDateTime::setTimeSpec(Qt::TimeSpec)
PUBLIC d6720 0 QDateTimePrivate::setTimeSpec(Qt::TimeSpec,int)
PUBLIC d67b0 0 QDate::shortDayName(int,QDate::MonthNameType)
PUBLIC d68b0 0 QDate::shortMonthName(int,QDate::MonthNameType)
PUBLIC d69b0 0 QTime::start()
PUBLIC d69d0 0 QDateTime::time()
PUBLIC d6a10 0 QDateTime::timeZone()
PUBLIC d6b90 0 QDateTime::timeZoneAbbreviation()
PUBLIC d6ff0 0 QDate::toString(Qt::DateFormat)
PUBLIC d7510 0 QDateTime::toString(QString const &)
PUBLIC d7590 0 QDateTime::toString(Qt::DateFormat)
PUBLIC d7de0 0 QTime::toString(QString const &)
PUBLIC d7e60 0 QTime::toString(Qt::DateFormat)
PUBLIC d8170 0 QDateTime::toTimeSpec(Qt::TimeSpec)
PUBLIC d82a0 0 QDateTime::toTime_t()
PUBLIC d82e0 0 QTimeZonePrivate::utcQByteArray()
PUBLIC d8300 0 QTimeZonePrivate::utcQString()
PUBLIC d8320 0 QDate::year()
PUBLIC d8370 0 QDateTimePrivate::zoneMSecsToEpochMSecs(__int64,QTimeZone const &,QDate *,QTime *)
PUBLIC d8420 0 operator+=<QString,QLatin1Char>(QString &,QStringBuilder<QString,QLatin1Char> const &)
PUBLIC d84f0 0 QStringBuilder<QStringBuilder<QString,QString>,QString>::convertTo<QString>()
PUBLIC d85d0 0 qAtomicDetach<QUrlPrivate>(QUrlPrivate * &)
PUBLIC d8660 0 QUrl::QUrl(QString const &,QUrl::ParsingMode)
PUBLIC d8680 0 QUrlPrivate::QUrlPrivate(QUrlPrivate const &)
PUBLIC d87e0 0 QUrlPrivate::QUrlPrivate()
PUBLIC d8830 0 QUrl::~QUrl()
PUBLIC d8860 0 QUrlPrivate::~QUrlPrivate()
PUBLIC d89d0 0 QUrl::operator=(QUrl const &)
PUBLIC d8a70 0 operator<<(QDebug,QUrl const &)
PUBLIC d8bc0 0 QUrl::operator==(QUrl const &)
PUBLIC d8d20 0 QUrl::operator!=(QUrl const &)
PUBLIC d8d40 0 QStringBuilder<QStringBuilder<QString,QString>,QString>::operator QString()
PUBLIC d8dc0 0 QUrlPrivate::appendAuthority(QString &,QUrlTwoFlags<QUrl::UrlFormattingOption,QUrl::ComponentFormattingOption>,QUrlPrivate::Section)
PUBLIC d8ec0 0 QUrlPrivate::appendFragment(QString &,QUrlTwoFlags<QUrl::UrlFormattingOption,QUrl::ComponentFormattingOption>,QUrlPrivate::Section)
PUBLIC d8f30 0 QUrlPrivate::appendHost(QString &,QUrlTwoFlags<QUrl::UrlFormattingOption,QUrl::ComponentFormattingOption>)
PUBLIC d9020 0 QUrlPrivate::appendPassword(QString &,QUrlTwoFlags<QUrl::UrlFormattingOption,QUrl::ComponentFormattingOption>)
PUBLIC d9090 0 QUrlPrivate::appendPath(QString &,QUrlTwoFlags<QUrl::UrlFormattingOption,QUrl::ComponentFormattingOption>,QUrlPrivate::Section)
PUBLIC d9290 0 QUrlPrivate::appendQuery(QString &,QUrlTwoFlags<QUrl::UrlFormattingOption,QUrl::ComponentFormattingOption>,QUrlPrivate::Section)
PUBLIC d9300 0 QUrlPrivate::appendUserInfo(QString &,QUrlTwoFlags<QUrl::UrlFormattingOption,QUrl::ComponentFormattingOption>,QUrlPrivate::Section)
PUBLIC d9400 0 QUrlPrivate::appendUserName(QString &,QUrlTwoFlags<QUrl::UrlFormattingOption,QUrl::ComponentFormattingOption>)
PUBLIC d9470 0 QUrl::authority(QFlags<QUrl::ComponentFormattingOption>)
PUBLIC d9570 0 QUrlPrivate::clearError()
PUBLIC d95e0 0 QUrl::fromAce(QByteArray const &)
PUBLIC d9680 0 QUrl::fromEncoded(QByteArray const &,QUrl::ParsingMode)
PUBLIC d9730 0 QUrl::fromPercentEncoding(QByteArray const &)
PUBLIC d97d0 0 QUrl::hasQuery()
PUBLIC d97f0 0 QUrl::host(QFlags<QUrl::ComponentFormattingOption>)
PUBLIC d9910 0 QUrl::isEmpty()
PUBLIC d9940 0 QUrl::isLocalFile()
PUBLIC d9960 0 QUrl::isValid()
PUBLIC d9a10 0 QUrlPrivate::parse(QString const &,QUrl::ParsingMode)
PUBLIC da310 0 QUrl::password(QFlags<QUrl::ComponentFormattingOption>)
PUBLIC da3e0 0 QUrl::path(QFlags<QUrl::ComponentFormattingOption>)
PUBLIC da4b0 0 QUrl::port(int)
PUBLIC da4d0 0 QUrl::query(QFlags<QUrl::ComponentFormattingOption>)
PUBLIC da6e0 0 QUrl::scheme()
PUBLIC da720 0 QUrlPrivate::setAuthority(QString const &,int,int,QUrl::ParsingMode)
PUBLIC da9f0 0 QUrlPrivate::setError(QUrlPrivate::ErrorCode,QString const &,int)
PUBLIC daa40 0 QUrl::setFragment(QString const &,QUrl::ParsingMode)
PUBLIC dac00 0 QUrl::setHost(QString const &,QUrl::ParsingMode)
PUBLIC dade0 0 QUrlPrivate::setHost(QString const &,int,int,QUrl::ParsingMode)
PUBLIC db130 0 QUrl::setPassword(QString const &,QUrl::ParsingMode)
PUBLIC db2f0 0 QUrlPrivate::setPassword(QString const &,int,int)
PUBLIC db360 0 QUrl::setPath(QString const &,QUrl::ParsingMode)
PUBLIC db580 0 QUrl::setPort(int)
PUBLIC db6e0 0 QUrl::setQuery(QString const &,QUrl::ParsingMode)
PUBLIC db8a0 0 QUrl::setScheme(QString const &)
PUBLIC db980 0 QUrlPrivate::setScheme(QString const &,int,bool)
PUBLIC dbb70 0 QUrl::setUrl(QString const &,QUrl::ParsingMode)
PUBLIC dbc20 0 QUrl::setUserInfo(QString const &,QUrl::ParsingMode)
PUBLIC dbda0 0 QUrlPrivate::setUserInfo(QString const &,int,int)
PUBLIC dbe90 0 QUrl::setUserName(QString const &,QUrl::ParsingMode)
PUBLIC dc050 0 QUrl::toAce(QString const &)
PUBLIC dc0f0 0 QUrl::toDisplayString(QUrlTwoFlags<QUrl::UrlFormattingOption,QUrl::ComponentFormattingOption>)
PUBLIC dc120 0 QUrl::toEncoded(QUrlTwoFlags<QUrl::UrlFormattingOption,QUrl::ComponentFormattingOption>)
PUBLIC dc1d0 0 QUrl::toLocalFile()
PUBLIC dc4e0 0 QUrl::toPercentEncoding(QString const &,QByteArray const &,QByteArray const &)
PUBLIC dc580 0 QUrl::toString(QUrlTwoFlags<QUrl::UrlFormattingOption,QUrl::ComponentFormattingOption>)
PUBLIC dc830 0 QUrl::url(QUrlTwoFlags<QUrl::UrlFormattingOption,QUrl::ComponentFormattingOption>)
PUBLIC dc850 0 QUrl::userInfo(QFlags<QUrl::ComponentFormattingOption>)
PUBLIC dc950 0 QUrl::userName(QFlags<QUrl::ComponentFormattingOption>)
PUBLIC dca20 0 QUrlPrivate::validateComponent(QUrlPrivate::Section,QString const &,int,int)
PUBLIC dcb70 0 QFileDevice::QFileDevice(QFileDevicePrivate &,QObject *)
PUBLIC dcb90 0 QFileDevicePrivate::QFileDevicePrivate()
PUBLIC dcc30 0 QFileDevice::~QFileDevice()
PUBLIC dcc90 0 QFileDevicePrivate::~QFileDevicePrivate()
PUBLIC dcd50 0 QFileDevice::`vector deleting destructor'(unsigned int)
PUBLIC dcdc0 0 QFileDevicePrivate::`vector deleting destructor'(unsigned int)
PUBLIC dce50 0 QFileDevice::atEnd()
PUBLIC dcef0 0 QFileDevice::close()
PUBLIC dd000 0 QFileDevicePrivate::engine()
PUBLIC dd070 0 QFileDevice::error()
PUBLIC dd080 0 QFileDevice::flush()
PUBLIC dd250 0 QFileDevice::handle()
PUBLIC dd280 0 QFileDevice::isSequential()
PUBLIC dd2a0 0 QFileDevice::permissions()
PUBLIC dd2d0 0 QBuffer::pos()
PUBLIC dd2e0 0 QFileDevicePrivate::putCharHelper(char)
PUBLIC dd430 0 QFileDevice::readData(char *,__int64)
PUBLIC dd5b0 0 QFileDevice::readLineData(char *,__int64)
PUBLIC dd640 0 QFileDevice::resize(__int64)
PUBLIC dd780 0 QFileDevice::seek(__int64)
PUBLIC dd8d0 0 QFileDevicePrivate::setError(QFileDevice::FileError,QString const &)
PUBLIC dd8f0 0 QFileDevice::setPermissions(QFlags<QFileDevice::Permission>)
PUBLIC dda00 0 QFileDevice::size()
PUBLIC dda50 0 QFileDevice::unsetError()
PUBLIC ddaa0 0 QFileDevice::writeData(char const *,__int64)
PUBLIC ddc60 0 QConcatenable<QStringBuilder<QStringBuilder<QStringBuilder<QString,QLatin1Char>,QString>,QLatin1String> >::appendTo<QChar>(QStringBuilder<QStringBuilder<QStringBuilder<QString,QLatin1Char>,QString>,QLatin1String> const &,QChar * &)
PUBLIC ddce0 0 QStringBuilder<QStringBuilder<QStringBuilder<QString,QLatin1Char>,QString>,QLatin1String>::convertTo<QString>()
PUBLIC ddd90 0 QTemporaryDir::QTemporaryDir()
PUBLIC dde40 0 QScopedPointer<QTemporaryDirPrivate,QScopedPointerDeleter<QTemporaryDirPrivate> >::~QScopedPointer<QTemporaryDirPrivate,QScopedPointerDeleter<QTemporaryDirPrivate> >()
PUBLIC dde80 0 QStringBuilder<QStringBuilder<QStringBuilder<QString,QLatin1Char>,QString>,QLatin1String>::operator QString()
PUBLIC ddea0 0 QTemporaryDirPrivate::create(QString const &)
PUBLIC ddfe0 0 QFile::decodeName(char const *)
PUBLIC de270 0 QTemporaryDir::isValid()
PUBLIC de280 0 QTemporaryDir::path()
PUBLIC de570 0 `anonymous namespace'::Q_QGS_staticPluginList::innerFunction()
PUBLIC de630 0 QStaticPlugin::metaData()
PUBLIC de6b0 0 qRegisterStaticPluginFunction(QStaticPlugin)
PUBLIC de6e0 0 QVector<QRegExpAnchorAlternation>::reallocData(int,int,QFlags<QArrayData::AllocationOption>)
PUBLIC de880 0 QPluginLoader::staticPlugins()
PUBLIC de8c0 0 QStringBuilder<QStringBuilder<char const [5],QByteArray>,char>::convertTo<QByteArray>()
PUBLIC de980 0 QStringBuilder<QStringBuilder<QByteArray,char const [3]>,char const *>::convertTo<QByteArray>()
PUBLIC df500 0 QStringBuilder<QStringBuilder<char const [5],QByteArray>,char>::operator QByteArray()
PUBLIC df520 0 QStringBuilder<QStringBuilder<QByteArray,char const [3]>,char const *>::operator QByteArray()
PUBLIC df600 0 QVarLengthArray<char,512>::append(char const *,int)
PUBLIC df7e0 0 QMetaObject::cast(QObject *)
PUBLIC df810 0 QMetaObjectPrivate::checkConnectArgs(int,QArgumentType const *,int,QArgumentType const *)
PUBLIC df880 0 QMetaObject::className()
PUBLIC df8d0 0 QMetaObjectPrivate::decodeMethodSignature(char const *,QVarLengthArray<QArgumentType,10> &)
PUBLIC df950 0 QMetaObject::enumerator(int)
PUBLIC dfc60 0 QMetaMethod::fromSignalImpl(QMetaObject const *,void * *)
PUBLIC dfce0 0 QMetaObject::indexOfEnumerator(char const *)
PUBLIC dfdd0 0 QMetaObject::indexOfMethod(char const *)
PUBLIC dfed0 0 QMetaObjectPrivate::indexOfMethod(QMetaObject const *,QByteArray const &,int,QArgumentType const *)
PUBLIC dff20 0 QMetaObject::indexOfProperty(char const *)
PUBLIC e0050 0 QMetaObject::indexOfSignal(char const *)
PUBLIC e0150 0 QMetaObjectPrivate::indexOfSignalRelative(QMetaObject const * *,QByteArray const &,int,QArgumentType const *)
PUBLIC e0160 0 QMetaObjectPrivate::indexOfSlotRelative(QMetaObject const * *,QByteArray const &,int,QArgumentType const *)
PUBLIC e0170 0 QMetaMethod::invoke(QObject *,Qt::ConnectionType,QGenericReturnArgument,QGenericArgument,QGenericArgument,QGenericArgument,QGenericArgument,QGenericArgument,QGenericArgument,QGenericArgument,QGenericArgument,QGenericArgument,QGenericArgument)
PUBLIC e07c0 0 QMetaObject::invokeMethod(QObject *,char const *,Qt::ConnectionType,QGenericReturnArgument,QGenericArgument,QGenericArgument,QGenericArgument,QGenericArgument,QGenericArgument,QGenericArgument,QGenericArgument,QGenericArgument,QGenericArgument,QGenericArgument)
PUBLIC e0cb0 0 QMetaProperty::isEnumType()
PUBLIC e0d00 0 QMetaProperty::isFlagType()
PUBLIC e0d60 0 QMetaEnum::isValid()
PUBLIC e0d90 0 QMetaEnum::keyToValue(char const *,bool *)
PUBLIC e0fb0 0 QMetaEnum::keysToValue(char const *,bool *)
PUBLIC e1390 0 QMetaObject::metacall(QObject *,QMetaObject::Call,int,void * *)
PUBLIC e13c0 0 QMetaObject::method(int)
PUBLIC e1430 0 QMetaObject::methodCount()
PUBLIC e1450 0 QMetaObject::methodOffset()
PUBLIC e1470 0 QMetaMethod::methodSignature()
PUBLIC e14a0 0 QMetaMethod::name()
PUBLIC e14d0 0 QMetaMethodPrivate::name()
PUBLIC e1500 0 QMetaProperty::name()
PUBLIC e1ce0 0 QMetaObject::normalizedSignature(char const *)
PUBLIC e1eb0 0 QMetaObject::normalizedType(char const *)
PUBLIC e20a0 0 QMetaObjectPrivate::originalClone(QMetaObject const *,int)
PUBLIC e20d0 0 QMetaMethod::parameterTypes()
PUBLIC e2100 0 QMetaMethodPrivate::parameterTypes()
PUBLIC e2220 0 QMetaObject::property(int)
PUBLIC e23c0 0 QMetaObject::propertyOffset()
PUBLIC e2790 0 QMetaProperty::read(QObject const *)
PUBLIC e2ac0 0 QVarLengthArray<char,512>::realloc(int,int)
PUBLIC e2b60 0 QMetaMethod::returnType()
PUBLIC e2b90 0 QMetaObjectPrivate::signal(QMetaObject const *,int)
PUBLIC e2c10 0 QMetaObjectPrivate::signalOffset(QMetaObject const *)
PUBLIC e2c30 0 QMetaMethodPrivate::signature()
PUBLIC e2da0 0 QMetaObject::static_metacall(QMetaObject::Call,int,void * *)
PUBLIC e2df0 0 QMetaObject::tr(char const *,char const *,int)
PUBLIC e2f10 0 QMetaMethod::typeName()
PUBLIC e2fd0 0 QMetaProperty::write(QObject *,QVariant const &)
PUBLIC e32e0 0 `anonymous namespace'::TypeInfo::delegate<signed char>(signed char const *)
PUBLIC e3350 0 `anonymous namespace'::TypeCreator::delegate<signed char>(signed char const *)
PUBLIC e3380 0 `anonymous namespace'::TypeInfo::delegate<short>(short const *)
PUBLIC e33f0 0 `anonymous namespace'::TypeCreator::delegate<short>(short const *)
PUBLIC e3430 0 `anonymous namespace'::TypeInfo::delegate<int>(int const *)
PUBLIC e34a0 0 `anonymous namespace'::TypeCreator::delegate<int>(int const *)
PUBLIC e34e0 0 `anonymous namespace'::TypeCreator::delegate<double>(double const *)
PUBLIC e3520 0 `anonymous namespace'::TypeInfo::delegate<double>(double const *)
PUBLIC e3590 0 `anonymous namespace'::TypeInfo::delegate<QObject *>(QObject * const *)
PUBLIC e3600 0 `anonymous namespace'::TypeDestroyer::delegate<QHash<QString,QVariant> >(QHash<QString,QVariant> const *)
PUBLIC e3640 0 `anonymous namespace'::TypeDestructor::delegate<QHash<QString,QVariant> >(QHash<QString,QVariant> const *)
PUBLIC e3680 0 `anonymous namespace'::TypeInfo::delegate<QHash<QString,QVariant> >(QHash<QString,QVariant> const *)
PUBLIC e36f0 0 `anonymous namespace'::TypeDestructor::delegate<QList<QByteArray> >(QList<QByteArray> const *)
PUBLIC e3740 0 `anonymous namespace'::TypeInfo::delegate<QList<QByteArray> >(QList<QByteArray> const *)
PUBLIC e37b0 0 `anonymous namespace'::TypeDestroyer::delegate<QList<QVariant> >(QList<QVariant> const *)
PUBLIC e37f0 0 `anonymous namespace'::TypeDestructor::delegate<QList<QVariant> >(QList<QVariant> const *)
PUBLIC e3820 0 `anonymous namespace'::TypeInfo::delegate<QList<QVariant> >(QList<QVariant> const *)
PUBLIC e3890 0 `anonymous namespace'::TypeDestroyer::delegate<QMap<QString,QVariant> >(QMap<QString,QVariant> const *)
PUBLIC e38f0 0 `anonymous namespace'::TypeDestructor::delegate<QMap<QString,QVariant> >(QMap<QString,QVariant> const *)
PUBLIC e3940 0 `anonymous namespace'::TypeInfo::delegate<QMap<QString,QVariant> >(QMap<QString,QVariant> const *)
PUBLIC e39b0 0 `anonymous namespace'::TypeDestructor::delegate<QBitArray>(QBitArray const *)
PUBLIC e39e0 0 `anonymous namespace'::TypeCreator::delegate<QBitArray>(QBitArray const *)
PUBLIC e3a40 0 `anonymous namespace'::TypeDestroyer::delegate<QBitArray>(QBitArray const *)
PUBLIC e3a80 0 `anonymous namespace'::TypeInfo::delegate<QBitArray>(QBitArray const *)
PUBLIC e3af0 0 `anonymous namespace'::TypeInfo::delegate<QChar>(QChar const *)
PUBLIC e3b60 0 `anonymous namespace'::TypeCreator::delegate<QDate>(QDate const *)
PUBLIC e3ba0 0 `anonymous namespace'::TypeInfo::delegate<QDate>(QDate const *)
PUBLIC e3c10 0 `anonymous namespace'::TypeDestroyer::delegate<QDateTime>(QDateTime const *)
PUBLIC e3c30 0 `anonymous namespace'::TypeInfo::delegate<QDateTime>(QDateTime const *)
PUBLIC e3ca0 0 `anonymous namespace'::TypeDestroyer::delegate<QEasingCurve>(QEasingCurve const *)
PUBLIC e3cc0 0 `anonymous namespace'::TypeInfo::delegate<QEasingCurve>(QEasingCurve const *)
PUBLIC e3d30 0 `anonymous namespace'::TypeDestructor::delegate<QBitmap>(QBitmap const *)
PUBLIC e3d50 0 `anonymous namespace'::TypeCreator::delegate<QBitmap>(QBitmap const *)
PUBLIC e3d80 0 `anonymous namespace'::SizeOf::delegate<QBitmap>(QBitmap const *)
PUBLIC e3da0 0 `anonymous namespace'::TypeInfo::delegate<QJsonArray>(QJsonArray const *)
PUBLIC e3e10 0 `anonymous namespace'::TypeInfo::delegate<QJsonDocument>(QJsonDocument const *)
PUBLIC e3e80 0 `anonymous namespace'::TypeDestroyer::delegate<QJsonArray>(QJsonArray const *)
PUBLIC e3ea0 0 `anonymous namespace'::TypeDestroyer::delegate<QJsonValue>(QJsonValue const *)
PUBLIC e3ec0 0 `anonymous namespace'::TypeInfo::delegate<QJsonValue>(QJsonValue const *)
PUBLIC e3f30 0 `anonymous namespace'::TypeCreator::delegate<QLine>(QLine const *)
PUBLIC e3f80 0 `anonymous namespace'::TypeInfo::delegate<QLine>(QLine const *)
PUBLIC e4000 0 `anonymous namespace'::TypeInfo::delegate<QLineF>(QLineF const *)
PUBLIC e4070 0 `anonymous namespace'::TypeDestroyer::delegate<QLocale>(QLocale const *)
PUBLIC e4090 0 `anonymous namespace'::TypeInfo::delegate<QLocale>(QLocale const *)
PUBLIC e4100 0 `anonymous namespace'::TypeInfo::delegate<QBitmap>(QBitmap const *)
PUBLIC e4140 0 `anonymous namespace'::TypeCreator::delegate<QModelIndex>(QModelIndex const *)
PUBLIC e4190 0 `anonymous namespace'::TypeInfo::delegate<QModelIndex>(QModelIndex const *)
PUBLIC e4200 0 `anonymous namespace'::Flags::delegate<QBitmap>(QBitmap const *)
PUBLIC e4220 0 `anonymous namespace'::TypeCreator::delegate<QPoint>(QPoint const *)
PUBLIC e4260 0 `anonymous namespace'::TypeInfo::delegate<QPoint>(QPoint const *)
PUBLIC e42d0 0 `anonymous namespace'::TypeCreator::delegate<QPointF>(QPointF const *)
PUBLIC e4310 0 `anonymous namespace'::TypeInfo::delegate<QPointF>(QPointF const *)
PUBLIC e4380 0 `anonymous namespace'::TypeCreator::delegate<QRect>(QRect const *)
PUBLIC e43d0 0 `anonymous namespace'::TypeInfo::delegate<QRect>(QRect const *)
PUBLIC e4440 0 `anonymous namespace'::TypeCreator::delegate<QLineF>(QLineF const *)
PUBLIC e4490 0 `anonymous namespace'::TypeDestroyer::delegate<QRegExp>(QRegExp const *)
PUBLIC e44b0 0 `anonymous namespace'::TypeInfo::delegate<QRegExp>(QRegExp const *)
PUBLIC e4520 0 `anonymous namespace'::TypeDestroyer::delegate<QRegularExpression>(QRegularExpression const *)
PUBLIC e4540 0 `anonymous namespace'::TypeInfo::delegate<QRegularExpression>(QRegularExpression const *)
PUBLIC e45b0 0 `anonymous namespace'::TypeCreator::delegate<QSize>(QSize const *)
PUBLIC e45f0 0 `anonymous namespace'::TypeInfo::delegate<QSize>(QSize const *)
PUBLIC e4660 0 `anonymous namespace'::TypeCreator::delegate<QSizeF>(QSizeF const *)
PUBLIC e46a0 0 `anonymous namespace'::TypeInfo::delegate<QSizeF>(QSizeF const *)
PUBLIC e4710 0 `anonymous namespace'::Flags::delegate<QSizePolicy>(QSizePolicy const *)
PUBLIC e4730 0 `anonymous namespace'::SizeOf::delegate<QSizePolicy>(QSizePolicy const *)
PUBLIC e4750 0 `anonymous namespace'::TypeCreator::delegate<QSizePolicy>(QSizePolicy const *)
PUBLIC e4780 0 `anonymous namespace'::TypeDestroyer::delegate<QSizePolicy>(QSizePolicy const *)
PUBLIC e47a0 0 `anonymous namespace'::TypeDestructor::delegate<QSizePolicy>(QSizePolicy const *)
PUBLIC e47c0 0 `anonymous namespace'::TypeInfo::delegate<QSizePolicy>(QSizePolicy const *)
PUBLIC e4800 0 `anonymous namespace'::TypeDestroyer::delegate<QString>(QString const *)
PUBLIC e4840 0 `anonymous namespace'::TypeDestructor::delegate<QString>(QString const *)
PUBLIC e4870 0 `anonymous namespace'::TypeInfo::delegate<QString>(QString const *)
PUBLIC e48e0 0 `anonymous namespace'::TypeDestructor::delegate<QStringList>(QStringList const *)
PUBLIC e4930 0 `anonymous namespace'::TypeInfo::delegate<QStringList>(QStringList const *)
PUBLIC e49a0 0 `anonymous namespace'::TypeCreator::delegate<QTime>(QTime const *)
PUBLIC e49e0 0 `anonymous namespace'::TypeInfo::delegate<QTime>(QTime const *)
PUBLIC e4a50 0 `anonymous namespace'::TypeDestroyer::delegate<QBitmap>(QBitmap const *)
PUBLIC e4a70 0 `anonymous namespace'::TypeDestroyer::delegate<QUrl>(QUrl const *)
PUBLIC e4a90 0 `anonymous namespace'::TypeInfo::delegate<QUrl>(QUrl const *)
PUBLIC e4b00 0 `anonymous namespace'::TypeCreator::delegate<QUuid>(QUuid const *)
PUBLIC e4b50 0 `anonymous namespace'::TypeInfo::delegate<QUuid>(QUuid const *)
PUBLIC e4bc0 0 `anonymous namespace'::TypeDestroyer::delegate<QVariant>(QVariant const *)
PUBLIC e4be0 0 `anonymous namespace'::TypeInfo::delegate<QVariant>(QVariant const *)
PUBLIC e4c50 0 `anonymous namespace'::TypeInfo::delegate<void>(void const *)
PUBLIC e4cc0 0 `anonymous namespace'::TypeInfo::delegate<__int64>(__int64 const *)
PUBLIC e4f50 0 QMetaTypeSwitcher::switcher<int,`anonymous namespace'::SizeOf>(`anonymous namespace'::SizeOf &,int,void const *)
PUBLIC e5200 0 QMetaTypeSwitcher::switcher<unsigned int,`anonymous namespace'::Flags>(`anonymous namespace'::Flags &,int,void const *)
PUBLIC e54a0 0 QMetaTypeSwitcher::switcher<void *,`anonymous namespace'::TypeCreator>(`anonymous namespace'::TypeCreator &,int,void const *)
PUBLIC e5ac0 0 QMetaTypeSwitcher::switcher<void,`anonymous namespace'::TypeDestroyer>(`anonymous namespace'::TypeDestroyer &,int,void const *)
PUBLIC e5e90 0 QMetaTypeSwitcher::switcher<void,`anonymous namespace'::TypeDestructor>(`anonymous namespace'::TypeDestructor &,int,void const *)
PUBLIC e6220 0 QMetaTypeSwitcher::switcher<void,`anonymous namespace'::TypeInfo>(`anonymous namespace'::TypeInfo &,int,void const *)
PUBLIC e6800 0 QList<QVariant>::QList<QVariant>(QList<QVariant> const &)
PUBLIC e68c0 0 QMap<QString,QVariant>::QMap<QString,QVariant>(QMap<QString,QVariant> const &)
PUBLIC e6930 0 QCustomTypeInfo::QCustomTypeInfo()
PUBLIC e69b0 0 QMetaType::QMetaType(int)
PUBLIC e6a50 0 QMetaTypeFunctionRegistry<QtPrivate::AbstractComparatorFunction,int>::~QMetaTypeFunctionRegistry<QtPrivate::AbstractComparatorFunction,int>()
PUBLIC e6bc0 0 QBitArray::~QBitArray()
PUBLIC e6bf0 0 QCustomTypeInfo::~QCustomTypeInfo()
PUBLIC e6c20 0 QHash<QPair<int,int>,QtPrivate::AbstractConverterFunction const *>::operator[](QPair<int,int> const &)
PUBLIC e6d10 0 QtMetaTypePrivate::QMetaTypeFunctionHelper<signed char,1>::Construct(void *,void const *)
PUBLIC e6d40 0 QtMetaTypePrivate::QMetaTypeFunctionHelper<short,1>::Construct(void *,void const *)
PUBLIC e6d70 0 QtMetaTypePrivate::QMetaTypeFunctionHelper<double,1>::Construct(void *,void const *)
PUBLIC e6d90 0 QtMetaTypePrivate::QMetaTypeFunctionHelper<int,1>::Construct(void *,void const *)
PUBLIC e6dc0 0 QtMetaTypePrivate::QMetaTypeFunctionHelper<QHash<QString,QVariant>,1>::Construct(void *,void const *)
PUBLIC e6e90 0 QtMetaTypePrivate::QMetaTypeFunctionHelper<QList<QByteArray>,1>::Construct(void *,void const *)
PUBLIC e6f20 0 QtMetaTypePrivate::QMetaTypeFunctionHelper<QList<QVariant>,1>::Construct(void *,void const *)
PUBLIC e6fb0 0 QtMetaTypePrivate::QMetaTypeFunctionHelper<QMap<QString,QVariant>,1>::Construct(void *,void const *)
PUBLIC e7040 0 QtMetaTypePrivate::QMetaTypeFunctionHelper<QBitArray,1>::Construct(void *,void const *)
PUBLIC e7090 0 QtMetaTypePrivate::QMetaTypeFunctionHelper<QChar,1>::Construct(void *,void const *)
PUBLIC e70c0 0 QtMetaTypePrivate::QMetaTypeFunctionHelper<QDate,1>::Construct(void *,void const *)
PUBLIC e7100 0 QtMetaTypePrivate::QMetaTypeFunctionHelper<QDateTime,1>::Construct(void *,void const *)
PUBLIC e7190 0 QtMetaTypePrivate::QMetaTypeFunctionHelper<QEasingCurve,1>::Construct(void *,void const *)
PUBLIC e7220 0 QtMetaTypePrivate::QMetaTypeFunctionHelper<QJsonArray,1>::Construct(void *,void const *)
PUBLIC e72b0 0 QtMetaTypePrivate::QMetaTypeFunctionHelper<QJsonDocument,1>::Construct(void *,void const *)
PUBLIC e7340 0 QtMetaTypePrivate::QMetaTypeFunctionHelper<QJsonValue,1>::Construct(void *,void const *)
PUBLIC e73d0 0 QtMetaTypePrivate::QMetaTypeFunctionHelper<QLine,1>::Construct(void *,void const *)
PUBLIC e7410 0 QtMetaTypePrivate::QMetaTypeFunctionHelper<QLocale,1>::Construct(void *,void const *)
PUBLIC e74a0 0 QtMetaTypePrivate::QMetaTypeFunctionHelper<QModelIndex,1>::Construct(void *,void const *)
PUBLIC e74e0 0 QtMetaTypePrivate::QMetaTypeFunctionHelper<QPoint,1>::Construct(void *,void const *)
PUBLIC e7520 0 QtMetaTypePrivate::QMetaTypeFunctionHelper<QPointF,1>::Construct(void *,void const *)
PUBLIC e7550 0 QtMetaTypePrivate::QMetaTypeFunctionHelper<QRect,1>::Construct(void *,void const *)
PUBLIC e7590 0 QtMetaTypePrivate::QMetaTypeFunctionHelper<QLineF,1>::Construct(void *,void const *)
PUBLIC e75d0 0 QtMetaTypePrivate::QMetaTypeFunctionHelper<QRegExp,1>::Construct(void *,void const *)
PUBLIC e7660 0 QtMetaTypePrivate::QMetaTypeFunctionHelper<QRegularExpression,1>::Construct(void *,void const *)
PUBLIC e76f0 0 QtMetaTypePrivate::QMetaTypeFunctionHelper<QSize,1>::Construct(void *,void const *)
PUBLIC e7730 0 QtMetaTypePrivate::QMetaTypeFunctionHelper<QSizeF,1>::Construct(void *,void const *)
PUBLIC e7760 0 QtMetaTypePrivate::QMetaTypeFunctionHelper<QStringList,1>::Construct(void *,void const *)
PUBLIC e7800 0 QtMetaTypePrivate::QMetaTypeFunctionHelper<QTime,1>::Construct(void *,void const *)
PUBLIC e7830 0 QtMetaTypePrivate::QMetaTypeFunctionHelper<QUuid,1>::Construct(void *,void const *)
PUBLIC e7870 0 QtMetaTypePrivate::QMetaTypeFunctionHelper<QVariant,1>::Construct(void *,void const *)
PUBLIC e7900 0 QtMetaTypePrivate::QMetaTypeFunctionHelper<__int64,1>::Construct(void *,void const *)
PUBLIC e7930 0 `anonymous namespace'::TypeCreator::CreatorImpl<QHash<QString,QVariant>,1>::Create(int,void const *)
PUBLIC e7a00 0 `anonymous namespace'::TypeCreator::CreatorImpl<QList<QByteArray>,1>::Create(int,void const *)
PUBLIC e7a90 0 `anonymous namespace'::TypeCreator::CreatorImpl<QList<QVariant>,1>::Create(int,void const *)
PUBLIC e7b20 0 `anonymous namespace'::TypeCreator::CreatorImpl<QMap<QString,QVariant>,1>::Create(int,void const *)
PUBLIC e7bb0 0 `anonymous namespace'::TypeCreator::CreatorImpl<QDateTime,1>::Create(int,void const *)
PUBLIC e7c50 0 `anonymous namespace'::TypeCreator::CreatorImpl<QEasingCurve,1>::Create(int,void const *)
PUBLIC e7cf0 0 `anonymous namespace'::TypeCreator::CreatorImpl<QJsonArray,1>::Create(int,void const *)
PUBLIC e7d90 0 `anonymous namespace'::TypeCreator::CreatorImpl<QJsonDocument,1>::Create(int,void const *)
PUBLIC e7e30 0 `anonymous namespace'::TypeCreator::CreatorImpl<QJsonValue,1>::Create(int,void const *)
PUBLIC e7ed0 0 `anonymous namespace'::TypeCreator::CreatorImpl<QLocale,1>::Create(int,void const *)
PUBLIC e7f70 0 `anonymous namespace'::TypeCreator::CreatorImpl<QRegExp,1>::Create(int,void const *)
PUBLIC e8010 0 `anonymous namespace'::TypeCreator::CreatorImpl<QRegularExpression,1>::Create(int,void const *)
PUBLIC e80b0 0 `anonymous namespace'::TypeCreator::CreatorImpl<QStringList,1>::Create(int,void const *)
PUBLIC e8160 0 `anonymous namespace'::TypeCreator::CreatorImpl<QVariant,1>::Create(int,void const *)
PUBLIC e81f0 0 QtMetaTypePrivate::QMetaTypeFunctionHelper<signed char,1>::Create(void const *)
PUBLIC e8220 0 QtMetaTypePrivate::QMetaTypeFunctionHelper<short,1>::Create(void const *)
PUBLIC e8250 0 QtMetaTypePrivate::QMetaTypeFunctionHelper<double,1>::Create(void const *)
PUBLIC e8290 0 QtMetaTypePrivate::QMetaTypeFunctionHelper<QHash<QString,QVariant>,1>::Create(void const *)
PUBLIC e8360 0 QtMetaTypePrivate::QMetaTypeFunctionHelper<QList<QByteArray>,1>::Create(void const *)
PUBLIC e83f0 0 QtMetaTypePrivate::QMetaTypeFunctionHelper<QList<QVariant>,1>::Create(void const *)
PUBLIC e8480 0 QtMetaTypePrivate::QMetaTypeFunctionHelper<QMap<QString,QVariant>,1>::Create(void const *)
PUBLIC e8510 0 QtMetaTypePrivate::QMetaTypeFunctionHelper<QDate,1>::Create(void const *)
PUBLIC e8550 0 QtMetaTypePrivate::QMetaTypeFunctionHelper<QDateTime,1>::Create(void const *)
PUBLIC e85f0 0 QtMetaTypePrivate::QMetaTypeFunctionHelper<QEasingCurve,1>::Create(void const *)
PUBLIC e8690 0 QtMetaTypePrivate::QMetaTypeFunctionHelper<QJsonArray,1>::Create(void const *)
PUBLIC e8730 0 QtMetaTypePrivate::QMetaTypeFunctionHelper<QJsonDocument,1>::Create(void const *)
PUBLIC e87d0 0 QtMetaTypePrivate::QMetaTypeFunctionHelper<QJsonValue,1>::Create(void const *)
PUBLIC e8870 0 QtMetaTypePrivate::QMetaTypeFunctionHelper<QLine,1>::Create(void const *)
PUBLIC e88c0 0 QtMetaTypePrivate::QMetaTypeFunctionHelper<QLocale,1>::Create(void const *)
PUBLIC e8960 0 QtMetaTypePrivate::QMetaTypeFunctionHelper<QModelIndex,1>::Create(void const *)
PUBLIC e89b0 0 QtMetaTypePrivate::QMetaTypeFunctionHelper<QPointF,1>::Create(void const *)
PUBLIC e89f0 0 QtMetaTypePrivate::QMetaTypeFunctionHelper<QRect,1>::Create(void const *)
PUBLIC e8a40 0 QtMetaTypePrivate::QMetaTypeFunctionHelper<QLineF,1>::Create(void const *)
PUBLIC e8a80 0 QtMetaTypePrivate::QMetaTypeFunctionHelper<QRegExp,1>::Create(void const *)
PUBLIC e8b20 0 QtMetaTypePrivate::QMetaTypeFunctionHelper<QRegularExpression,1>::Create(void const *)
PUBLIC e8bc0 0 QtMetaTypePrivate::QMetaTypeFunctionHelper<QSize,1>::Create(void const *)
PUBLIC e8c00 0 QtMetaTypePrivate::QMetaTypeFunctionHelper<QSizeF,1>::Create(void const *)
PUBLIC e8c40 0 QtMetaTypePrivate::QMetaTypeFunctionHelper<QBitArray,1>::Create(void const *)
PUBLIC e8c90 0 QtMetaTypePrivate::QMetaTypeFunctionHelper<QStringList,1>::Create(void const *)
PUBLIC e8d40 0 QtMetaTypePrivate::QMetaTypeFunctionHelper<QTime,1>::Create(void const *)
PUBLIC e8d70 0 QtMetaTypePrivate::QMetaTypeFunctionHelper<QUuid,1>::Create(void const *)
PUBLIC e8db0 0 QtMetaTypePrivate::QMetaTypeFunctionHelper<QVariant,1>::Create(void const *)
PUBLIC e8e40 0 QtMetaTypePrivate::QMetaTypeFunctionHelper<QPoint,1>::Create(void const *)
PUBLIC e8e80 0 QtMetaTypePrivate::QMetaTypeFunctionHelper<QHash<QString,QVariant>,1>::Delete(void *)
PUBLIC e8ec0 0 QtMetaTypePrivate::QMetaTypeFunctionHelper<QList<QByteArray>,1>::Delete(void *)
PUBLIC e8f20 0 QtMetaTypePrivate::QMetaTypeFunctionHelper<QList<QVariant>,1>::Delete(void *)
PUBLIC e8f60 0 QtMetaTypePrivate::QMetaTypeFunctionHelper<QMap<QString,QVariant>,1>::Delete(void *)
PUBLIC e8fc0 0 QtMetaTypePrivate::QMetaTypeFunctionHelper<QBitArray,1>::Delete(void *)
PUBLIC e9000 0 QtMetaTypePrivate::QMetaTypeFunctionHelper<QDateTime,1>::Delete(void *)
PUBLIC e9020 0 QtMetaTypePrivate::QMetaTypeFunctionHelper<QEasingCurve,1>::Delete(void *)
PUBLIC e9040 0 QtMetaTypePrivate::QMetaTypeFunctionHelper<QJsonArray,1>::Delete(void *)
PUBLIC e9060 0 QtMetaTypePrivate::QMetaTypeFunctionHelper<QJsonValue,1>::Delete(void *)
PUBLIC e9080 0 QtMetaTypePrivate::QMetaTypeFunctionHelper<QLocale,1>::Delete(void *)
PUBLIC e90a0 0 QtMetaTypePrivate::QMetaTypeFunctionHelper<QRegExp,1>::Delete(void *)
PUBLIC e90c0 0 QtMetaTypePrivate::QMetaTypeFunctionHelper<QRegularExpression,1>::Delete(void *)
PUBLIC e90e0 0 QtMetaTypePrivate::QMetaTypeFunctionHelper<QString,1>::Delete(void *)
PUBLIC e9120 0 QtMetaTypePrivate::QMetaTypeFunctionHelper<QStringList,1>::Delete(void *)
PUBLIC e9180 0 QtMetaTypePrivate::QMetaTypeFunctionHelper<QUrl,1>::Delete(void *)
PUBLIC e91a0 0 QtMetaTypePrivate::QMetaTypeFunctionHelper<QVariant,1>::Delete(void *)
PUBLIC e91c0 0 QtSharedPointer::ExternalRefCountData::~ExternalRefCountData()
PUBLIC e91d0 0 QtMetaTypePrivate::QMetaTypeFunctionHelper<QHash<QString,QVariant>,1>::Destruct(void *)
PUBLIC e9200 0 QtMetaTypePrivate::QMetaTypeFunctionHelper<QList<QByteArray>,1>::Destruct(void *)
PUBLIC e9250 0 QtMetaTypePrivate::QMetaTypeFunctionHelper<QList<QVariant>,1>::Destruct(void *)
PUBLIC e9280 0 QtMetaTypePrivate::QMetaTypeFunctionHelper<QMap<QString,QVariant>,1>::Destruct(void *)
PUBLIC e92d0 0 QtMetaTypePrivate::QMetaTypeFunctionHelper<QBitArray,1>::Destruct(void *)
PUBLIC e9300 0 QtMetaTypePrivate::QMetaTypeFunctionHelper<QDateTime,1>::Destruct(void *)
PUBLIC e9310 0 QtMetaTypePrivate::QMetaTypeFunctionHelper<QEasingCurve,1>::Destruct(void *)
PUBLIC e9320 0 QtMetaTypePrivate::QMetaTypeFunctionHelper<QJsonArray,1>::Destruct(void *)
PUBLIC e9330 0 QtMetaTypePrivate::QMetaTypeFunctionHelper<QJsonValue,1>::Destruct(void *)
PUBLIC e9340 0 QtMetaTypePrivate::QMetaTypeFunctionHelper<QLocale,1>::Destruct(void *)
PUBLIC e9350 0 QtMetaTypePrivate::QMetaTypeFunctionHelper<QRegExp,1>::Destruct(void *)
PUBLIC e9360 0 QtMetaTypePrivate::QMetaTypeFunctionHelper<QRegularExpression,1>::Destruct(void *)
PUBLIC e9370 0 QtMetaTypePrivate::QMetaTypeFunctionHelper<QString,1>::Destruct(void *)
PUBLIC e93a0 0 QtMetaTypePrivate::QMetaTypeFunctionHelper<QStringList,1>::Destruct(void *)
PUBLIC e93f0 0 QtMetaTypePrivate::QMetaTypeFunctionHelper<QUrl,1>::Destruct(void *)
PUBLIC e9400 0 QtMetaTypePrivate::QMetaTypeFunctionHelper<QVariant,1>::Destruct(void *)
PUBLIC e9410 0 QVector<QCustomTypeInfo>::append(QCustomTypeInfo const &)
PUBLIC e9560 0 QMetaType::compare(void const *,void const *,int,int *)
PUBLIC e95e0 0 QAbstractFileEngine::beginEntryList(QFlags<QDir::Filter>,QStringList const &)
PUBLIC e95f0 0 QHash<QPair<int,int>,QtPrivate::AbstractConverterFunction const *>::contains(QPair<int,int> const &)
PUBLIC e9650 0 QMetaType::convert(void const *,int,void *,int)
PUBLIC e96a0 0 QMetaType::create(int,void const *)
PUBLIC e96c0 0 QMetaType::createExtended(void const *)
PUBLIC e96d0 0 `anonymous namespace'::TypeDestroyer::customTypeDestroyer(int,void *)
PUBLIC e97c0 0 `anonymous namespace'::TypeDestructor::customTypeDestructor(int,void *)
PUBLIC e98b0 0 `anonymous namespace'::Flags::customTypeFlags(int)
PUBLIC e9990 0 `anonymous namespace'::TypeInfo::customTypeInfo(unsigned int)
PUBLIC e9a30 0 `anonymous namespace'::SizeOf::customTypeSizeOf(int)
PUBLIC e9af0 0 QMetaType::debugStream(QDebug &,void const *,int)
PUBLIC e9b30 0 QVector<QCustomTypeInfo>::defaultConstruct(QCustomTypeInfo *,QCustomTypeInfo *)
PUBLIC e9bc0 0 `anonymous namespace'::TypeCreator::delegate(QMetaTypeSwitcher::NotBuiltinType const *)
PUBLIC e9cc0 0 QMetaType::destroy(int,void *)
PUBLIC e9ce0 0 QVector<QCustomTypeInfo>::destruct(QCustomTypeInfo *,QCustomTypeInfo *)
PUBLIC e9d30 0 QMetaType::destruct(int,void *)
PUBLIC e9d50 0 QHash<QPair<int,int>,QtPrivate::AbstractConverterFunction const *>::detach()
PUBLIC e9db0 0 QHash<QPair<int,int>,QtPrivate::AbstractConverterFunction const *>::duplicateNode(QHashData::Node *,void *)
PUBLIC e9de0 0 QHash<QPair<int,int>,QtPrivate::AbstractConverterFunction const *>::findNode(QPair<int,int> const &,unsigned int *)
PUBLIC e9e50 0 QMetaTypeFunctionRegistry<QtPrivate::AbstractComparatorFunction,int>::function(int)
PUBLIC e9ec0 0 QMetaTypeFunctionRegistry<QtPrivate::AbstractConverterFunction,QPair<int,int> >::function(QPair<int,int>)
PUBLIC e9f30 0 QMetaType::hasRegisteredConverterFunction(int,int)
PUBLIC e9fb0 0 `anonymous namespace'::Q_QGS_customTypes::innerFunction()
PUBLIC ea070 0 `anonymous namespace'::Q_QGS_customTypesComparatorRegistry::innerFunction()
PUBLIC ea150 0 `anonymous namespace'::Q_QGS_customTypesConversionRegistry::innerFunction()
PUBLIC ea230 0 `anonymous namespace'::Q_QGS_customTypesDebugStreamRegistry::innerFunction()
PUBLIC ea310 0 `anonymous namespace'::Q_QGS_customTypesLock::innerFunction()
PUBLIC ea3e0 0 QMetaTypeFunctionRegistry<QtPrivate::AbstractConverterFunction,QPair<int,int> >::insertIfNotContains(QPair<int,int>,QtPrivate::AbstractConverterFunction const *)
PUBLIC ea490 0 QMetaType::isRegistered(int)
PUBLIC ea6c0 0 qMetaTypeTypeInternal(char const *)
PUBLIC ea6d0 0 QVector<QCustomTypeInfo>::reallocData(int,int,QFlags<QArrayData::AllocationOption>)
PUBLIC ea960 0 QMetaType::registerConverterFunction(QtPrivate::AbstractConverterFunction const *,int,int)
PUBLIC ea9f0 0 QMetaType::registerNormalizedType(QByteArray const &,void (*)(void *),void * (*)(void const *),void (*)(void *),void * (*)(void *,void const *),int,QFlags<QMetaType::TypeFlag>,QMetaObject const *)
PUBLIC eace0 0 QMetaType::registerNormalizedTypedef(QByteArray const &,int)
PUBLIC eaeb0 0 QHash<QPair<int,int>,QtPrivate::AbstractConverterFunction const *>::remove(QPair<int,int> const &)
PUBLIC eaf90 0 QMetaTypeFunctionRegistry<QtPrivate::AbstractConverterFunction,QPair<int,int> >::remove(int,int)
PUBLIC eb030 0 QMetaType::sizeOf(int)
PUBLIC eb050 0 QMetaType::type(char const *)
PUBLIC eb060 0 QMetaType::typeFlags(int)
PUBLIC eb090 0 QMetaType::typeInfo(int)
PUBLIC eb1f0 0 QMetaType::typeName(int)
PUBLIC eb870 0 QMetaType::unregisterConverterFunction(int,int)
PUBLIC eb890 0 QHash<int,QtPrivate::AbstractComparatorFunction const *>::value(int const &,QtPrivate::AbstractComparatorFunction const * const &)
PUBLIC eb900 0 QHash<QPair<int,int>,QtPrivate::AbstractConverterFunction const *>::value(QPair<int,int> const &,QtPrivate::AbstractConverterFunction const * const &)
PUBLIC eb980 0 QCommandLineOption::QCommandLineOption(QString const &,QString const &,QString const &,QString const &)
PUBLIC ebaf0 0 QCommandLineOptionPrivate::QCommandLineOptionPrivate(QCommandLineOptionPrivate const &)
PUBLIC ebb90 0 QSharedDataPointer<QCommandLineOptionPrivate>::~QSharedDataPointer<QCommandLineOptionPrivate>()
PUBLIC ebbc0 0 QCommandLineOptionPrivate::~QCommandLineOptionPrivate()
PUBLIC ebcf0 0 QCommandLineOption::defaultValues()
PUBLIC ebd10 0 QCommandLineOption::description()
PUBLIC ebd40 0 QSharedDataPointer<QCommandLineOptionPrivate>::detach_helper()
PUBLIC ebde0 0 QCommandLineOption::names()
PUBLIC ebe00 0 QCommandLineOption::setDefaultValue(QString const &)
PUBLIC ebf00 0 QCommandLineOptionPrivate::setNames(QStringList const &)
PUBLIC ec1e0 0 operator+=<QStringBuilder<QString,QString>,QLatin1Char>(QString &,QStringBuilder<QStringBuilder<QString,QString>,QLatin1Char> const &)
PUBLIC ec2e0 0 operator+=<QStringRef,QLatin1Char>(QString &,QStringBuilder<QStringRef,QLatin1Char> const &)
PUBLIC ec3d0 0 QStringBuilder<QStringBuilder<QString,QString>,QLatin1Char>::convertTo<QString>()
PUBLIC ec4a0 0 QList<QCommandLineOption>::QList<QCommandLineOption>(QList<QCommandLineOption> const &)
PUBLIC ec560 0 QVector<QCommandLineParserPrivate::PositionalArgumentDefinition>::QVector<QCommandLineParserPrivate::PositionalArgumentDefinition>(QVector<QCommandLineParserPrivate::PositionalArgumentDefinition> const &)
PUBLIC ec600 0 QCommandLineParser::QCommandLineParser()
PUBLIC ec670 0 QForeachContainer<QList<QCommandLineOption> >::~QForeachContainer<QList<QCommandLineOption> >()
PUBLIC ec680 0 QForeachContainer<QVector<QCommandLineParserPrivate::PositionalArgumentDefinition> >::~QForeachContainer<QVector<QCommandLineParserPrivate::PositionalArgumentDefinition> >()
PUBLIC ec690 0 QHash<int,QStringList>::~QHash<int,QStringList>()
PUBLIC ec6c0 0 QList<QCommandLineOption>::~QList<QCommandLineOption>()
PUBLIC ec720 0 QCommandLineParser::~QCommandLineParser()
PUBLIC ec740 0 QCommandLineParserPrivate::~QCommandLineParserPrivate()
PUBLIC ec920 0 QHash<int,QStringList>::operator[](int const &)
PUBLIC ecab0 0 QStringBuilder<QStringBuilder<QString,QString>,QLatin1Char>::operator QString()
PUBLIC ecbd0 0 QCommandLineParser::addOption(QCommandLineOption const &)
PUBLIC ecee0 0 QCommandLineParserPrivate::aliases(QString const &)
PUBLIC ed040 0 QList<QCommandLineOption>::append(QCommandLineOption const &)
PUBLIC ed120 0 QHash<QString,int>::constFind(QString const &)
PUBLIC ed1a0 0 QVector<QCommandLineParserPrivate::PositionalArgumentDefinition>::copyConstruct(QCommandLineParserPrivate::PositionalArgumentDefinition const *,QCommandLineParserPrivate::PositionalArgumentDefinition const *,QCommandLineParserPrivate::PositionalArgumentDefinition *)
PUBLIC ed220 0 QHash<int,QStringList>::deleteNode2(QHashData::Node *)
PUBLIC ed270 0 QList<QCommandLineOption>::detach_helper_grow(int,int)
PUBLIC ed3d0 0 QHash<int,QStringList>::duplicateNode(QHashData::Node *,void *)
PUBLIC ed440 0 QHash<QByteArray,QTextCodec *>::duplicateNode(QHashData::Node *,void *)
PUBLIC ed480 0 QHash<QString,int>::end()
PUBLIC ed4e0 0 QCommandLineParser::errorText()
PUBLIC ed730 0 QHash<QString,int>::find(QString const &)
PUBLIC ed800 0 QCommandLineParserPrivate::helpText()
PUBLIC ee6b0 0 QHash<QString,int>::insert(QString const &,int const &)
PUBLIC ee780 0 QCommandLineParser::isSet(QString const &)
PUBLIC ee9e0 0 QList<QCommandLineOption>::node_copy(QList<QCommandLineOption>::Node *,QList<QCommandLineOption>::Node *,QList<QCommandLineOption>::Node *)
PUBLIC eea80 0 QList<QCommandLineOption>::node_destruct(QList<QCommandLineOption>::Node *,QList<QCommandLineOption>::Node *)
PUBLIC eeab0 0 QCommandLineParserPrivate::parse(QStringList const &)
PUBLIC ef240 0 QCommandLineParserPrivate::parseOptionValue(QString const &,QString const &,QList<QString>::const_iterator *,QList<QString>::const_iterator)
PUBLIC ef4f0 0 QCommandLineParser::process(QStringList const &)
PUBLIC ef700 0 QCommandLineParserPrivate::registerFoundOption(QString const &)
PUBLIC ef740 0 QString::section(QChar,int,int,QFlags<QString::SectionFlag>)
PUBLIC ef7f0 0 QCommandLineParser::showHelp(int)
PUBLIC ef8c0 0 QCommandLineParser::showVersion()
PUBLIC efa10 0 QCommandLineParser::tr(char const *,char const *,int)
PUBLIC efa40 0 QHash<int,QStringList>::value(int const &)
PUBLIC efad0 0 QCommandLineParser::value(QString const &)
PUBLIC efbf0 0 QCommandLineParser::value(QCommandLineOption const &)
PUBLIC efce0 0 QCommandLineParser::values(QString const &)
PUBLIC f0290 0 QTextStream::QTextStream(QByteArray const &,QFlags<QIODevice::OpenModeFlag>)
PUBLIC f03a0 0 QTextStream::QTextStream(QIODevice *)
PUBLIC f0470 0 QTextStream::QTextStream(QString *,QFlags<QIODevice::OpenModeFlag>)
PUBLIC f0500 0 QTextStreamPrivate::QTextStreamPrivate(QTextStream *)
PUBLIC f0620 0 QScopedPointer<QTextStreamPrivate,QScopedPointerDeleter<QTextStreamPrivate> >::~QScopedPointer<QTextStreamPrivate,QScopedPointerDeleter<QTextStreamPrivate> >()
PUBLIC f0640 0 QDeviceClosedNotifier::~QDeviceClosedNotifier()
PUBLIC f0650 0 QTextStream::~QTextStream()
PUBLIC f06d0 0 QTextStreamPrivate::~QTextStreamPrivate()
PUBLIC f07e0 0 QTextStream::operator<<(QByteArray const &)
PUBLIC f08c0 0 QTextStream::operator<<(QString const &)
PUBLIC f0920 0 QTextStream::operator<<(char)
PUBLIC f09f0 0 QTextStream::operator<<(short)
PUBLIC f0a80 0 QTextStream::operator<<(unsigned short)
PUBLIC f0ae0 0 QTextStream::operator<<(int)
PUBLIC f0b60 0 QTextStream::operator<<(unsigned int)
PUBLIC f0bc0 0 QTextStream::operator<<(float)
PUBLIC f0be0 0 QTextStream::operator<<(double)
PUBLIC f0e60 0 QTextStream::operator<<(char const *)
PUBLIC f0f40 0 QTextStream::operator<<(void const *)
PUBLIC f0fd0 0 QTextStream::operator<<(QChar)
PUBLIC f10a0 0 QTextStream::operator<<(__int64)
PUBLIC f1130 0 QTextStream::operator<<(unsigned __int64)
PUBLIC f1190 0 QTextStream::`vector deleting destructor'(unsigned int)
PUBLIC f1220 0 QTextStream::atEnd()
PUBLIC f12a0 0 QTextCodec::codecForName(char const *)
PUBLIC f1330 0 QTextStreamPrivate::consume(int)
PUBLIC f13f0 0 endl(QTextStream &)
PUBLIC f1410 0 QTextStreamPrivate::fillReadBuffer(__int64)
PUBLIC f17e0 0 flush(QTextStream &)
PUBLIC f1800 0 QTextStream::flush()
PUBLIC f1810 0 QTextStreamPrivate::flushWriteBuffer()
PUBLIC f19d0 0 QTextStream::locale()
PUBLIC f1a00 0 QTextStreamPrivate::putNumber(unsigned __int64,bool)
PUBLIC f1cf0 0 QTextStreamPrivate::putString(QString const &,bool)
PUBLIC f1f60 0 QTextStream::readLine(__int64)
PUBLIC f2090 0 QTextStreamPrivate::reset()
PUBLIC f21d0 0 QTextStreamPrivate::saveConverterState(__int64)
PUBLIC f2270 0 QTextStreamPrivate::scan(QChar const * *,int *,int,QTextStreamPrivate::TokenDelimiter)
PUBLIC f24c0 0 QBuffer::qt_static_metacall(QObject *,QMetaObject::Call,int,void * *)
PUBLIC f2520 0 QBuffer::QBuffer(QByteArray *,QObject *)
PUBLIC f2610 0 QBuffer::QBuffer(QObject *)
PUBLIC f26e0 0 QBuffer::~QBuffer()
PUBLIC f26f0 0 QBuffer::`vector deleting destructor'(unsigned int)
PUBLIC f2720 0 QBufferPrivate::`vector deleting destructor'(unsigned int)
PUBLIC f2780 0 QBuffer::atEnd()
PUBLIC f2790 0 QBuffer::buffer()
PUBLIC f27a0 0 QBuffer::canReadLine()
PUBLIC f27f0 0 QBuffer::close()
PUBLIC f2800 0 QBuffer::connectNotify(QMetaMethod const &)
PUBLIC f28f0 0 QBuffer::disconnectNotify(QMetaMethod const &)
PUBLIC f2a00 0 QBuffer::metaObject()
PUBLIC f2a20 0 QBuffer::open(QFlags<QIODevice::OpenModeFlag>)
PUBLIC f2aa0 0 QBufferPrivate::peek(__int64)
PUBLIC f2b60 0 QBufferPrivate::peek(char *,__int64)
PUBLIC f2bc0 0 QBuffer::qt_metacall(QMetaObject::Call,int,void * *)
PUBLIC f2c20 0 QBuffer::qt_metacast(char const *)
PUBLIC f2c80 0 QBuffer::readData(char *,__int64)
PUBLIC f2d30 0 QBuffer::seek(__int64)
PUBLIC f2ef0 0 QBuffer::setData(QByteArray const &)
PUBLIC f2f50 0 QBuffer::size()
PUBLIC f2f60 0 QBuffer::writeData(char const *,__int64)
PUBLIC f3120 0 QEventLoop::QEventLoop(QObject *)
PUBLIC f3290 0 QEventLoop::~QEventLoop()
PUBLIC f32a0 0 QEventLoop::`vector deleting destructor'(unsigned int)
PUBLIC f32d0 0 QEventLoop::event(QEvent *)
PUBLIC f3310 0 QEventLoop::exec(QFlags<QEventLoop::ProcessEventsFlag>)
PUBLIC f3460 0 QEventLoop::exit(int)
PUBLIC f3490 0 QStack<QAbstractFileEngineIterator *>::pop()
PUBLIC f3530 0 QEventLoop::quit()
PUBLIC f4ab0 0 operator<<<QString,QVariant>(QDebug,QHash<QString,QVariant> const &)
PUBLIC f4cf0 0 operator<<<QString,QVariant>(QDebug,QMap<QString,QVariant> const &)
PUBLIC f4f10 0 operator<<<QVariant>(QDebug,QList<QVariant> const &)
PUBLIC f50b0 0 QVariant::canConvert<QString>()
PUBLIC f51a0 0 QVariantConstructor<`anonymous namespace'::CoreTypesFilter>::delegate<signed char>(signed char const *)
PUBLIC f51f0 0 QVariantDebugStream<`anonymous namespace'::CoreTypesFilter>::delegate<signed char>(signed char const *)
PUBLIC f5270 0 QVariantDebugStream<`anonymous namespace'::CoreTypesFilter>::delegate<char>(char const *)
PUBLIC f5300 0 QVariantDebugStream<`anonymous namespace'::CoreTypesFilter>::delegate<unsigned char>(unsigned char const *)
PUBLIC f5380 0 QVariantConstructor<`anonymous namespace'::CoreTypesFilter>::delegate<short>(short const *)
PUBLIC f53d0 0 QVariantDebugStream<`anonymous namespace'::CoreTypesFilter>::delegate<short>(short const *)
PUBLIC f5450 0 QVariantDebugStream<`anonymous namespace'::CoreTypesFilter>::delegate<unsigned short>(unsigned short const *)
PUBLIC f54d0 0 QVariantDebugStream<`anonymous namespace'::CoreTypesFilter>::delegate<int>(int const *)
PUBLIC f5550 0 QVariantDebugStream<`anonymous namespace'::CoreTypesFilter>::delegate<unsigned int>(unsigned int const *)
PUBLIC f55d0 0 QVariantDebugStream<`anonymous namespace'::CoreTypesFilter>::delegate<float>(float const *)
PUBLIC f5660 0 QVariantConstructor<`anonymous namespace'::CoreTypesFilter>::delegate<double>(double const *)
PUBLIC f56b0 0 QVariantDebugStream<`anonymous namespace'::CoreTypesFilter>::delegate<double>(double const *)
PUBLIC f5740 0 QVariantConstructor<`anonymous namespace'::CoreTypesFilter>::delegate<int>(int const *)
PUBLIC f5790 0 QVariantDebugStream<`anonymous namespace'::CoreTypesFilter>::delegate<QObject *>(QObject * const *)
PUBLIC f5820 0 QVariantDebugStream<`anonymous namespace'::CoreTypesFilter>::delegate<void *>(void * const *)
PUBLIC f58a0 0 QVariantConstructor<`anonymous namespace'::CoreTypesFilter>::delegate<QHash<QString,QVariant> >(QHash<QString,QVariant> const *)
PUBLIC f58d0 0 QVariantDebugStream<`anonymous namespace'::CoreTypesFilter>::delegate<QHash<QString,QVariant> >(QHash<QString,QVariant> const *)
PUBLIC f5960 0 QVariantDestructor<`anonymous namespace'::CoreTypesFilter>::delegate<QHash<QString,QVariant> >(QHash<QString,QVariant> const *)
PUBLIC f59b0 0 QVariantConstructor<`anonymous namespace'::CoreTypesFilter>::delegate<QList<QByteArray> >(QList<QByteArray> const *)
PUBLIC f5a40 0 QVariantDebugStream<`anonymous namespace'::CoreTypesFilter>::delegate<QList<QByteArray> >(QList<QByteArray> const *)
PUBLIC f5ad0 0 QVariantDestructor<`anonymous namespace'::CoreTypesFilter>::delegate<QList<QByteArray> >(QList<QByteArray> const *)
PUBLIC f5b20 0 QVariantConstructor<`anonymous namespace'::CoreTypesFilter>::delegate<QList<QVariant> >(QList<QVariant> const *)
PUBLIC f5bb0 0 QVariantDebugStream<`anonymous namespace'::CoreTypesFilter>::delegate<QList<QVariant> >(QList<QVariant> const *)
PUBLIC f5c40 0 QVariantDestructor<`anonymous namespace'::CoreTypesFilter>::delegate<QList<QVariant> >(QList<QVariant> const *)
PUBLIC f5c70 0 QVariantConstructor<`anonymous namespace'::CoreTypesFilter>::delegate<QMap<QString,QVariant> >(QMap<QString,QVariant> const *)
PUBLIC f5ca0 0 QVariantDebugStream<`anonymous namespace'::CoreTypesFilter>::delegate<QMap<QString,QVariant> >(QMap<QString,QVariant> const *)
PUBLIC f5d30 0 QVariantDestructor<`anonymous namespace'::CoreTypesFilter>::delegate<QMap<QString,QVariant> >(QMap<QString,QVariant> const *)
PUBLIC f5d90 0 QVariantConstructor<`anonymous namespace'::CoreTypesFilter>::delegate<QBitArray>(QBitArray const *)
PUBLIC f5df0 0 QVariantDebugStream<`anonymous namespace'::CoreTypesFilter>::delegate<QBitArray>(QBitArray const *)
PUBLIC f5e80 0 QVariantDebugStream<`anonymous namespace'::CoreTypesFilter>::delegate<QByteArray>(QByteArray const *)
PUBLIC f5ea0 0 QVariantDestructor<`anonymous namespace'::CoreTypesFilter>::delegate<QBitArray>(QBitArray const *)
PUBLIC f5ed0 0 QVariantDebugStream<`anonymous namespace'::CoreTypesFilter>::delegate<QChar>(QChar const *)
PUBLIC f5ef0 0 QVariantComparator<`anonymous namespace'::CoreTypesFilter>::delegate<QDate>(QDate const *)
PUBLIC f5f10 0 QVariantConstructor<`anonymous namespace'::CoreTypesFilter>::delegate<QDate>(QDate const *)
PUBLIC f5f70 0 QVariantDebugStream<`anonymous namespace'::CoreTypesFilter>::delegate<QDate>(QDate const *)
PUBLIC f6000 0 QVariantIsNull<`anonymous namespace'::CoreTypesFilter>::delegate<QDate>(QDate const *)
PUBLIC f6050 0 QVariantDebugStream<`anonymous namespace'::CoreTypesFilter>::delegate<QDateTime>(QDateTime const *)
PUBLIC f60e0 0 QVariantDebugStream<`anonymous namespace'::CoreTypesFilter>::delegate<QEasingCurve>(QEasingCurve const *)
PUBLIC f6170 0 QVariantDebugStream<`anonymous namespace'::CoreTypesFilter>::delegate<QJsonArray>(QJsonArray const *)
PUBLIC f6200 0 QVariantConstructor<`anonymous namespace'::CoreTypesFilter>::delegate<QJsonDocument>(QJsonDocument const *)
PUBLIC f6230 0 QVariantDebugStream<`anonymous namespace'::CoreTypesFilter>::delegate<QJsonDocument>(QJsonDocument const *)
PUBLIC f62c0 0 QVariantConstructor<`anonymous namespace'::CoreTypesFilter>::delegate<QJsonArray>(QJsonArray const *)
PUBLIC f62f0 0 QVariantDebugStream<`anonymous namespace'::CoreTypesFilter>::delegate<QJsonObject>(QJsonObject const *)
PUBLIC f6380 0 QVariantDestructor<`anonymous namespace'::CoreTypesFilter>::delegate<QJsonArray>(QJsonArray const *)
PUBLIC f63a0 0 QVariantConstructor<`anonymous namespace'::CoreTypesFilter>::delegate<QJsonValue>(QJsonValue const *)
PUBLIC f63d0 0 QVariantDebugStream<`anonymous namespace'::CoreTypesFilter>::delegate<QJsonValue>(QJsonValue const *)
PUBLIC f6460 0 QVariantDestructor<`anonymous namespace'::CoreTypesFilter>::delegate<QJsonValue>(QJsonValue const *)
PUBLIC f6480 0 QVariantComparator<`anonymous namespace'::CoreTypesFilter>::delegate<QLine>(QLine const *)
PUBLIC f64c0 0 QVariantConstructor<`anonymous namespace'::CoreTypesFilter>::delegate<QLine>(QLine const *)
PUBLIC f64f0 0 QVariantDebugStream<`anonymous namespace'::CoreTypesFilter>::delegate<QLine>(QLine const *)
PUBLIC f6580 0 QVariantIsNull<`anonymous namespace'::CoreTypesFilter>::delegate<QLine>(QLine const *)
PUBLIC f65a0 0 QVariantComparator<`anonymous namespace'::CoreTypesFilter>::delegate<QLineF>(QLineF const *)
PUBLIC f6630 0 QVariantDebugStream<`anonymous namespace'::CoreTypesFilter>::delegate<QLineF>(QLineF const *)
PUBLIC f66c0 0 QVariantIsNull<`anonymous namespace'::CoreTypesFilter>::delegate<QLineF>(QLineF const *)
PUBLIC f67a0 0 QVariantDebugStream<`anonymous namespace'::CoreTypesFilter>::delegate<QLocale>(QLocale const *)
PUBLIC f6830 0 QVariantComparator<`anonymous namespace'::CoreTypesFilter>::delegate<QModelIndex>(QModelIndex const *)
PUBLIC f6870 0 QVariantConstructor<`anonymous namespace'::CoreTypesFilter>::delegate<QModelIndex>(QModelIndex const *)
PUBLIC f68a0 0 QVariantDebugStream<`anonymous namespace'::CoreTypesFilter>::delegate<QModelIndex>(QModelIndex const *)
PUBLIC f6930 0 QVariantConstructor<`anonymous namespace'::CoreTypesFilter>::delegate<QPoint>(QPoint const *)
PUBLIC f6990 0 QVariantDebugStream<`anonymous namespace'::CoreTypesFilter>::delegate<QPoint>(QPoint const *)
PUBLIC f6a20 0 QVariantIsNull<`anonymous namespace'::CoreTypesFilter>::delegate<QPoint>(QPoint const *)
PUBLIC f6a40 0 QVariantComparator<`anonymous namespace'::CoreTypesFilter>::delegate<QPointF>(QPointF const *)
PUBLIC f6aa0 0 QVariantConstructor<`anonymous namespace'::CoreTypesFilter>::delegate<QPointF>(QPointF const *)
PUBLIC f6ad0 0 QVariantDebugStream<`anonymous namespace'::CoreTypesFilter>::delegate<QPointF>(QPointF const *)
PUBLIC f6b60 0 QVariantComparator<`anonymous namespace'::CoreTypesFilter>::delegate<QRect>(QRect const *)
PUBLIC f6ba0 0 QVariantConstructor<`anonymous namespace'::CoreTypesFilter>::delegate<QRect>(QRect const *)
PUBLIC f6bd0 0 QVariantDebugStream<`anonymous namespace'::CoreTypesFilter>::delegate<QRect>(QRect const *)
PUBLIC f6c60 0 QVariantIsNull<`anonymous namespace'::CoreTypesFilter>::delegate<QRect>(QRect const *)
PUBLIC f6c90 0 QVariantConstructor<`anonymous namespace'::CoreTypesFilter>::delegate<QLineF>(QLineF const *)
PUBLIC f6cc0 0 QVariantDebugStream<`anonymous namespace'::CoreTypesFilter>::delegate<QRectF>(QRectF const *)
PUBLIC f6d50 0 QVariantIsNull<`anonymous namespace'::CoreTypesFilter>::delegate<QRectF>(QRectF const *)
PUBLIC f6d90 0 QVariantDebugStream<`anonymous namespace'::CoreTypesFilter>::delegate<QRegExp>(QRegExp const *)
PUBLIC f6e20 0 QVariantDebugStream<`anonymous namespace'::CoreTypesFilter>::delegate<QRegularExpression>(QRegularExpression const *)
PUBLIC f6eb0 0 QVariantConstructor<`anonymous namespace'::CoreTypesFilter>::delegate<QSize>(QSize const *)
PUBLIC f6f10 0 QVariantDebugStream<`anonymous namespace'::CoreTypesFilter>::delegate<QSize>(QSize const *)
PUBLIC f6fa0 0 QVariantComparator<`anonymous namespace'::CoreTypesFilter>::delegate<QSizeF>(QSizeF const *)
PUBLIC f7090 0 QVariantConstructor<`anonymous namespace'::CoreTypesFilter>::delegate<QSizeF>(QSizeF const *)
PUBLIC f70c0 0 QVariantDebugStream<`anonymous namespace'::CoreTypesFilter>::delegate<QSizeF>(QSizeF const *)
PUBLIC f7150 0 QVariantIsNull<`anonymous namespace'::CoreTypesFilter>::delegate<QPointF>(QPointF const *)
PUBLIC f71a0 0 QVariantDebugStream<`anonymous namespace'::CoreTypesFilter>::delegate<QString>(QString const *)
PUBLIC f71c0 0 QVariantDestructor<`anonymous namespace'::CoreTypesFilter>::delegate<QString>(QString const *)
PUBLIC f71f0 0 QVariantConstructor<`anonymous namespace'::CoreTypesFilter>::delegate<QStringList>(QStringList const *)
PUBLIC f7280 0 QVariantDebugStream<`anonymous namespace'::CoreTypesFilter>::delegate<QStringList>(QStringList const *)
PUBLIC f7310 0 QVariantDestructor<`anonymous namespace'::CoreTypesFilter>::delegate<QStringList>(QStringList const *)
PUBLIC f7360 0 QVariantConstructor<`anonymous namespace'::CoreTypesFilter>::delegate<QTime>(QTime const *)
PUBLIC f73b0 0 QVariantDebugStream<`anonymous namespace'::CoreTypesFilter>::delegate<QTime>(QTime const *)
PUBLIC f7440 0 QVariantDebugStream<`anonymous namespace'::CoreTypesFilter>::delegate<QUrl>(QUrl const *)
PUBLIC f74d0 0 QVariantConstructor<`anonymous namespace'::CoreTypesFilter>::delegate<QUuid>(QUuid const *)
PUBLIC f7500 0 QVariantDebugStream<`anonymous namespace'::CoreTypesFilter>::delegate<QUuid>(QUuid const *)
PUBLIC f7590 0 QVariantComparator<`anonymous namespace'::CoreTypesFilter>::delegate<QVariant>(QVariant const *)
PUBLIC f75b0 0 QVariantConstructor<`anonymous namespace'::CoreTypesFilter>::delegate<QVariant>(QVariant const *)
PUBLIC f75e0 0 QVariantDebugStream<`anonymous namespace'::CoreTypesFilter>::delegate<QVariant>(QVariant const *)
PUBLIC f7670 0 QVariantDestructor<`anonymous namespace'::CoreTypesFilter>::delegate<QVariant>(QVariant const *)
PUBLIC f7690 0 QVariantDebugStream<`anonymous namespace'::CoreTypesFilter>::delegate<__int64>(__int64 const *)
PUBLIC f7710 0 QVariantDebugStream<`anonymous namespace'::CoreTypesFilter>::delegate<unsigned __int64>(unsigned __int64 const *)
PUBLIC f7790 0 QVariantDebugStream<`anonymous namespace'::CoreTypesFilter>::delegate<bool>(bool const *)
PUBLIC f7820 0 QtMetaTypePrivate::QPairVariantInterfaceImpl::getFirstImpl<QPair<QByteArray,QByteArray> >(void const * const *,int,unsigned int)
PUBLIC f7840 0 QtMetaTypePrivate::QPairVariantInterfaceImpl::getSecondImpl<QPair<QVariant,QVariant> >(void const * const *,int,unsigned int)
PUBLIC f7860 0 qNumVariantToHelper<int>(QVariant::Private const &,`anonymous namespace'::HandlersManager const &,bool *,int const &)
PUBLIC f7920 0 qNumVariantToHelper<unsigned int>(QVariant::Private const &,`anonymous namespace'::HandlersManager const &,bool *,unsigned int const &)
PUBLIC f79e0 0 qNumVariantToHelper<double>(QVariant::Private const &,`anonymous namespace'::HandlersManager const &,bool *,double const &)
PUBLIC f7aa0 0 qNumVariantToHelper<__int64>(QVariant::Private const &,`anonymous namespace'::HandlersManager const &,bool *,__int64 const &)
PUBLIC f7b70 0 qNumVariantToHelper<unsigned __int64>(QVariant::Private const &,`anonymous namespace'::HandlersManager const &,bool *,unsigned __int64 const &)
PUBLIC f7c40 0 qRegisterMetaType<QtMetaTypePrivate::QAssociativeIterableImpl>(char const *,QtMetaTypePrivate::QAssociativeIterableImpl *,QtPrivate::MetaTypeDefinedHelper<QtMetaTypePrivate::QAssociativeIterableImpl,1>::DefinedType)
PUBLIC f7d20 0 qVariantToHelper<QByteArray>(QVariant::Private const &,`anonymous namespace'::HandlersManager const &)
PUBLIC f7e70 0 qVariantToHelper<QDate>(QVariant::Private const &,`anonymous namespace'::HandlersManager const &)
PUBLIC f7f40 0 qVariantToHelper<QDateTime>(QVariant::Private const &,`anonymous namespace'::HandlersManager const &)
PUBLIC f8070 0 qVariantToHelper<QString>(QVariant::Private const &,`anonymous namespace'::HandlersManager const &)
PUBLIC f81c0 0 qVariantToHelper<QTime>(QVariant::Private const &,`anonymous namespace'::HandlersManager const &)
PUBLIC f8270 0 qVariantToHelper<QUrl>(QVariant::Private const &,`anonymous namespace'::HandlersManager const &)
PUBLIC f83a0 0 `anonymous namespace'::qt_convertToBool<QByteArray,QByteArray>(QVariant::Private const * const)
PUBLIC f8500 0 `anonymous namespace'::qt_convertToBool<QString,QLatin1String>(QVariant::Private const * const)
PUBLIC f85c0 0 QMetaTypeSwitcher::switcher<void,QVariantConstructor<`anonymous namespace'::CoreTypesFilter> >(QVariantConstructor<`anonymous namespace'::CoreTypesFilter> &,int,void const *)
PUBLIC f8a00 0 QMetaTypeSwitcher::switcher<void,QVariantDebugStream<`anonymous namespace'::CoreTypesFilter> >(QVariantDebugStream<`anonymous namespace'::CoreTypesFilter> &,int,void const *)
PUBLIC f90a0 0 QMetaTypeSwitcher::switcher<void,QVariantDestructor<`anonymous namespace'::CoreTypesFilter> >(QVariantDestructor<`anonymous namespace'::CoreTypesFilter> &,int,void const *)
PUBLIC f92a0 0 QMetaTypeSwitcher::switcher<bool,QVariantComparator<`anonymous namespace'::CoreTypesFilter> >(QVariantComparator<`anonymous namespace'::CoreTypesFilter> &,int,void const *)
PUBLIC f9670 0 QMetaTypeSwitcher::switcher<bool,QVariantIsNull<`anonymous namespace'::CoreTypesFilter> >(QVariantIsNull<`anonymous namespace'::CoreTypesFilter> &,int,void const *)
PUBLIC f9880 0 QVariantConstructor<`anonymous namespace'::CoreTypesFilter>::CallConstructor<QHash<QString,QVariant>,0>::CallConstructor<QHash<QString,QVariant>,0>(QVariantConstructor<`anonymous namespace'::CoreTypesFilter> const &)
PUBLIC f9950 0 QVariantConstructor<`anonymous namespace'::CoreTypesFilter>::CallConstructor<QMap<QString,QVariant>,0>::CallConstructor<QMap<QString,QVariant>,0>(QVariantConstructor<`anonymous namespace'::CoreTypesFilter> const &)
PUBLIC f9a00 0 QVariantConstructor<`anonymous namespace'::CoreTypesFilter>::CallConstructor<QJsonDocument,0>::CallConstructor<QJsonDocument,0>(QVariantConstructor<`anonymous namespace'::CoreTypesFilter> const &)
PUBLIC f9ac0 0 QVariantConstructor<`anonymous namespace'::CoreTypesFilter>::CallConstructor<QJsonArray,0>::CallConstructor<QJsonArray,0>(QVariantConstructor<`anonymous namespace'::CoreTypesFilter> const &)
PUBLIC f9b80 0 QVariantConstructor<`anonymous namespace'::CoreTypesFilter>::CallConstructor<QJsonValue,0>::CallConstructor<QJsonValue,0>(QVariantConstructor<`anonymous namespace'::CoreTypesFilter> const &)
PUBLIC f9c40 0 QVariantConstructor<`anonymous namespace'::CoreTypesFilter>::CallConstructor<QLine,0>::CallConstructor<QLine,0>(QVariantConstructor<`anonymous namespace'::CoreTypesFilter> const &)
PUBLIC f9cd0 0 QVariantConstructor<`anonymous namespace'::CoreTypesFilter>::CallConstructor<QModelIndex,0>::CallConstructor<QModelIndex,0>(QVariantConstructor<`anonymous namespace'::CoreTypesFilter> const &)
PUBLIC f9d60 0 QVariantConstructor<`anonymous namespace'::CoreTypesFilter>::CallConstructor<QPointF,0>::CallConstructor<QPointF,0>(QVariantConstructor<`anonymous namespace'::CoreTypesFilter> const &)
PUBLIC f9de0 0 QVariantConstructor<`anonymous namespace'::CoreTypesFilter>::CallConstructor<QRect,0>::CallConstructor<QRect,0>(QVariantConstructor<`anonymous namespace'::CoreTypesFilter> const &)
PUBLIC f9e70 0 QVariantConstructor<`anonymous namespace'::CoreTypesFilter>::CallConstructor<QLineF,0>::CallConstructor<QLineF,0>(QVariantConstructor<`anonymous namespace'::CoreTypesFilter> const &)
PUBLIC f9f00 0 QVariantConstructor<`anonymous namespace'::CoreTypesFilter>::CallConstructor<QSizeF,0>::CallConstructor<QSizeF,0>(QVariantConstructor<`anonymous namespace'::CoreTypesFilter> const &)
PUBLIC f9f80 0 QVariantConstructor<`anonymous namespace'::CoreTypesFilter>::CallConstructor<QUuid,0>::CallConstructor<QUuid,0>(QVariantConstructor<`anonymous namespace'::CoreTypesFilter> const &)
PUBLIC fa010 0 QVariantConstructor<`anonymous namespace'::CoreTypesFilter>::CallConstructor<QVariant,0>::CallConstructor<QVariant,0>(QVariantConstructor<`anonymous namespace'::CoreTypesFilter> const &)
PUBLIC fa0d0 0 QVariantDebugStream<`anonymous namespace'::CoreTypesFilter>::Filtered<QByteArray,1>::Filtered<QByteArray,1>(QDebug,QVariant::Private *)
PUBLIC fa180 0 QVariantDebugStream<`anonymous namespace'::CoreTypesFilter>::Filtered<QChar,1>::Filtered<QChar,1>(QDebug,QVariant::Private *)
PUBLIC fa240 0 QVariantDebugStream<`anonymous namespace'::CoreTypesFilter>::Filtered<QString,1>::Filtered<QString,1>(QDebug,QVariant::Private *)
PUBLIC fa2f0 0 QVariantConstructor<`anonymous namespace'::CoreTypesFilter>::FilteredConstructor<QDateTime,1>::FilteredConstructor<QDateTime,1>(QVariantConstructor<`anonymous namespace'::CoreTypesFilter> const &)
PUBLIC fa390 0 QVariantConstructor<`anonymous namespace'::CoreTypesFilter>::FilteredConstructor<QEasingCurve,1>::FilteredConstructor<QEasingCurve,1>(QVariantConstructor<`anonymous namespace'::CoreTypesFilter> const &)
PUBLIC fa430 0 QVariantConstructor<`anonymous namespace'::CoreTypesFilter>::FilteredConstructor<QLocale,1>::FilteredConstructor<QLocale,1>(QVariantConstructor<`anonymous namespace'::CoreTypesFilter> const &)
PUBLIC fa4d0 0 QVariantConstructor<`anonymous namespace'::CoreTypesFilter>::FilteredConstructor<QRegExp,1>::FilteredConstructor<QRegExp,1>(QVariantConstructor<`anonymous namespace'::CoreTypesFilter> const &)
PUBLIC fa570 0 QVariantConstructor<`anonymous namespace'::CoreTypesFilter>::FilteredConstructor<QRegularExpression,1>::FilteredConstructor<QRegularExpression,1>(QVariantConstructor<`anonymous namespace'::CoreTypesFilter> const &)
PUBLIC fa610 0 QVariantConstructor<`anonymous namespace'::CoreTypesFilter>::FilteredConstructor<QUrl,1>::FilteredConstructor<QUrl,1>(QVariantConstructor<`anonymous namespace'::CoreTypesFilter> const &)
PUBLIC fa6b0 0 QtMetaTypePrivate::QAssociativeIterableImpl::QAssociativeIterableImpl()
PUBLIC fa720 0 QLineF::QLineF(QLine const &)
PUBLIC fa770 0 QRectF::QRectF(QRect const &)
PUBLIC fa7c0 0 QVariant::QVariant(QVariant const &)
PUBLIC fa890 0 QVariant::QVariant(QByteArray const &)
PUBLIC fa8c0 0 QVariant::QVariant(QDate const &)
PUBLIC fa8e0 0 QVariant::QVariant(QDateTime const &)
PUBLIC fa940 0 QVariant::QVariant(QString const &)
PUBLIC fa970 0 QVariant::QVariant(QStringList const &)
PUBLIC fa9d0 0 QVariant::QVariant(QTime const &)
PUBLIC fa9f0 0 QVariant::QVariant(QUrl const &)
PUBLIC faa50 0 QVariant::QVariant(int)
PUBLIC faa70 0 QVariant::QVariant(int,void const *)
PUBLIC faae0 0 QVariant::QVariant(int,void const *,unsigned int)
PUBLIC fab80 0 QVariant::QVariant(unsigned int)
PUBLIC faba0 0 QVariant::QVariant(char const *)
PUBLIC fac50 0 QVariant::QVariant(QChar)
PUBLIC fac70 0 QVariant::QVariant(__int64)
PUBLIC fac90 0 QVariant::QVariant(bool)
PUBLIC facb0 0 QVariantDebugStream<`anonymous namespace'::CoreTypesFilter>::~QVariantDebugStream<`anonymous namespace'::CoreTypesFilter>()
PUBLIC facc0 0 QVariantDestructor<`anonymous namespace'::CoreTypesFilter>::~QVariantDestructor<`anonymous namespace'::CoreTypesFilter>()
PUBLIC face0 0 QVariant::~QVariant()
PUBLIC fad70 0 QList<QVariant>::operator=(QList<QVariant> const &)
PUBLIC fadc0 0 QMap<QString,QVariant>::operator=(QMap<QString,QVariant> const &)
PUBLIC fae30 0 QVariant::operator=(QVariant const &)
PUBLIC faed0 0 operator<<(QDebug,QVariant const &)
PUBLIC fb090 0 QList<QVariant>::operator==(QList<QVariant> const &)
PUBLIC fb100 0 QMap<QString,QVariant>::operator==(QMap<QString,QVariant> const &)
PUBLIC fb1c0 0 operator==(QRectF const &,QRectF const &)
PUBLIC fb360 0 QUuid::operator==(QUuid const &)
PUBLIC fb3c0 0 `anonymous namespace'::HandlersManager::operator[](unsigned int)
PUBLIC fb410 0 QtMetaTypePrivate::QMetaTypeFunctionHelper<QPair<QVariant,QVariant>,1>::Construct(void *,void const *)
PUBLIC fb4e0 0 QtMetaTypePrivate::QMetaTypeFunctionHelper<QtMetaTypePrivate::QAssociativeIterableImpl,1>::Construct(void *,void const *)
PUBLIC fb530 0 QtMetaTypePrivate::QMetaTypeFunctionHelper<QPair<QVariant,QVariant>,1>::Create(void const *)
PUBLIC fb600 0 QtMetaTypePrivate::QMetaTypeFunctionHelper<QtMetaTypePrivate::QAssociativeIterableImpl,1>::Create(void const *)
PUBLIC fb650 0 QtMetaTypePrivate::QMetaTypeFunctionHelper<QPair<QVariant,QVariant>,1>::Delete(void *)
PUBLIC fb6c0 0 QtMetaTypePrivate::QMetaTypeFunctionHelper<QPair<QVariant,QVariant>,1>::Destruct(void *)
PUBLIC fb720 0 QVariant::canConvert(int)
PUBLIC fbc70 0 QVariant::clear()
PUBLIC fbcf0 0 QVariant::cmp(QVariant const &)
PUBLIC fbf40 0 QVariant::constData()
PUBLIC fbf60 0 QtPrivate::ConverterFunctor<QPair<QVariant,QVariant>,QtMetaTypePrivate::QPairVariantInterfaceImpl,QtMetaTypePrivate::QPairVariantInterfaceConvertFunctor<QPair<QVariant,QVariant> > >::convert(QtPrivate::AbstractConverterFunction const *,void const *,void *)
PUBLIC fbfc0 0 QVariant::convert(int)
PUBLIC fc140 0 QVariant::convert(int,void *)
PUBLIC fc190 0 QVariant::create(int,void const *)
PUBLIC fc1e0 0 QVariant::data()
PUBLIC fc200 0 QVariantConstructor<`anonymous namespace'::CoreTypesFilter>::delegate(QMetaTypeSwitcher::UnknownType const *)
PUBLIC fc270 0 QVariantConstructor<`anonymous namespace'::CoreTypesFilter>::delegate(void const *)
PUBLIC fc2d0 0 QVariantDebugStream<`anonymous namespace'::CoreTypesFilter>::delegate(QMetaTypeSwitcher::UnknownType const *)
PUBLIC fc2f0 0 QVariant::detach()
PUBLIC fc3a0 0 QVariant::isNull()
PUBLIC fc400 0 QtPrivate::QVariantValueHelper<QObject *>::object(QVariant const &)
PUBLIC fc980 0 qRound64(float)
PUBLIC fc9e0 0 qRound64(double)
PUBLIC fca40 0 QMetaTypeId<QPair<QVariant,QVariant> >::qt_metatype_id()
PUBLIC fcbc0 0 QMetaTypeId<QtMetaTypePrivate::QAssociativeIterableImpl>::qt_metatype_id()
PUBLIC fcbe0 0 QtPrivate::IsMetaTypePair<QPair<QVariant,QVariant>,1>::registerConverter(int)
PUBLIC fcc60 0 QVariant::toBool()
PUBLIC fccc0 0 QVariant::toByteArray()
PUBLIC fccf0 0 QVariant::toDate()
PUBLIC fcd10 0 QVariant::toDateTime()
PUBLIC fcd40 0 QVariant::toDouble(bool *)
PUBLIC fcd60 0 QVariant::toInt(bool *)
PUBLIC fcd80 0 QLineF::toLine()
PUBLIC fcea0 0 QVariant::toLongLong(bool *)
PUBLIC fcec0 0 QPointF::toPoint()
PUBLIC fcf60 0 QRectF::toRect()
PUBLIC fd070 0 QVariant::toString()
PUBLIC fd0a0 0 QVariant::toTime()
PUBLIC fd0c0 0 QVariant::toUInt(bool *)
PUBLIC fd0e0 0 QVariant::toULongLong(bool *)
PUBLIC fd100 0 QVariant::toUrl()
PUBLIC fd130 0 QVariant::type()
PUBLIC fd150 0 QVariant::typeName()
PUBLIC fd170 0 QVariant::userType()
PUBLIC fd180 0 QtSharedPointer::ExternalRefCountData::checkQObjectShared(QObject const *)
PUBLIC fd1c0 0 QtSharedPointer::ExternalRefCountData::getAndRef(QObject const *)
PUBLIC fd220 0 QTcpServerPrivate::proxyAuthenticationRequired(QNetworkProxy const &,QAuthenticator *)
PUBLIC fd2d0 0 QHashData::allocateNode(int)
PUBLIC fd360 0 QHashData::detach_helper(void (*)(QHashData::Node *,void *),void (*)(QHashData::Node *),int,int)
PUBLIC fd550 0 QHashData::freeNode(void *)
PUBLIC fd570 0 QHashData::free_helper(void (*)(QHashData::Node *))
PUBLIC fd6b0 0 QHashData::nextNode(QHashData::Node *)
PUBLIC fd6f0 0 QHashData::previousNode(QHashData::Node *)
PUBLIC fd750 0 qHash(QByteArray const &,unsigned int)
PUBLIC fd770 0 qHash(QString const &,unsigned int)
PUBLIC fd870 0 qt_hash(QString const &)
PUBLIC fd8b0 0 qt_hash(QStringRef const &)
PUBLIC fd910 0 QHashData::rehash(int)
PUBLIC fda70 0 QMapDataBase::createData()
PUBLIC fdab0 0 QMapDataBase::createNode(int,int,QMapNodeBase *,bool)
PUBLIC fdb30 0 QMapDataBase::freeNodeAndRebalance(QMapNodeBase *)
PUBLIC fdda0 0 QMapDataBase::freeTree(QMapNodeBase *,int)
PUBLIC fddf0 0 QMapNodeBase::nextNode()
PUBLIC fde30 0 QMapNodeBase::previousNode()
PUBLIC fde70 0 QMapDataBase::rebalance(QMapNodeBase *)
PUBLIC fe020 0 QMapDataBase::recalcMostLeftNode()
PUBLIC fe040 0 QMapDataBase::rotateLeft(QMapNodeBase *)
PUBLIC fe0c0 0 QMapDataBase::rotateRight(QMapNodeBase *)
PUBLIC fe140 0 QVarLengthArray<QAtomicPointer<QMutex>,131>::QVarLengthArray<QAtomicPointer<QMutex>,131>(int)
PUBLIC fe1b0 0 QMutexPool::QMutexPool(QMutex::RecursionMode,int)
PUBLIC fe1f0 0 QVarLengthArray<char,256>::~QVarLengthArray<char,256>()
PUBLIC fe210 0 QMutexPool::~QMutexPool()
PUBLIC fe2a0 0 QMutexPool::createMutex(int)
PUBLIC fe350 0 QMutexPool::globalInstanceGet(void const *)
PUBLIC fe390 0 `anonymous namespace'::Q_QGS_globalMutexPool::innerFunction()
PUBLIC fe470 0 qbswap<unsigned __int64>(unsigned __int64)
PUBLIC fe500 0 QDataStream::QDataStream(QByteArray const &)
PUBLIC fe5c0 0 QDataStream::QDataStream(QByteArray *,QFlags<QIODevice::OpenModeFlag>)
PUBLIC fe670 0 QScopedPointer<QDataStreamPrivate,QScopedPointerDeleter<QDataStreamPrivate> >::~QScopedPointer<QDataStreamPrivate,QScopedPointerDeleter<QDataStreamPrivate> >()
PUBLIC fe680 0 QDataStream::~QDataStream()
PUBLIC fe6e0 0 QDataStream::operator>>(short &)
PUBLIC fe740 0 QDataStream::operator>>(int &)
PUBLIC fe7c0 0 QDataStream::operator<<(signed char)
PUBLIC fe7f0 0 QDataStream::operator<<(short)
PUBLIC fe850 0 QDataStream::operator<<(int)
PUBLIC fe8c0 0 QDataStream::operator<<(__int64)
PUBLIC fe940 0 QDataStream::readRawData(char *,int)
PUBLIC fe960 0 QDataStream::setByteOrder(QDataStream::ByteOrder)
PUBLIC fe980 0 QDataStream::skipRawData(int)
PUBLIC feab0 0 QDataStream::writeBytes(char const *,unsigned int)
PUBLIC feaf0 0 QDataStream::writeRawData(char const *,int)
PUBLIC feb30 0 QDebugStateSaver::QDebugStateSaver(QDebug &)
PUBLIC febb0 0 QDebug::~QDebug()
PUBLIC fec50 0 QDebugStateSaver::~QDebugStateSaver()
PUBLIC fecb0 0 QDebugStateSaverPrivate::restoreState()
PUBLIC fed50 0 operator+=<QStringBuilder<QStringBuilder<QStringBuilder<QStringBuilder<QStringBuilder<QString,QLatin1Char>,QString>,QLatin1Char>,QString>,QLatin1Char>,QString>(QString &,QStringBuilder<QStringBuilder<QStringBuilder<QStringBuilder<QStringBuilder<QStringBuilder<QString,QLatin1Char>,QString>,QLatin1Char>,QString>,QLatin1Char>,QString> const &)
PUBLIC fef50 0 QIPAddressUtils::parseIp4(unsigned int &,QChar const *,QChar const *)
PUBLIC ff0f0 0 QIPAddressUtils::parseIp6(unsigned char (&)[16],QChar const *,QChar const *)
PUBLIC ff3b0 0 QVarLengthArray<char,64>::realloc(int,int)
PUBLIC ff450 0 QIPAddressUtils::toString(QString &,unsigned int)
PUBLIC ff630 0 QIPAddressUtils::toString(QString &,unsigned char * const)
PUBLIC ff8d0 0 QIODevice::qt_static_metacall(QObject *,QMetaObject::Call,int,void * *)
PUBLIC ff9c0 0 QIODevice::aboutToClose()
PUBLIC ff9e0 0 QIODevice::bytesWritten(__int64)
PUBLIC ffa10 0 QIODevice::metaObject()
PUBLIC ffa30 0 QIODevice::qt_metacall(QMetaObject::Call,int,void * *)
PUBLIC ffa90 0 QIODevice::qt_metacast(char const *)
PUBLIC ffaf0 0 QIODevice::readChannelFinished()
PUBLIC ffb10 0 QIODevice::readyRead()
PUBLIC ffb30 0 QElapsedTimer::elapsed()
PUBLIC ffc00 0 qt_msectime()
PUBLIC ffc90 0 QElapsedTimer::restart()
PUBLIC ffce0 0 QElapsedTimer::start()
PUBLIC ffda0 0 qRegisterMetaType<QSystemLocale::CurrencyToStringArgument>(char const *,QSystemLocale::CurrencyToStringArgument *,QtPrivate::MetaTypeDefinedHelper<QSystemLocale::CurrencyToStringArgument,1>::DefinedType)
PUBLIC ffe80 0 QLocale::QLocale(QLocale const &)
PUBLIC ffed0 0 QLocale::QLocale(QString const &)
PUBLIC fff00 0 QLocale::QLocale(QLocale::Language,QLocale::Country)
PUBLIC fff30 0 QLocale::QLocale()
PUBLIC fff50 0 QSystemLocale::CurrencyToStringArgument::~CurrencyToStringArgument()
PUBLIC fff90 0 QLocale::~QLocale()
PUBLIC fffb0 0 QLocale::operator=(QLocale const &)
PUBLIC 100000 0 operator<<(QDebug,QLocale const &)
PUBLIC 1002a0 0 QLocale::operator==(QLocale const &)
PUBLIC 1002d0 0 QLocale::operator!=(QLocale const &)
PUBLIC 100320 0 QSystemLocale::`vector deleting destructor'(unsigned int)
PUBLIC 100360 0 QtMetaTypePrivate::QMetaTypeFunctionHelper<QSystemLocale::CurrencyToStringArgument,1>::Construct(void *,void const *)
PUBLIC 100430 0 QtMetaTypePrivate::QMetaTypeFunctionHelper<QSystemLocale::CurrencyToStringArgument,1>::Create(void const *)
PUBLIC 100500 0 QtMetaTypePrivate::QMetaTypeFunctionHelper<QSystemLocale::CurrencyToStringArgument,1>::Delete(void *)
PUBLIC 100550 0 QtMetaTypePrivate::QMetaTypeFunctionHelper<QSystemLocale::CurrencyToStringArgument,1>::Destruct(void *)
PUBLIC 1005f0 0 QLocale::amText()
PUBLIC 100700 0 QLocaleData::bytearrayToDouble(char const *,bool *,bool *)
PUBLIC 100840 0 QLocaleData::bytearrayToLongLong(char const *,int,bool *,bool *)
PUBLIC 1008d0 0 QLocaleData::bytearrayToUnsLongLong(char const *,int,bool *)
PUBLIC 100920 0 QLocaleData::c()
PUBLIC 100930 0 QLocalePrivate::codeToCountry(QString const &)
PUBLIC 100a00 0 QLocalePrivate::codeToLanguage(QString const &)
PUBLIC 100b40 0 QLocalePrivate::codeToScript(QString const &)
PUBLIC 100c30 0 QLocale::country()
PUBLIC 100c40 0 QLocalePrivate::countryCode()
PUBLIC 100c70 0 QLocalePrivate::countryToCode(QLocale::Country)
PUBLIC 100e00 0 QLocale::countryToString(QLocale::Country)
PUBLIC 100e80 0 QLocale::dateFormat(QLocale::FormatType)
PUBLIC 100fb0 0 QLocale::dateTimeFormat(QLocale::FormatType)
PUBLIC 1011b0 0 QLocalePrivate::dateTimeToString(QString const &,QDateTime const &,QDate const &,QTime const &,QLocale const *)
PUBLIC 102060 0 QLocale::dayName(int,QLocale::FormatType)
PUBLIC 1021d0 0 QLocaleData::digitToCLocale(QChar)
PUBLIC 102290 0 QLocaleData::doubleToString(double,int,QLocaleData::DoubleForm,int,unsigned int)
PUBLIC 102310 0 QLocaleData::doubleToString(QChar,QChar,QChar,QChar,QChar,QChar,double,int,QLocaleData::DoubleForm,int,unsigned int)
PUBLIC 1027d0 0 QLocaleData::findLocaleData(QLocale::Language,QLocale::Script,QLocale::Country)
PUBLIC 102960 0 QLocalePrivate::getLangAndCountry(QString const &,QLocale::Language &,QLocale::Script &,QLocale::Country &)
PUBLIC 102be0 0 `anonymous namespace'::Q_QGS_QSystemLocale_globalSystemLocale::innerFunction()
PUBLIC 102ca0 0 `anonymous namespace'::Q_QGS_defaultLocalePrivate::innerFunction()
PUBLIC 102dd0 0 `anonymous namespace'::Q_QGS_globalLocaleData::innerFunction()
PUBLIC 102eb0 0 QLocale::language()
PUBLIC 102ec0 0 QLocalePrivate::languageCode()
PUBLIC 102ef0 0 QLocalePrivate::languageToCode(QLocale::Language)
PUBLIC 103050 0 QLocale::languageToString(QLocale::Language)
PUBLIC 103170 0 QLocaleData::longLongToString(__int64,int,int,int,unsigned int)
PUBLIC 1031d0 0 QLocaleData::longLongToString(QChar,QChar,QChar,QChar,__int64,int,int,int,unsigned int)
PUBLIC 103560 0 QLocale::monthName(int,QLocale::FormatType)
PUBLIC 1036c0 0 QLocale::name()
PUBLIC 103880 0 QLocale::negativeSign()
PUBLIC 1038a0 0 QLocale::numberOptions()
PUBLIC 1038b0 0 QLocaleData::numberToCLocale(QChar const *,int,QLocaleData::GroupSeparatorMode,QVarLengthArray<char,256> *)
PUBLIC 103c60 0 QLocale::pmText()
PUBLIC 103d70 0 QLocale::positiveSign()
PUBLIC 103d90 0 QMetaTypeId<QSystemLocale::CurrencyToStringArgument>::qt_metatype_id()
PUBLIC 103db0 0 qt_readEscapedFormatString(QString const &,int *)
PUBLIC 103f40 0 qt_repeatCount(QString const &,int)
PUBLIC 103f80 0 qt_splitLocaleName(QString const &,QString &,QString &,QString &)
PUBLIC 1042b0 0 QVarLengthArray<char,256>::realloc(int,int)
PUBLIC 104350 0 QLocale::scriptToString(QLocale::Script)
PUBLIC 1043d0 0 QLocale::standaloneDayName(int,QLocale::FormatType)
PUBLIC 104590 0 QLocale::standaloneMonthName(int,QLocale::FormatType)
PUBLIC 104740 0 QLocaleData::stringToDouble(QChar const *,int,bool *,QLocaleData::GroupSeparatorMode)
PUBLIC 104820 0 QLocaleData::stringToLongLong(QChar const *,int,int,bool *,QLocaleData::GroupSeparatorMode)
PUBLIC 104930 0 QLocaleData::stringToUnsLongLong(QChar const *,int,int,bool *,QLocaleData::GroupSeparatorMode)
PUBLIC 104a40 0 QLocale::system()
PUBLIC 104aa0 0 QLocale::timeFormat(QLocale::FormatType)
PUBLIC 104c70 0 QLocale::toDate(QString const &,QString const &)
PUBLIC 104d80 0 QLocale::toDate(QString const &,QLocale::FormatType)
PUBLIC 104e10 0 QLocale::toDateTime(QString const &,QString const &)
PUBLIC 104fa0 0 QLocale::toDateTime(QString const &,QLocale::FormatType)
PUBLIC 105040 0 QLocale::toString(QDate const &,QString const &)
PUBLIC 1050d0 0 QLocale::toString(QDate const &,QLocale::FormatType)
PUBLIC 105290 0 QLocale::toString(QDateTime const &,QString const &)
PUBLIC 1052e0 0 QLocale::toString(QDateTime const &,QLocale::FormatType)
PUBLIC 105460 0 QLocale::toString(QTime const &,QString const &)
PUBLIC 105500 0 QLocale::toString(QTime const &,QLocale::FormatType)
PUBLIC 105680 0 QLocale::toString(__int64)
PUBLIC 1056c0 0 QLocale::toTime(QString const &,QString const &)
PUBLIC 1057c0 0 QLocale::toTime(QString const &,QLocale::FormatType)
PUBLIC 105850 0 QLocale::toUInt(QString const &,bool *)
PUBLIC 1058b0 0 QCharRef::unicode()
PUBLIC 1058f0 0 QLocaleData::unsLongLongToString(unsigned __int64,int,int,int,unsigned int)
PUBLIC 105950 0 QLocaleData::unsLongLongToString(QChar,QChar,QChar,unsigned __int64,int,int,int,unsigned int)
PUBLIC 105c40 0 QLocalePrivate::updateSystemPrivate()
PUBLIC 106210 0 QLocaleId::withLikelySubtagsAdded()
PUBLIC 106360 0 QFactoryLoader::QFactoryLoader(char const *,QString const &,Qt::CaseSensitivity)
PUBLIC 1064c0 0 QList<QJsonObject>::~QList<QJsonObject>()
PUBLIC 1064f0 0 QFactoryLoader::~QFactoryLoader()
PUBLIC 1065b0 0 QFactoryLoaderPrivate::~QFactoryLoaderPrivate()
PUBLIC 1067a0 0 QFactoryLoader::`vector deleting destructor'(unsigned int)
PUBLIC 1067c0 0 QFactoryLoaderPrivate::`vector deleting destructor'(unsigned int)
PUBLIC 1067e0 0 QList<QJsonObject>::append(QJsonObject const &)
PUBLIC 1068c0 0 QMapNode<int,QString>::copy(QMapData<int,QString> *)
PUBLIC 106940 0 QMapData<int,QString>::createNode(int const &,QString const &,QMapNode<int,QString> *,bool)
PUBLIC 1069a0 0 QList<QJsonObject>::dealloc(QListData::Data *)
PUBLIC 1069f0 0 QList<void (*)(void)>::detach_helper_grow(int,int)
PUBLIC 106b10 0 QList<QJsonObject>::detach_helper_grow(int,int)
PUBLIC 106c50 0 QFactoryLoader::indexOf(QString const &)
PUBLIC 106f60 0 `anonymous namespace'::Q_QGS_qt_factory_loaders::innerFunction()
PUBLIC 107020 0 `anonymous namespace'::Q_QGS_qt_factoryloader_mutex::innerFunction()
PUBLIC 1070f0 0 QFactoryLoader::instance(int)
PUBLIC 107320 0 QFactoryLoader::keyMap()
PUBLIC 107790 0 QFactoryLoader::metaData()
PUBLIC 107a40 0 QList<QJsonObject>::node_construct(QList<QJsonObject>::Node *,QJsonObject const &)
PUBLIC 107ac0 0 QList<QJsonObject>::node_copy(QList<QJsonObject>::Node *,QList<QJsonObject>::Node *,QList<QJsonObject>::Node *)
PUBLIC 107b90 0 QList<QJsonObject>::node_destruct(QList<QJsonObject>::Node *,QList<QJsonObject>::Node *)
PUBLIC 107bd0 0 QList<WinTimerInfo *>::removeAll(WinTimerInfo * const &)
PUBLIC 107ca0 0 QFactoryLoader::update()
PUBLIC 107d90 0 std::_Upper_bound<QList<QPair<QRunnable *,int> >::const_iterator,int,int,std::less<void> >(QList<QPair<QRunnable *,int> >::const_iterator,QList<QPair<QRunnable *,int> >::const_iterator,int const &,std::less<void>,int *)
PUBLIC 107df0 0 QThreadPool::QThreadPool(QObject *)
PUBLIC 107e70 0 QThreadPoolPrivate::QThreadPoolPrivate()
PUBLIC 107f20 0 QScopedPointer<QThreadPoolThread,QScopedPointerDeleter<QThreadPoolThread> >::~QScopedPointer<QThreadPoolThread,QScopedPointerDeleter<QThreadPoolThread> >()
PUBLIC 107f30 0 QForeachContainer<QSet<QThreadPoolThread *> >::~QForeachContainer<QSet<QThreadPoolThread *> >()
PUBLIC 107f60 0 QThreadPool::~QThreadPool()
PUBLIC 107fd0 0 QThreadPoolPrivate::~QThreadPoolPrivate()
PUBLIC 1080d0 0 QThreadPool::`vector deleting destructor'(unsigned int)
PUBLIC 108160 0 QThreadPoolPrivate::`vector deleting destructor'(unsigned int)
PUBLIC 108180 0 QThreadPoolThread::`vector deleting destructor'(unsigned int)
PUBLIC 1081f0 0 QThreadPool::activeThreadCount()
PUBLIC 108240 0 QQueue<QThreadPoolThread *>::dequeue()
PUBLIC 1082a0 0 QList<QPair<QRunnable *,int> >::detach_helper(int)
PUBLIC 108390 0 QList<QPair<QRunnable *,int> >::detach_helper_grow(int,int)
PUBLIC 1084f0 0 QHash<int,QHashDummyValue>::duplicateNode(QHashData::Node *,void *)
PUBLIC 108510 0 QThreadPoolPrivate::enqueueTask(QRunnable *,int)
PUBLIC 1085b0 0 QList<QThreadPoolThread *>::erase(QList<QThreadPoolThread *>::iterator)
PUBLIC 108630 0 QHash<int,QSockNot *>::findNode(int const &,unsigned int *)
PUBLIC 1086a0 0 QThreadPool::globalInstance()
PUBLIC 1086c0 0 `anonymous namespace'::Q_QGS_theInstance::innerFunction()
PUBLIC 108790 0 QList<QPair<QRunnable *,int> >::insert(int,QPair<QRunnable *,int> const &)
PUBLIC 108840 0 QThreadPool::maxThreadCount()
PUBLIC 108850 0 QList<QPair<QRunnable *,int> >::node_copy(QList<QPair<QRunnable *,int> >::Node *,QList<QPair<QRunnable *,int> >::Node *,QList<QPair<QRunnable *,int> >::Node *)
PUBLIC 108900 0 QThreadPoolThread::registerThreadInactive()
PUBLIC 108920 0 QList<QThreadPoolThread *>::removeOne(QThreadPoolThread * const &)
PUBLIC 1089a0 0 QThreadPoolPrivate::reset()
PUBLIC 108c40 0 QThreadPoolThread::run()
PUBLIC 108f00 0 QThreadPool::setExpiryTimeout(int)
PUBLIC 108f20 0 QThreadPool::setMaxThreadCount(int)
PUBLIC 108fa0 0 QThreadPool::start(QRunnable *,int)
PUBLIC 109050 0 QThreadPoolPrivate::startThread(QRunnable *)
PUBLIC 109180 0 QThreadPoolPrivate::tryStart(QRunnable *)
PUBLIC 109250 0 QThreadPoolPrivate::tryToStartMoreThreads()
PUBLIC 109320 0 QThreadPool::waitForDone(int)
PUBLIC 109350 0 QThreadPoolPrivate::waitForDone(int)
PUBLIC 109470 0 std::_Lower_bound<CategoriesRangeMapEntry const *,char const *,int,std::less<void> >(CategoriesRangeMapEntry const *,CategoriesRangeMapEntry const *,char const * const &,std::less<void>,int *)
PUBLIC 1094d0 0 std::lower_bound<CategoriesRangeMapEntry const *,char const *>(CategoriesRangeMapEntry const *,CategoriesRangeMapEntry const *,char const * const &)
PUBLIC 109500 0 qDeleteAll<QRegExpLookahead * const *>(QRegExpLookahead * const *,QRegExpLookahead * const *)
PUBLIC 109560 0 QMap<int,int>::QMap<int,int>(QMap<int,int> const &)
PUBLIC 1095d0 0 QVector<int>::QVector<int>(int)
PUBLIC 109630 0 QVector<QRegExpAtom>::QVector<QRegExpAtom>(QVector<QRegExpAtom> const &)
PUBLIC 1096e0 0 QRegExpEngine::Box::Box(QRegExpEngine *)
PUBLIC 109800 0 QRegExp::QRegExp(QRegExp const &)
PUBLIC 109850 0 QRegExp::QRegExp(QString const &,Qt::CaseSensitivity,QRegExp::PatternSyntax)
PUBLIC 109900 0 QRegExp::QRegExp()
PUBLIC 109940 0 QRegExpCharClass::QRegExpCharClass()
PUBLIC 109a20 0 QRegExpEngine::QRegExpEngine(QRegExpEngineKey const &)
PUBLIC 109b50 0 QRegExpEngine::QRegExpEngine(Qt::CaseSensitivity,bool)
PUBLIC 109c00 0 QRegExpPrivate::QRegExpPrivate(QRegExpEngineKey const &)
PUBLIC 109c60 0 QRegExpPrivate::QRegExpPrivate()
PUBLIC 109d00 0 QScopedPointer<QRegExpCharClass,QScopedPointerDeleter<QRegExpCharClass> >::~QScopedPointer<QRegExpCharClass,QScopedPointerDeleter<QRegExpCharClass> >()
PUBLIC 109d20 0 QForeachContainer<QVector<QStaticPlugin> >::~QForeachContainer<QVector<QStaticPlugin> >()
PUBLIC 109d50 0 QVector<QRegExpAutomatonState>::~QVector<QRegExpAutomatonState>()
PUBLIC 109db0 0 QVector<QRegExpCharClass>::~QVector<QRegExpCharClass>()
PUBLIC 109e00 0 QRegExpEngine::Box::~Box()
PUBLIC 10a060 0 QRegExp::~QRegExp()
PUBLIC 10a0b0 0 QRegExpAutomatonState::~QRegExpAutomatonState()
PUBLIC 10a1a0 0 QRegExpCharClass::~QRegExpCharClass()
PUBLIC 10a200 0 QRegExpEngine::~QRegExpEngine()
PUBLIC 10a400 0 QRegExpMatchState::~QRegExpMatchState()
PUBLIC 10a460 0 QRegExpPrivate::~QRegExpPrivate()
PUBLIC 10a590 0 QMap<int,int>::operator=(QMap<int,int> const &)
PUBLIC 10a5f0 0 QVector<int>::operator=(QVector<int> const &)
PUBLIC 10a640 0 QVector<QRegExpAtom>::operator=(QVector<QRegExpAtom> &&)
PUBLIC 10a670 0 QRegExpEngine::Box::operator=(QRegExpEngine::Box const &)
PUBLIC 10a7b0 0 QRegExp::operator=(QRegExp const &)
PUBLIC 10a890 0 QRegExpCharClass::operator=(QRegExpCharClass const &)
PUBLIC 10a930 0 operator<<(QDebug,QRegExp const &)
PUBLIC 10aa90 0 QRegExp::operator==(QRegExp const &)
PUBLIC 10aaf0 0 QVector<QRegExpAtom>::operator[](int)
PUBLIC 10ab60 0 QVector<QRegExpAutomatonState>::operator[](int)
PUBLIC 10abe0 0 QRegExpEngine::addAnchors(int,int,int)
PUBLIC 10ac80 0 QRegExpEngine::Box::addAnchorsToEngine(QRegExpEngine::Box const &)
PUBLIC 10aec0 0 QRegExpEngine::addCatTransitions(QVector<int> const &,QVector<int> const &)
PUBLIC 10af60 0 QRegExpCharClass::addCategories(unsigned int)
PUBLIC 10afe0 0 QRegExpEngine::addLookahead(QRegExpEngine *,bool)
PUBLIC 10b040 0 QRegExpEngine::addPlusTransitions(QVector<int> const &,QVector<int> const &,int)
PUBLIC 10b290 0 QRegExpCharClass::addRange(unsigned short,unsigned short)
PUBLIC 10b490 0 QRegExpEngine::anchorAlternation(int,int)
PUBLIC 10b520 0 QRegExpEngine::anchorConcatenation(int,int)
PUBLIC 10b580 0 QList<QVector<int> >::append(QVector<int> const &)
PUBLIC 10b640 0 QVector<QRegExpAnchorAlternation>::append(QRegExpAnchorAlternation const &)
PUBLIC 10b6c0 0 QVector<QRegExpAutomatonState>::append(QRegExpAutomatonState const &)
PUBLIC 10b800 0 QVector<QRegExpCharClass>::append(QRegExpCharClass const &)
PUBLIC 10b920 0 QRegExpEngine::badCharMatch(QRegExpMatchState &)
PUBLIC 10ba80 0 QRegExp::cap(int)
PUBLIC 10baa0 0 QRegExp::cap(int)
PUBLIC 10bb60 0 QRegExp::captureCount()
PUBLIC 10bb80 0 QRegExp::capturedTexts()
PUBLIC 10bba0 0 QRegExp::capturedTexts()
PUBLIC 10bd70 0 QRegExpEngine::Box::cat(QRegExpEngine::Box const &)
PUBLIC 10c360 0 QRegExpEngine::Box::catAnchor(int)
PUBLIC 10c4e0 0 QCache<QRegExpEngineKey,QRegExpEngine>::clear()
PUBLIC 10c560 0 QVector<QRegExpAtom>::clear()
PUBLIC 10c5e0 0 QRegExpEngine::Box::clear()
PUBLIC 10c650 0 QHash<QRegExpEngineKey,QCache<QRegExpEngineKey,QRegExpEngine>::Node>::createNode(unsigned int,QRegExpEngineKey const &,QCache<QRegExpEngineKey,QRegExpEngine>::Node const &,QHashNode<QRegExpEngineKey,QCache<QRegExpEngineKey,QRegExpEngine>::Node> * *)
PUBLIC 10c6d0 0 QRegExpEngine::createState(QRegExpCharClass const &)
PUBLIC 10c7f0 0 QRegExpEngine::createState(QChar)
PUBLIC 10c880 0 QVector<int>::data()
PUBLIC 10c8e0 0 QVector<QRegExpAutomatonState>::defaultConstruct(QRegExpAutomatonState *,QRegExpAutomatonState *)
PUBLIC 10c920 0 QVector<QRegExpCharClass>::defaultConstruct(QRegExpCharClass *,QRegExpCharClass *)
PUBLIC 10ca30 0 QHash<QRegExpEngineKey,QCache<QRegExpEngineKey,QRegExpEngine>::Node>::deleteNode2(QHashData::Node *)
PUBLIC 10cb80 0 QVector<QRegExpAutomatonState>::destruct(QRegExpAutomatonState *,QRegExpAutomatonState *)
PUBLIC 10cbb0 0 QVector<QRegExpCharClass>::destruct(QRegExpCharClass *,QRegExpCharClass *)
PUBLIC 10cc30 0 QHash<QRegExpEngineKey,QCache<QRegExpEngineKey,QRegExpEngine>::Node>::detach()
PUBLIC 10cc90 0 QList<QVector<int> >::detach_helper(int)
PUBLIC 10cd80 0 QList<QVector<int> >::detach_helper_grow(int,int)
PUBLIC 10ced0 0 QHash<QRegExpEngineKey,QCache<QRegExpEngineKey,QRegExpEngine>::Node>::duplicateNode(QHashData::Node *,void *)
PUBLIC 10cf30 0 QHash<QRegExpEngineKey,QCache<QRegExpEngineKey,QRegExpEngine>::Node>::end()
PUBLIC 10cf90 0 QMap<int,int>::erase(QMap<int,int>::iterator)
PUBLIC 10d040 0 QRegExpEngine::error(char const *)
PUBLIC 10d0c0 0 QRegExp::escape(QString const &)
PUBLIC 10d270 0 QRegExp::exactMatch(QString const &)
PUBLIC 10d2e0 0 QHash<QRegExpEngineKey,QCache<QRegExpEngineKey,QRegExpEngine>::Node>::find(QRegExpEngineKey const &)
PUBLIC 10d350 0 QMap<int,int>::find(int const &)
PUBLIC 10d3b0 0 QHash<QRegExpEngineKey,QCache<QRegExpEngineKey,QRegExpEngine>::Node>::findNode(QRegExpEngineKey const &,unsigned int *)
PUBLIC 10d450 0 QVector<QRegExpAutomatonState>::freeData(QTypedArrayData<QRegExpAutomatonState> *)
PUBLIC 10d4a0 0 QRegExpEngine::getChar()
PUBLIC 10d4d0 0 QRegExpEngine::getEscape()
PUBLIC 10e3a0 0 QRegExpEngine::getRep(int)
PUBLIC 10e420 0 QRegExpEngine::getToken()
PUBLIC 10e8c0 0 QRegExpEngine::goodStringMatch(QRegExpMatchState &)
PUBLIC 10e9c0 0 QRegExpEngine::heuristicallyChooseHeuristic()
PUBLIC 10ea50 0 QRegExpCharClass::in(QChar)
PUBLIC 10eb00 0 QRegExp::indexIn(QString const &,int,QRegExp::CaretMode)
PUBLIC 10eb70 0 `anonymous namespace'::Q_QGS_globalEngineCache::innerFunction()
PUBLIC 10ec50 0 QCache<QRegExpEngineKey,QRegExpEngine>::insert(QRegExpEngineKey const &,QRegExpEngine *,int)
PUBLIC 10ed30 0 QHash<QRegExpEngineKey,QCache<QRegExpEngineKey,QRegExpEngine>::Node>::insert(QRegExpEngineKey const &,QCache<QRegExpEngineKey,QRegExpEngine>::Node const &)
PUBLIC 10ee10 0 QMap<int,int>::insertMulti(int const &,int const &)
PUBLIC 10eed0 0 QRegExpMatchState::match(QChar const *,int,int,bool,bool,int)
PUBLIC 10f060 0 QRegExpMatchState::matchHere()
PUBLIC 10fe10 0 QRegExp::matchedLength()
PUBLIC 110080 0 QList<QVector<int> >::node_copy(QList<QVector<int> >::Node *,QList<QVector<int> >::Node *,QList<QVector<int> >::Node *)
PUBLIC 1100c0 0 QList<QVector<int> >::node_destruct(QList<QVector<int> >::Node *,QList<QVector<int> >::Node *)
PUBLIC 110110 0 QList<QVector<int> >::node_destruct(QList<QVector<int> >::Node *)
PUBLIC 110140 0 QRegExpEngine::Box::opt()
PUBLIC 110200 0 QRegExpEngine::Box::orx(QRegExpEngine::Box const &)
PUBLIC 1103c0 0 QRegExpEngine::parse(QChar const *,int)
PUBLIC 110af0 0 QRegExpEngine::parseAtom(QRegExpEngine::Box *)
PUBLIC 110ce0 0 QRegExpEngine::parseExpression(QRegExpEngine::Box *)
PUBLIC 110d80 0 QRegExpEngine::parseFactor(QRegExpEngine::Box *)
PUBLIC 1111e0 0 QRegExpEngine::parseTerm(QRegExpEngine::Box *)
PUBLIC 111290 0 QRegExp::pattern()
PUBLIC 111450 0 QRegExpMatchState::prepareForMatch(QRegExpEngine *)
PUBLIC 111580 0 qt_regexp_toCanonical(QString const &,QRegExp::PatternSyntax)
PUBLIC 111610 0 QVector<QRegExpAutomatonState>::reallocData(int,int,QFlags<QArrayData::AllocationOption>)
PUBLIC 111950 0 QVector<QRegExpCharClass>::reallocData(int,int,QFlags<QArrayData::AllocationOption>)
PUBLIC 111bd0 0 QHash<QRegExpEngineKey,QCache<QRegExpEngineKey,QRegExpEngine>::Node>::remove(QRegExpEngineKey const &)
PUBLIC 111cb0 0 QVector<int>::resize(int)
PUBLIC 111d00 0 QRegExpEngine::Box::set(QRegExpCharClass const &)
PUBLIC 111e00 0 QRegExpEngine::Box::set(int)
PUBLIC 111ef0 0 QRegExpEngine::Box::set(QChar)
PUBLIC 111ff0 0 QRegExpCharClass::setNegative(bool)
PUBLIC 112070 0 QRegExpEngine::setup()
PUBLIC 112170 0 QRegExpEngine::Box::setupHeuristics()
PUBLIC 1123a0 0 QRegExpEngine::setupState(int)
PUBLIC 112430 0 QRegExpEngine::skipChars(int)
PUBLIC 112470 0 QRegExpEngine::startAtom(bool)
PUBLIC 112510 0 QRegExpEngine::startTokenizer(QChar const *,int)
PUBLIC 112600 0 QCache<QRegExpEngineKey,QRegExpEngine>::take(QRegExpEngineKey const &)
PUBLIC 112650 0 QRegExpMatchState::testAnchor(int,int,int const *)
PUBLIC 1128d0 0 QCache<QRegExpEngineKey,QRegExpEngine>::trim(int)
PUBLIC 112950 0 QMap<int,int>::unite(QMap<int,int> const &)
PUBLIC 112a60 0 QCache<QRegExpEngineKey,QRegExpEngine>::unlink(QCache<QRegExpEngineKey,QRegExpEngine>::Node &)
PUBLIC 112ac0 0 QList<QString>::value(int)
PUBLIC 112ea0 0 QBasicTimer::start(int,QObject *)
PUBLIC 112fb0 0 QBasicTimer::stop()
PUBLIC 113020 0 QElapsedTimer::hasExpired(__int64)
PUBLIC 113040 0 QElapsedTimer::invalidate()
PUBLIC 113060 0 QElapsedTimer::isValid()
PUBLIC 113090 0 QSharedPointer<QNonContiguousByteDeviceBufferImpl>::create<QBuffer * &>(QBuffer * &)
PUBLIC 113140 0 QSharedPointer<QNonContiguousByteDeviceIoDeviceImpl>::create<QIODevice * &>(QIODevice * &)
PUBLIC 1131f0 0 QSharedPointer<QNonContiguousByteDeviceRingBufferImpl>::create<QSharedPointer<QRingBuffer> >(QSharedPointer<QRingBuffer> &&)
PUBLIC 1132c0 0 QByteDeviceWrappingIoDevice::QByteDeviceWrappingIoDevice(QNonContiguousByteDevice *)
PUBLIC 113350 0 QNonContiguousByteDevice::QNonContiguousByteDevice()
PUBLIC 113370 0 QNonContiguousByteDeviceBufferImpl::QNonContiguousByteDeviceBufferImpl(QBuffer *)
PUBLIC 113500 0 QNonContiguousByteDeviceIoDeviceImpl::QNonContiguousByteDeviceIoDeviceImpl(QIODevice *)
PUBLIC 113600 0 QNonContiguousByteDeviceRingBufferImpl::QNonContiguousByteDeviceRingBufferImpl(QSharedPointer<QRingBuffer>)
PUBLIC 113710 0 QSharedPointer<char>::~QSharedPointer<char>()
PUBLIC 113750 0 QNonContiguousByteDevice::~QNonContiguousByteDevice()
PUBLIC 113760 0 QByteDeviceWrappingIoDevice::`vector deleting destructor'(unsigned int)
PUBLIC 113790 0 QNonContiguousByteDevice::`vector deleting destructor'(unsigned int)
PUBLIC 1137c0 0 QNonContiguousByteDeviceBufferImpl::`vector deleting destructor'(unsigned int)
PUBLIC 113820 0 QNonContiguousByteDeviceIoDeviceImpl::`vector deleting destructor'(unsigned int)
PUBLIC 113890 0 QNonContiguousByteDeviceRingBufferImpl::`vector deleting destructor'(unsigned int)
PUBLIC 113940 0 QNonContiguousByteDeviceBufferImpl::advanceReadPointer(__int64)
PUBLIC 113960 0 QNonContiguousByteDeviceByteArrayImpl::advanceReadPointer(__int64)
PUBLIC 113990 0 QNonContiguousByteDeviceIoDeviceImpl::advanceReadPointer(__int64)
PUBLIC 113a70 0 QNonContiguousByteDeviceRingBufferImpl::advanceReadPointer(__int64)
PUBLIC 113aa0 0 QByteDeviceWrappingIoDevice::atEnd()
PUBLIC 113ab0 0 QNonContiguousByteDeviceBufferImpl::atEnd()
PUBLIC 113ac0 0 QNonContiguousByteDeviceByteArrayImpl::atEnd()
PUBLIC 113ae0 0 QNonContiguousByteDeviceIoDeviceImpl::atEnd()
PUBLIC 113af0 0 QNonContiguousByteDeviceRingBufferImpl::atEnd()
PUBLIC 113b10 0 QNonContiguousByteDeviceFactory::createShared(QIODevice *)
PUBLIC 113c30 0 QNonContiguousByteDeviceFactory::createShared(QSharedPointer<QRingBuffer>)
PUBLIC 113d20 0 QtSharedPointer::ExternalRefCountWithContiguousData<QNonContiguousByteDeviceBufferImpl>::deleter(QtSharedPointer::ExternalRefCountData *)
PUBLIC 113d30 0 QtSharedPointer::ExternalRefCountWithContiguousData<QNonContiguousByteDeviceIoDeviceImpl>::deleter(QtSharedPointer::ExternalRefCountData *)
PUBLIC 113d40 0 QNonContiguousByteDevice::disableReset()
PUBLIC 113d50 0 QByteDeviceWrappingIoDevice::isSequential()
PUBLIC 113d70 0 QByteDeviceWrappingIoDevice::readData(char *,__int64)
PUBLIC 113de0 0 QNonContiguousByteDeviceBufferImpl::readPointer(__int64,__int64 &)
PUBLIC 113e00 0 QNonContiguousByteDeviceByteArrayImpl::readPointer(__int64,__int64 &)
PUBLIC 113ed0 0 QNonContiguousByteDeviceIoDeviceImpl::readPointer(__int64,__int64 &)
PUBLIC 1140f0 0 QNonContiguousByteDeviceRingBufferImpl::readPointer(__int64,__int64 &)
PUBLIC 114180 0 QRingBuffer::readPointerAtPosition(__int64,__int64 &)
PUBLIC 114230 0 QByteDeviceWrappingIoDevice::reset()
PUBLIC 114240 0 QNonContiguousByteDeviceBufferImpl::reset()
PUBLIC 114260 0 QNonContiguousByteDeviceByteArrayImpl::reset()
PUBLIC 114280 0 QNonContiguousByteDeviceIoDeviceImpl::reset()
PUBLIC 114330 0 QNonContiguousByteDeviceRingBufferImpl::reset()
PUBLIC 114350 0 QByteDeviceWrappingIoDevice::size()
PUBLIC 114370 0 QNonContiguousByteDeviceBufferImpl::size()
PUBLIC 114380 0 QNonContiguousByteDeviceByteArrayImpl::size()
PUBLIC 114390 0 QNonContiguousByteDeviceIoDeviceImpl::size()
PUBLIC 1143c0 0 QNonContiguousByteDeviceRingBufferImpl::size()
PUBLIC 1143d0 0 QNonContiguousByteDeviceFactory::wrap(QNonContiguousByteDevice *)
PUBLIC 1145d0 0 qIsEffectiveTLD(QString const &)
PUBLIC 1147f0 0 QThreadStorageData::QThreadStorageData(void (*)(void *))
PUBLIC 114990 0 QThreadStorageData::~QThreadStorageData()
PUBLIC 114a30 0 QVector<void *>::operator=(QVector<void *> &&)
PUBLIC 114a60 0 QVector<int>::operator[](int)
PUBLIC 114ad0 0 QVector<void *>::clear()
PUBLIC 114b50 0 QThreadStorageData::finish(void * *)
PUBLIC 114d50 0 QThreadStorageData::get()
PUBLIC 114e00 0 `anonymous namespace'::Q_QGS_destructors::innerFunction()
PUBLIC 114ec0 0 QThreadStorageData::set(void *)
PUBLIC 115010 0 QFileInfo::QFileInfo(QFile const &)
PUBLIC 1150e0 0 QFileInfo::QFileInfo(QString const &)
PUBLIC 115160 0 QFileInfo::QFileInfo(QFileInfoPrivate *)
PUBLIC 115180 0 QFileInfo::QFileInfo()
PUBLIC 1151f0 0 QFileInfoPrivate::QFileInfoPrivate(QFileInfoPrivate const &)
PUBLIC 115340 0 QFileInfoPrivate::QFileInfoPrivate(QFileSystemEntry const &,QFileSystemMetaData const &,QAbstractFileEngine *)
PUBLIC 115480 0 QFileInfoPrivate::QFileInfoPrivate(QString const &)
PUBLIC 1155c0 0 QFileInfoPrivate::QFileInfoPrivate()
PUBLIC 1156a0 0 QVector<QDateTime>::~QVector<QDateTime>()
PUBLIC 115700 0 QFileInfo::~QFileInfo()
PUBLIC 115730 0 QFileInfoPrivate::~QFileInfoPrivate()
PUBLIC 1157d0 0 QFileInfo::operator=(QFileInfo const &)
PUBLIC 115820 0 QVector<QDateTime>::operator[](int)
PUBLIC 115890 0 QFileInfo::absoluteFilePath()
PUBLIC 1158d0 0 QFileInfo::absolutePath()
PUBLIC 115970 0 QFileInfo::baseName()
PUBLIC 1159b0 0 QFileSystemEngine::bundleName(QFileSystemEntry const &)
PUBLIC 1159d0 0 QFileInfo::canonicalFilePath()
PUBLIC 115a10 0 QVector<QDateTime>::defaultConstruct(QDateTime *,QDateTime *)
PUBLIC 115a80 0 QVector<QDateTime>::destruct(QDateTime *,QDateTime *)
PUBLIC 115ab0 0 QSharedDataPointer<QFileInfoPrivate>::detach_helper()
PUBLIC 115b50 0 QFileInfo::dir()
PUBLIC 115bf0 0 QFileInfo::exists()
PUBLIC 115c50 0 QFileInfo::exists(QString const &)
PUBLIC 115dd0 0 QFileInfo::fileName()
PUBLIC 115e10 0 QFileInfo::filePath()
PUBLIC 115e50 0 QVector<QDateTime>::freeData(QTypedArrayData<QDateTime> *)
PUBLIC 115ea0 0 QFileInfoPrivate::getFileFlags(QFlags<QAbstractFileEngine::FileFlag>)
PUBLIC 115f80 0 QFileInfoPrivate::getFileName(QAbstractFileEngine::FileName)
PUBLIC 116330 0 QFileInfoPrivate::getFileTime(QAbstractFileEngine::FileTime)
PUBLIC 116470 0 QFileInfo::isDir()
PUBLIC 1164d0 0 QFileInfo::isExecutable()
PUBLIC 116540 0 QFileInfo::isFile()
PUBLIC 1165a0 0 QFileInfo::isHidden()
PUBLIC 116600 0 QFileInfo::isReadable()
PUBLIC 116670 0 QFileInfo::isRelative()
PUBLIC 1166a0 0 QFileInfo::isSymLink()
PUBLIC 116710 0 QFileInfo::isWritable()
PUBLIC 116780 0 QFileInfo::lastModified()
PUBLIC 116820 0 QFileInfo::path()
PUBLIC 116860 0 QFileInfo::readLink()
PUBLIC 1168a0 0 QVector<QDateTime>::reallocData(int,int,QFlags<QArrayData::AllocationOption>)
PUBLIC 116af0 0 QFileInfo::setFile(QString const &)
PUBLIC 116bc0 0 QFileInfo::size()
PUBLIC 116c50 0 QFileInfo::suffix()
PUBLIC 116c90 0 qDecodeDataUrl(QUrl const &,QString &,QByteArray &)
PUBLIC 117220 0 QCryptographicHash::QCryptographicHash(QCryptographicHash::Algorithm)
PUBLIC 117270 0 QCryptographicHash::~QCryptographicHash()
PUBLIC 123100 0 SHA256Input(SHA256Context *,unsigned char const *,unsigned int)
PUBLIC 123a40 0 SHA512Input(SHA512Context *,unsigned char const *,unsigned int)
PUBLIC 123c40 0 QCryptographicHash::addData(QByteArray const &)
PUBLIC 123c60 0 QCryptographicHash::addData(char const *,int)
PUBLIC 124650 0 QCryptographicHash::hash(QByteArray const &,QCryptographicHash::Algorithm)
PUBLIC 124920 0 QCryptographicHash::reset()
PUBLIC 124ad0 0 QCryptographicHash::result()
PUBLIC 126170 0 QSystemLibrary::load(wchar_t const *,bool)
PUBLIC 1266b0 0 QVarLengthArray<wchar_t,260>::realloc(int,int)
PUBLIC 126770 0 QSocketNotifier::qt_static_metacall(QObject *,QMetaObject::Call,int,void * *)
PUBLIC 126800 0 QSocketNotifier::activated(int,QSocketNotifier::QPrivateSignal)
PUBLIC 126830 0 QSocketNotifier::metaObject()
PUBLIC 126850 0 QSocketNotifier::qt_metacall(QMetaObject::Call,int,void * *)
PUBLIC 1268b0 0 QSocketNotifier::qt_metacast(char const *)
PUBLIC 126910 0 QSocketNotifier::QSocketNotifier(int,QSocketNotifier::Type,QObject *)
PUBLIC 126a30 0 QSocketNotifier::~QSocketNotifier()
PUBLIC 126a90 0 QSocketNotifier::`vector deleting destructor'(unsigned int)
PUBLIC 126b10 0 QSocketNotifier::event(QEvent *)
PUBLIC 126bb0 0 QSocketNotifier::isEnabled()
PUBLIC 126bc0 0 QSocketNotifier::setEnabled(bool)
PUBLIC 126c50 0 QAbstractSocketEngine::error()
PUBLIC 126c60 0 QSocketNotifier::type()
PUBLIC 126c70 0 qDeleteAll<QFileSystemIterator * const *>(QFileSystemIterator * const *,QFileSystemIterator * const *)
PUBLIC 126cc0 0 QDirIterator::QDirIterator(QDir const &,QFlags<QDirIterator::IteratorFlag>)
PUBLIC 126d80 0 QDirIterator::QDirIterator(QString const &,QStringList const &,QFlags<QDir::Filter>,QFlags<QDirIterator::IteratorFlag>)
PUBLIC 126e30 0 QDirIterator::QDirIterator(QString const &,QFlags<QDir::Filter>,QFlags<QDirIterator::IteratorFlag>)
PUBLIC 126f50 0 QDirIteratorPrivate::QDirIteratorPrivate(QFileSystemEntry const &,QStringList const &,QFlags<QDir::Filter>,QFlags<QDirIterator::IteratorFlag>,bool)
PUBLIC 127310 0 QFileInfoPrivate::QFileInfoPrivate(QFileSystemEntry const &,QFileSystemMetaData const &)
PUBLIC 1274a0 0 QDirIteratorPrivateIteratorStack<QAbstractFileEngineIterator>::~QDirIteratorPrivateIteratorStack<QAbstractFileEngineIterator>()
PUBLIC 127520 0 QDirIteratorPrivateIteratorStack<QFileSystemIterator>::~QDirIteratorPrivateIteratorStack<QFileSystemIterator>()
PUBLIC 1275b0 0 QVector<QRegExp>::~QVector<QRegExp>()
PUBLIC 127610 0 QScopedPointer<QDirIteratorPrivate,QScopedPointerDeleter<QDirIteratorPrivate> >::~QScopedPointer<QDirIteratorPrivate,QScopedPointerDeleter<QDirIteratorPrivate> >()
PUBLIC 127630 0 QDirIteratorPrivate::~QDirIteratorPrivate()
PUBLIC 1277c0 0 QDirIteratorPrivate::advance()
PUBLIC 127b80 0 QVector<QRegExp>::append(QRegExp const &)
PUBLIC 127c50 0 QDirIteratorPrivate::checkAndPushDirectory(QFileInfo const &)
PUBLIC 127dc0 0 QVector<QRegExp>::defaultConstruct(QRegExp *,QRegExp *)
PUBLIC 127e30 0 QVector<QRegExp>::destruct(QRegExp *,QRegExp *)
PUBLIC 127e60 0 QDirIterator::fileInfo()
PUBLIC 127e80 0 QDirIterator::fileName()
PUBLIC 127ea0 0 QDirIterator::filePath()
PUBLIC 127ec0 0 QVector<QRegExp>::freeData(QTypedArrayData<QRegExp> *)
PUBLIC 127f10 0 QDirIterator::hasNext()
PUBLIC 127f30 0 QDirIteratorPrivate::matchesFilters(QString const &,QFileInfo const &)
PUBLIC 128190 0 QDirIterator::next()
PUBLIC 1281c0 0 QDirIteratorPrivate::pushDirectory(QFileInfo const &)
PUBLIC 128380 0 QVector<QRegExp>::reallocData(int,int,QFlags<QArrayData::AllocationOption>)
PUBLIC 1285d0 0 QStack<QAbstractFileEngineIterator *>::top()
PUBLIC 128690 0 QByteArrayMatcher::QByteArrayMatcher(QByteArray const &)
PUBLIC 128730 0 QByteArrayMatcher::QByteArrayMatcher(char const *,int)
PUBLIC 1287b0 0 QArgumentType::~QArgumentType()
PUBLIC 128900 0 QByteArrayMatcher::indexIn(QByteArray const &,int)
PUBLIC 128940 0 qFindByteArray(char const *,int,int,char const *,int)
PUBLIC 128b80 0 QNonContiguousByteDevice::qt_static_metacall(QObject *,QMetaObject::Call,int,void * *)
PUBLIC 128c70 0 QNonContiguousByteDevice::metaObject()
PUBLIC 128c90 0 QNonContiguousByteDeviceBufferImpl::metaObject()
PUBLIC 128cb0 0 QNonContiguousByteDeviceIoDeviceImpl::metaObject()
PUBLIC 128cd0 0 QNonContiguousByteDevice::qt_metacall(QMetaObject::Call,int,void * *)
PUBLIC 128d30 0 QNonContiguousByteDeviceBufferImpl::qt_metacall(QMetaObject::Call,int,void * *)
PUBLIC 128d90 0 QNonContiguousByteDevice::qt_metacast(char const *)
PUBLIC 128df0 0 QNonContiguousByteDeviceBufferImpl::qt_metacast(char const *)
PUBLIC 128e50 0 QNonContiguousByteDeviceIoDeviceImpl::qt_metacast(char const *)
PUBLIC 128eb0 0 QNonContiguousByteDevice::readProgress(__int64,__int64)
PUBLIC 128f00 0 QNonContiguousByteDevice::readyRead()
PUBLIC 129080 0 z_inflate
PUBLIC 12a730 0 z_inflateCopy
PUBLIC 12a890 0 z_inflateEnd
PUBLIC 12a8e0 0 z_inflateGetHeader
PUBLIC 12a910 0 z_inflateInit2_
PUBLIC 12a9d0 0 z_inflateInit_
PUBLIC 12a9f0 0 z_inflateMark
PUBLIC 12aa50 0 z_inflatePrime
PUBLIC 12aac0 0 z_inflateReset
PUBLIC 12ab70 0 z_inflateReset2
PUBLIC 12ac00 0 z_inflateSetDictionary
PUBLIC 12ace0 0 z_inflateSync
PUBLIC 12adc0 0 z_inflateSyncPoint
PUBLIC 12adf0 0 z_inflateUndermine
PUBLIC 12bfb0 0 z_deflate
PUBLIC 12c7f0 0 z_deflateBound
PUBLIC 12c8d0 0 z_deflateCopy
PUBLIC 12ca80 0 z_deflateEnd
PUBLIC 12cb50 0 z_deflateInit2_
PUBLIC 12cd80 0 z_deflateInit_
PUBLIC 12cdb0 0 z_deflateParams
PUBLIC 12cea0 0 z_deflatePrime
PUBLIC 12cee0 0 z_deflateReset
PUBLIC 12cfa0 0 z_deflateSetDictionary
PUBLIC 12d090 0 z_deflateSetHeader
PUBLIC 12d0c0 0 z_deflateTune
PUBLIC 12d100 0 qIsFinite(double)
PUBLIC 12d130 0 qIsInf(double)
PUBLIC 12d160 0 QTextCodec::QTextCodec()
PUBLIC 12d210 0 QTextCodec::ConverterState::~ConverterState()
PUBLIC 12d230 0 QTextCodec::~QTextCodec()
PUBLIC 12d240 0 QList<QByteArray>::operator+=(QList<QByteArray> const &)
PUBLIC 12d330 0 QIsciiCodec::`vector deleting destructor'(unsigned int)
PUBLIC 12d350 0 QLatin15Codec::`vector deleting destructor'(unsigned int)
PUBLIC 12d370 0 QLatin1Codec::`vector deleting destructor'(unsigned int)
PUBLIC 12d390 0 QBig5Codec::`vector deleting destructor'(unsigned int)
PUBLIC 12d3b0 0 QTsciiCodec::`vector deleting destructor'(unsigned int)
PUBLIC 12d3d0 0 QUtf16BECodec::`vector deleting destructor'(unsigned int)
PUBLIC 12d3f0 0 QUtf32BECodec::`vector deleting destructor'(unsigned int)
PUBLIC 12d410 0 QUtf8Codec::`vector deleting destructor'(unsigned int)
PUBLIC 12d430 0 QBig5Codec::aliases()
PUBLIC 12d450 0 QCP949Codec::aliases()
PUBLIC 12d470 0 QTextCodec::codecForLocale()
PUBLIC 12d490 0 QTextCodec::codecForMib(int)
PUBLIC 12d680 0 QTextCodec::codecForName(QByteArray const &)
PUBLIC 12d950 0 QTextCodec::codecForUtfText(QByteArray const &,QTextCodec *)
PUBLIC 12da20 0 QHash<QByteArray,QTextCodec *>::createNode(unsigned int,QByteArray const &,QTextCodec * const &,QHashNode<QByteArray,QTextCodec *> * *)
PUBLIC 12da90 0 QHash<QByteArray,QTextCodec *>::deleteNode2(QHashData::Node *)
PUBLIC 12dac0 0 `anonymous namespace'::Q_QGS_textCodecsMutex::innerFunction()
PUBLIC 12db90 0 QHash<QByteArray,QTextCodec *>::insert(QByteArray const &,QTextCodec * const &)
PUBLIC 12dc60 0 QBig5Codec::mibEnum()
PUBLIC 12dc70 0 QBig5hkscsCodec::mibEnum()
PUBLIC 12dc80 0 QCP949Codec::mibEnum()
PUBLIC 12dc90 0 QEucKrCodec::mibEnum()
PUBLIC 12dca0 0 QBig5Codec::name()
PUBLIC 12dcc0 0 QBig5hkscsCodec::name()
PUBLIC 12dce0 0 QCP949Codec::name()
PUBLIC 12dd00 0 QEucKrCodec::name()
PUBLIC 12dd20 0 QList<void (*)(void)>::prepend(void (*const &)(void))
PUBLIC 12ddb0 0 qTextCodecNameMatch(char const *,char const *)
PUBLIC 12e970 0 QHash<QByteArray,QTextCodec *>::value(QByteArray const &)
PUBLIC 12e9f0 0 QRegularExpression::QRegularExpression()
PUBLIC 12ea60 0 QRegularExpressionPrivate::QRegularExpressionPrivate()
