MODULE windows x86 BE7E773A7BD24CE5A8782DDCBC4FFF161 ETUpdater.pdb
INFO CODE_ID 588410C32CA000 ETUpdater.exe
FUNC 1000 1c 0 `dynamic initializer for 'std::_Error_objects<int>::_Generic_object''
FUNC 1020 1c 0 `dynamic initializer for 'std::_Error_objects<int>::_Iostream_object''
FUNC 1040 1c 0 `dynamic initializer for 'std::_Error_objects<int>::_System_object''
FUNC 1060 12 0 `dynamic initializer for 'std::num_put<char,std::back_insert_iterator<std::basic_string<char,std::char_traits<char>,std::allocator<char> > > >::id''
FUNC 1080 12 0 `dynamic initializer for 'std::num_put<wchar_t,std::back_insert_iterator<std::basic_string<wchar_t,std::char_traits<wchar_t>,std::allocator<wchar_t> > > >::id''
FUNC 10a0 d 0 std::`dynamic initializer for '_Tuple_alloc''
FUNC 10b0 d 0 std::`dynamic initializer for 'allocator_arg''
FUNC 10c0 f 0 std::`dynamic initializer for 'ignore''
FUNC 10d0 d 0 std::`dynamic initializer for 'piecewise_construct''
FUNC 10e0 d 0 std::`dynamic initializer for 'allocator_arg''
FUNC 10f0 d 0 std::`dynamic initializer for 'piecewise_construct''
FUNC 1100 d 0 std::`dynamic initializer for 'allocator_arg''
FUNC 1110 d 0 std::`dynamic initializer for 'piecewise_construct''
FUNC 1120 d 0 std::`dynamic initializer for 'allocator_arg''
FUNC 1130 d 0 std::`dynamic initializer for 'piecewise_construct''
FUNC 1140 d 0 std::`dynamic initializer for 'allocator_arg''
FUNC 1150 d 0 std::`dynamic initializer for 'piecewise_construct''
FUNC 1160 d 0 std::`dynamic initializer for '_Tuple_alloc''
FUNC 1170 d 0 std::`dynamic initializer for 'allocator_arg''
FUNC 1180 f 0 std::`dynamic initializer for 'ignore''
FUNC 1190 d 0 std::`dynamic initializer for 'piecewise_construct''
FUNC 11a0 d 0 std::`dynamic initializer for '_Tuple_alloc''
FUNC 11b0 d 0 std::`dynamic initializer for 'allocator_arg''
FUNC 11c0 f 0 std::`dynamic initializer for 'ignore''
FUNC 11d0 d 0 std::`dynamic initializer for 'piecewise_construct''
FUNC 11e0 d 0 std::`dynamic initializer for '_Tuple_alloc''
FUNC 11f0 d 0 std::`dynamic initializer for 'allocator_arg''
FUNC 1200 f 0 std::`dynamic initializer for 'ignore''
FUNC 1210 d 0 std::`dynamic initializer for 'piecewise_construct''
FUNC 1220 f 0 `dynamic initializer for 'staticQGenericEnginePluginInstance''
FUNC 1230 f 0 `dynamic initializer for 'staticQNativeWifiEnginePluginInstance''
FUNC 1240 21 0 `dynamic initializer for 'Logging::CLIENT_APP_NAME''
FUNC 1270 21 0 `dynamic initializer for 'Logging::DAEMON_APP_NAME''
FUNC 12a0 21 0 `dynamic initializer for 'Logging::_LOG_DIRNAME''
FUNC 12d0 d 0 std::`dynamic initializer for '_Tuple_alloc''
FUNC 12e0 d 0 std::`dynamic initializer for 'allocator_arg''
FUNC 12f0 f 0 std::`dynamic initializer for 'ignore''
FUNC 1300 d 0 std::`dynamic initializer for 'piecewise_construct''
FUNC 1310 21 0 `dynamic initializer for 'WinProcessUtils::_CLIENT_ID_KEY''
FUNC 1340 21 0 `dynamic initializer for 'WinProcessUtils::_PASSWORD_KEY''
FUNC 1370 21 0 `dynamic initializer for 'WinProcessUtils::_USER_DATA_ROOT_DIR_KEY''
FUNC 13a0 21 0 `dynamic initializer for 'WinProcessUtils::_USER_ID_KEY''
FUNC 13d0 d 0 std::`dynamic initializer for '_Tuple_alloc''
FUNC 13e0 d 0 std::`dynamic initializer for 'allocator_arg''
FUNC 13f0 f 0 std::`dynamic initializer for 'ignore''
FUNC 1400 d 0 std::`dynamic initializer for 'piecewise_construct''
FUNC 1410 21 0 `dynamic initializer for 'Serializer::KEY''
FUNC 1440 11 0 `dynamic initializer for 'Serializer::KEYVALUE_SEPARATOR''
FUNC 1460 11 0 `dynamic initializer for 'Serializer::SEPARATOR''
FUNC 1480 d 0 std::`dynamic initializer for 'allocator_arg''
FUNC 1490 d 0 std::`dynamic initializer for 'piecewise_construct''
FUNC 14a0 d 0 std::`dynamic initializer for '_Tuple_alloc''
FUNC 14b0 d 0 std::`dynamic initializer for 'allocator_arg''
FUNC 14c0 f 0 std::`dynamic initializer for 'ignore''
FUNC 14d0 d 0 std::`dynamic initializer for 'piecewise_construct''
FUNC 14e0 21 0 `dynamic initializer for 'Deserializer::KEY''
FUNC 1510 11 0 `dynamic initializer for 'Deserializer::KEYVALUE_SEPARATOR''
FUNC 1530 11 0 `dynamic initializer for 'Deserializer::SEPARATOR''
FUNC 1550 d 0 std::`dynamic initializer for '_Tuple_alloc''
FUNC 1560 d 0 std::`dynamic initializer for 'allocator_arg''
FUNC 1570 f 0 std::`dynamic initializer for 'ignore''
FUNC 1580 d 0 std::`dynamic initializer for 'piecewise_construct''
FUNC 1590 d 0 std::`dynamic initializer for '_Tuple_alloc''
FUNC 15a0 d 0 std::`dynamic initializer for 'allocator_arg''
FUNC 15b0 f 0 std::`dynamic initializer for 'ignore''
FUNC 15c0 d 0 std::`dynamic initializer for 'piecewise_construct''
FUNC 15d0 d 0 std::`dynamic initializer for 'allocator_arg''
FUNC 15e0 d 0 std::`dynamic initializer for 'piecewise_construct''
FUNC 15f0 d 0 std::`dynamic initializer for '_Tuple_alloc''
FUNC 1600 d 0 std::`dynamic initializer for 'allocator_arg''
FUNC 1610 f 0 std::`dynamic initializer for 'ignore''
FUNC 1620 d 0 std::`dynamic initializer for 'piecewise_construct''
FUNC 1630 d 0 std::`dynamic initializer for '_Tuple_alloc''
FUNC 1640 d 0 std::`dynamic initializer for 'allocator_arg''
FUNC 1650 f 0 std::`dynamic initializer for 'ignore''
FUNC 1660 d 0 std::`dynamic initializer for 'piecewise_construct''
FUNC 1670 d 0 std::`dynamic initializer for '_Tuple_alloc''
FUNC 1680 d 0 std::`dynamic initializer for 'allocator_arg''
FUNC 1690 f 0 std::`dynamic initializer for 'ignore''
FUNC 16a0 d 0 std::`dynamic initializer for 'piecewise_construct''
FUNC 16b0 d 0 std::`dynamic initializer for 'allocator_arg''
FUNC 16c0 d 0 std::`dynamic initializer for 'piecewise_construct''
FUNC 16d0 21 0 `dynamic initializer for 'WebsiteUtils::_ET_PROTO''
FUNC 1700 21 0 `dynamic initializer for 'WebsiteUtils::_ET_SERVER_HOSTNAME''
FUNC 1730 d 0 std::`dynamic initializer for 'allocator_arg''
FUNC 1740 d 0 std::`dynamic initializer for 'piecewise_construct''
FUNC 1750 d 0 std::`dynamic initializer for '_Tuple_alloc''
FUNC 1760 d 0 std::`dynamic initializer for 'allocator_arg''
FUNC 1770 f 0 std::`dynamic initializer for 'ignore''
FUNC 1780 d 0 std::`dynamic initializer for 'piecewise_construct''
FUNC 1790 d 0 std::`dynamic initializer for '_Tuple_alloc''
FUNC 17a0 d 0 std::`dynamic initializer for 'allocator_arg''
FUNC 17b0 f 0 std::`dynamic initializer for 'ignore''
FUNC 17c0 d 0 std::`dynamic initializer for 'piecewise_construct''
FUNC 17d0 d 0 std::`dynamic initializer for '_Tuple_alloc''
FUNC 17e0 d 0 std::`dynamic initializer for 'allocator_arg''
FUNC 17f0 f 0 std::`dynamic initializer for 'ignore''
FUNC 1800 d 0 std::`dynamic initializer for 'piecewise_construct''
FUNC 1810 6a 0 `dynamic initializer for 'ServerMessage::messageStringKeys''
FUNC 1880 d 0 std::`dynamic initializer for '_Tuple_alloc''
FUNC 1890 d 0 std::`dynamic initializer for 'allocator_arg''
FUNC 18a0 f 0 std::`dynamic initializer for 'ignore''
FUNC 18b0 d 0 std::`dynamic initializer for 'piecewise_construct''
FUNC 18c0 d 0 std::`dynamic initializer for '_Tuple_alloc''
FUNC 18d0 d 0 std::`dynamic initializer for 'allocator_arg''
FUNC 18e0 f 0 std::`dynamic initializer for 'ignore''
FUNC 18f0 d 0 std::`dynamic initializer for 'piecewise_construct''
FUNC 1900 d 0 std::`dynamic initializer for '_Tuple_alloc''
FUNC 1910 d 0 std::`dynamic initializer for 'allocator_arg''
FUNC 1920 f 0 std::`dynamic initializer for 'ignore''
FUNC 1930 d 0 std::`dynamic initializer for 'piecewise_construct''
FUNC 1a00 8b 0 QtBreakpad::init(QString const &,bool (*)(void *,_EXCEPTION_POINTERS *,MDRawAssertionInfo *),bool (*)(wchar_t const *,wchar_t const *,void *,_EXCEPTION_POINTERS *,MDRawAssertionInfo *,bool),void *)
FUNC 1a90 87 0 QtBreakpad::init(QString const &,bool (*)(QFile &,void *),void *)
FUNC 1b20 3d 0 QtBreakpad::replaceInstance(QtBreakpad *)
FUNC 1b60 28 0 QtBreakpad::QtBreakpad(QString const &,bool (*)(void *,_EXCEPTION_POINTERS *,MDRawAssertionInfo *),bool (*)(wchar_t const *,wchar_t const *,void *,_EXCEPTION_POINTERS *,MDRawAssertionInfo *,bool),void *)
FUNC 1b90 a2 0 QtBreakpad::QtBreakpad(QString const &,bool (*)(QFile &,void *),void *)
FUNC 1c40 62 0 QtBreakpad::~QtBreakpad()
FUNC 1cb0 bf 0 QtBreakpad::buildBreakpadHandler(QString const &,bool (*)(void *,_EXCEPTION_POINTERS *,MDRawAssertionInfo *),bool (*)(wchar_t const *,wchar_t const *,void *,_EXCEPTION_POINTERS *,MDRawAssertionInfo *,bool),void *)
FUNC 1d70 173 0 QtBreakpad::qMinidumpWrapper(wchar_t const *,wchar_t const *,QtBreakpad::QMinidumpContextWrapper *,_EXCEPTION_POINTERS *,MDRawAssertionInfo *,bool)
FUNC 1ef0 3b 0 std::_Allocate<char>(unsigned int,char *)
FUNC 1f30 40 0 std::_Allocate<wchar_t>(unsigned int,wchar_t *)
FUNC 1f70 31 0 QAtomicOpsBySize<4>::deref<int>(int &)
FUNC 1fb0 1d 0 std::_Wrap_alloc<std::allocator<char> >::destroy<char *>(char * *)
FUNC 1fd0 11 0 std::allocator_traits<std::allocator<wchar_t> >::destroy<wchar_t *>(std::allocator<wchar_t> &,wchar_t * *)
FUNC 1ff0 a 0 QGenericAtomicOps<QAtomicOpsBySize<4> >::load<int>(int const &)
FUNC 2000 15 0 qSwap<QTypedArrayData<unsigned short> *>(QTypedArrayData<unsigned short> * &,QTypedArrayData<unsigned short> * &)
FUNC 2020 33 0 QAtomicOpsBySize<4>::ref<int>(int &)
FUNC 2060 3f 0 std::swap<QTypedArrayData<unsigned short> *>(QTypedArrayData<unsigned short> * &,QTypedArrayData<unsigned short> * &)
FUNC 20a0 18 0 std::_String_alloc<0,std::_String_base_types<wchar_t,std::allocator<wchar_t> > >::_String_alloc<0,std::_String_base_types<wchar_t,std::allocator<wchar_t> > >(std::allocator<wchar_t> const &)
FUNC 20c0 22 0 std::_String_val<std::_Simple_types<char> >::_String_val<std::_Simple_types<char> >()
FUNC 20f0 16 0 std::_Wrap_alloc<std::allocator<char> >::_Wrap_alloc<std::allocator<char> >()
FUNC 2110 3b 0 std::basic_string<char,std::char_traits<char>,std::allocator<char> >::basic_string<char,std::char_traits<char>,std::allocator<char> >(char const *)
FUNC 2150 3b 0 std::basic_string<wchar_t,std::char_traits<wchar_t>,std::allocator<wchar_t> >::basic_string<wchar_t,std::char_traits<wchar_t>,std::allocator<wchar_t> >(wchar_t const *)
FUNC 2190 24 0 QString::QString(QString &&)
FUNC 21c0 29 0 QString::QString(QString const &)
FUNC 21f0 1f 0 std::_Generic_error_category::_Generic_error_category()
FUNC 2210 1f 0 std::_Iostream_error_category::_Iostream_error_category()
FUNC 2230 1f 0 std::_System_error_category::_System_error_category()
FUNC 2250 17 0 std::error_category::error_category()
FUNC 2270 21 0 QtBreakpad::QMinidumpContextWrapper::QMinidumpContextWrapper(bool (*)(QFile &,void *),void *)
FUNC 22a0 17 0 std::basic_string<wchar_t,std::char_traits<wchar_t>,std::allocator<wchar_t> >::~basic_string<wchar_t,std::char_traits<wchar_t>,std::allocator<wchar_t> >()
FUNC 22c0 2a 0 QString::~QString()
FUNC 22f0 13 0 std::_Generic_error_category::~_Generic_error_category()
FUNC 2310 13 0 std::_System_error_category::~_System_error_category()
FUNC 2330 14 0 std::error_category::~error_category()
FUNC 2350 8 0 operator new(unsigned int,void *)
FUNC 2360 20 0 QString::operator=(QString &&)
FUNC 2380 2a 0 std::error_category::operator==(std::error_category const &)
FUNC 23b0 59 0 std::error_condition::operator==(std::error_condition const &)
FUNC 2410 a9 0 operator+(QString const &,char const *)
FUNC 24c0 19 0 QString::operator+=(QString const &)
FUNC 24e0 2c 0 google_breakpad::ExceptionHandler::`scalar deleting destructor'(unsigned int)
FUNC 2510 2c 0 QtBreakpad::QMinidumpContextWrapper::`scalar deleting destructor'(unsigned int)
FUNC 2540 2c 0 QtBreakpad::`scalar deleting destructor'(unsigned int)
FUNC 2570 2c 0 std::_Generic_error_category::`scalar deleting destructor'(unsigned int)
FUNC 25a0 2c 0 std::_System_error_category::`scalar deleting destructor'(unsigned int)
FUNC 25d0 2c 0 std::error_category::`scalar deleting destructor'(unsigned int)
FUNC 2600 1b5 0 std::basic_string<char,std::char_traits<char>,std::allocator<char> >::_Copy(unsigned int,unsigned int)
FUNC 27c0 1b5 0 std::basic_string<wchar_t,std::char_traits<wchar_t>,std::allocator<wchar_t> >::_Copy(unsigned int,unsigned int)
FUNC 2980 34 0 std::basic_string<char,std::char_traits<char>,std::allocator<char> >::_Eos(unsigned int)
FUNC 29c0 39 0 std::basic_string<wchar_t,std::char_traits<wchar_t>,std::allocator<wchar_t> >::_Eos(unsigned int)
FUNC 2a00 18 0 std::_String_alloc<0,std::_String_base_types<wchar_t,std::allocator<wchar_t> > >::_Getal()
FUNC 2a20 a7 0 std::basic_string<char,std::char_traits<char>,std::allocator<char> >::_Grow(unsigned int,bool)
FUNC 2ad0 a7 0 std::basic_string<wchar_t,std::char_traits<wchar_t>,std::allocator<wchar_t> >::_Grow(unsigned int,bool)
FUNC 2b80 3b 0 std::basic_string<char,std::char_traits<char>,std::allocator<char> >::_Inside(char const *)
FUNC 2bc0 3e 0 std::basic_string<wchar_t,std::char_traits<wchar_t>,std::allocator<wchar_t> >::_Inside(wchar_t const *)
FUNC 2c00 32 0 std::_String_val<std::_Simple_types<char> >::_Myptr()
FUNC 2c40 32 0 std::_String_val<std::_Simple_types<wchar_t> >::_Myptr()
FUNC 2c80 9b 0 std::basic_string<char,std::char_traits<char>,std::allocator<char> >::_Tidy(bool,unsigned int)
FUNC 2d20 9b 0 std::basic_string<wchar_t,std::char_traits<wchar_t>,std::allocator<wchar_t> >::_Tidy(bool,unsigned int)
FUNC 2dc0 16 0 std::basic_string<wchar_t,std::char_traits<wchar_t>,std::allocator<wchar_t> >::_Xlen()
FUNC 2de0 16 0 std::basic_string<char,std::char_traits<char>,std::allocator<char> >::_Xran()
FUNC 2e00 19 0 std::_Wrap_alloc<std::allocator<char> >::allocate(unsigned int)
FUNC 2e20 19 0 std::_Wrap_alloc<std::allocator<wchar_t> >::allocate(unsigned int)
FUNC 2e40 1b 0 std::allocator<char>::allocate(unsigned int)
FUNC 2e60 1b 0 std::allocator<wchar_t>::allocate(unsigned int)
FUNC 2e80 ac 0 std::basic_string<char,std::char_traits<char>,std::allocator<char> >::assign(std::basic_string<char,std::char_traits<char>,std::allocator<char> > const &,unsigned int,unsigned int)
FUNC 2f30 26 0 std::basic_string<char,std::char_traits<char>,std::allocator<char> >::assign(char const *)
FUNC 2f60 7d 0 std::basic_string<char,std::char_traits<char>,std::allocator<char> >::assign(char const *,unsigned int)
FUNC 2fe0 af 0 std::basic_string<wchar_t,std::char_traits<wchar_t>,std::allocator<wchar_t> >::assign(std::basic_string<wchar_t,std::char_traits<wchar_t>,std::allocator<wchar_t> > const &,unsigned int,unsigned int)
FUNC 3090 26 0 std::basic_string<wchar_t,std::char_traits<wchar_t>,std::allocator<wchar_t> >::assign(wchar_t const *)
FUNC 30c0 7f 0 std::basic_string<wchar_t,std::char_traits<wchar_t>,std::allocator<wchar_t> >::assign(wchar_t const *,unsigned int)
FUNC 3140 f 0 std::char_traits<char>::assign(char &,char const &)
FUNC 3150 11 0 std::char_traits<wchar_t>::assign(wchar_t &,wchar_t const &)
FUNC 3170 11 0 std::error_code::category()
FUNC 3190 30 0 std::char_traits<char>::copy(char *,char const *,unsigned int)
FUNC 31c0 30 0 std::char_traits<wchar_t>::copy(wchar_t *,wchar_t const *,unsigned int)
FUNC 31f0 15 0 QTypedArrayData<unsigned short>::deallocate(QArrayData *)
FUNC 3210 1d 0 std::_Wrap_alloc<std::allocator<char> >::deallocate(char *,unsigned int)
FUNC 3230 4c 0 std::_System_error_category::default_error_condition(int)
FUNC 3280 20 0 std::error_category::default_error_condition(int)
FUNC 32a0 17 0 QBasicAtomicInteger<int>::deref()
FUNC 32c0 34 0 QtPrivate::RefCount::deref()
FUNC 3300 47 0 std::error_category::equivalent(std::error_code const &,int)
FUNC 3350 2f 0 std::error_category::equivalent(int,std::error_condition const &)
FUNC 3380 2f 0 std::basic_string<char,std::char_traits<char>,std::allocator<char> >::erase(unsigned int)
FUNC 33b0 87 0 std::basic_string<char,std::char_traits<char>,std::allocator<char> >::erase(unsigned int,unsigned int)
FUNC 3440 2f 0 std::basic_string<wchar_t,std::char_traits<wchar_t>,std::allocator<wchar_t> >::erase(unsigned int)
FUNC 3470 8d 0 std::basic_string<wchar_t,std::char_traits<wchar_t>,std::allocator<wchar_t> >::erase(unsigned int,unsigned int)
FUNC 3500 54 0 QString::fromUtf8(char const *,int)
FUNC 3560 100 0 QString::fromWCharArray(wchar_t const *,int)
FUNC 3660 a 0 std::generic_category()
FUNC 3670 2d 0 std::char_traits<char>::length(char const *)
FUNC 36a0 2e 0 std::char_traits<wchar_t>::length(wchar_t const *)
FUNC 36d0 17 0 QBasicAtomicInteger<int>::load()
FUNC 36f0 17 0 std::_Wrap_alloc<std::allocator<char> >::max_size()
FUNC 3710 17 0 std::_Wrap_alloc<std::allocator<wchar_t> >::max_size()
FUNC 3730 e 0 std::allocator<char>::max_size()
FUNC 3740 10 0 std::allocator<wchar_t>::max_size()
FUNC 3750 d 0 std::allocator_traits<std::allocator<char> >::max_size(std::allocator<char> const &)
FUNC 3760 d 0 std::allocator_traits<std::allocator<wchar_t> >::max_size(std::allocator<wchar_t> const &)
FUNC 3770 3e 0 std::basic_string<char,std::char_traits<char>,std::allocator<char> >::max_size()
FUNC 37b0 3e 0 std::basic_string<wchar_t,std::char_traits<wchar_t>,std::allocator<wchar_t> >::max_size()
FUNC 37f0 53 0 std::_Generic_error_category::message(int)
FUNC 3850 55 0 std::_Iostream_error_category::message(int)
FUNC 38b0 53 0 std::_System_error_category::message(int)
FUNC 3910 31 0 std::char_traits<char>::move(char *,char const *,unsigned int)
FUNC 3950 30 0 std::char_traits<wchar_t>::move(wchar_t *,wchar_t const *,unsigned int)
FUNC 3980 10 0 std::_Generic_error_category::name()
FUNC 3990 10 0 std::_Iostream_error_category::name()
FUNC 39a0 10 0 std::_System_error_category::name()
FUNC 39b0 17 0 QBasicAtomicInteger<int>::ref()
FUNC 39d0 32 0 QtPrivate::RefCount::ref()
FUNC 3a10 a 0 QTypedArrayData<unsigned short>::sharedNull()
FUNC 3a20 a 0 QArrayData::sharedNull()
FUNC 3a30 11 0 std::basic_string<char,std::char_traits<char>,std::allocator<char> >::size()
FUNC 3a50 a 0 std::system_category()
FUNC 3a60 1b 0 wmemcpy
FUNC 3a80 1c 0 wmemmove
FUNC 3aa0 ba 0 google_breakpad::ExceptionHandler::ExceptionHandler(std::basic_string<wchar_t,std::char_traits<wchar_t>,std::allocator<wchar_t> > const &,bool (*)(void *,_EXCEPTION_POINTERS *,MDRawAssertionInfo *),bool (*)(wchar_t const *,wchar_t const *,void *,_EXCEPTION_POINTERS *,MDRawAssertionInfo *,bool),void *,int)
FUNC 3b60 c0 0 google_breakpad::ExceptionHandler::ExceptionHandler(std::basic_string<wchar_t,std::char_traits<wchar_t>,std::allocator<wchar_t> > const &,bool (*)(void *,_EXCEPTION_POINTERS *,MDRawAssertionInfo *),bool (*)(wchar_t const *,wchar_t const *,void *,_EXCEPTION_POINTERS *,MDRawAssertionInfo *,bool),void *,int,_MINIDUMP_TYPE,wchar_t const *,google_breakpad::CustomClientInfo const *)
FUNC 3c20 c0 0 google_breakpad::ExceptionHandler::ExceptionHandler(std::basic_string<wchar_t,std::char_traits<wchar_t>,std::allocator<wchar_t> > const &,bool (*)(void *,_EXCEPTION_POINTERS *,MDRawAssertionInfo *),bool (*)(wchar_t const *,wchar_t const *,void *,_EXCEPTION_POINTERS *,MDRawAssertionInfo *,bool),void *,int,_MINIDUMP_TYPE,void *,google_breakpad::CustomClientInfo const *)
FUNC 3ce0 bc 0 google_breakpad::ExceptionHandler::ExceptionHandler(std::basic_string<wchar_t,std::char_traits<wchar_t>,std::allocator<wchar_t> > const &,bool (*)(void *,_EXCEPTION_POINTERS *,MDRawAssertionInfo *),bool (*)(wchar_t const *,wchar_t const *,void *,_EXCEPTION_POINTERS *,MDRawAssertionInfo *,bool),void *,int,google_breakpad::CrashGenerationClient *)
FUNC 3da0 2a7 0 google_breakpad::ExceptionHandler::~ExceptionHandler()
FUNC 4050 23 0 google_breakpad::ExceptionHandler::RequestUpload(unsigned long)
FUNC 4080 88 0 google_breakpad::ExceptionHandler::WriteMinidump()
FUNC 4110 51 0 google_breakpad::ExceptionHandler::WriteMinidumpForException(_EXCEPTION_POINTERS *)
FUNC 4170 8f 0 google_breakpad::ExceptionHandler::WriteMinidump(std::basic_string<wchar_t,std::char_traits<wchar_t>,std::allocator<wchar_t> > const &,bool (*)(wchar_t const *,wchar_t const *,void *,_EXCEPTION_POINTERS *,MDRawAssertionInfo *,bool),void *)
FUNC 4200 1d0 0 google_breakpad::ExceptionHandler::WriteMinidumpForChild(void *,unsigned long,std::basic_string<wchar_t,std::char_traits<wchar_t>,std::allocator<wchar_t> > const &,bool (*)(wchar_t const *,wchar_t const *,void *,_EXCEPTION_POINTERS *,MDRawAssertionInfo *,bool),void *)
FUNC 43d0 a3 0 google_breakpad::ExceptionHandler::RegisterAppMemory(void *,unsigned int)
FUNC 4480 87 0 google_breakpad::ExceptionHandler::UnregisterAppMemory(void *)
FUNC 4510 489 0 google_breakpad::ExceptionHandler::Initialize(std::basic_string<wchar_t,std::char_traits<wchar_t>,std::allocator<wchar_t> > const &,bool (*)(void *,_EXCEPTION_POINTERS *,MDRawAssertionInfo *),bool (*)(wchar_t const *,wchar_t const *,void *,_EXCEPTION_POINTERS *,MDRawAssertionInfo *,bool),void *,int,_MINIDUMP_TYPE,wchar_t const *,void *,google_breakpad::CrashGenerationClient *,google_breakpad::CustomClientInfo const *)
FUNC 49a0 88 0 google_breakpad::ExceptionHandler::ExceptionHandlerThreadMain(void *)
FUNC 4a30 156 0 google_breakpad::ExceptionHandler::HandleException(_EXCEPTION_POINTERS *)
FUNC 4b90 233 0 google_breakpad::ExceptionHandler::HandleInvalidParameter(wchar_t const *,wchar_t const *,wchar_t const *,unsigned int,unsigned int)
FUNC 4dd0 1c4 0 google_breakpad::ExceptionHandler::HandlePureVirtualCall()
FUNC 4fa0 d3 0 google_breakpad::ExceptionHandler::WriteMinidumpOnHandlerThread(_EXCEPTION_POINTERS *,MDRawAssertionInfo *)
FUNC 5080 cc 0 google_breakpad::ExceptionHandler::WriteMinidumpWithException(unsigned long,_EXCEPTION_POINTERS *,MDRawAssertionInfo *)
FUNC 5150 cc 0 google_breakpad::ExceptionHandler::MinidumpWriteDumpCallback(void *,_MINIDUMP_CALLBACK_INPUT * const,_MINIDUMP_CALLBACK_OUTPUT *)
FUNC 5220 32d 0 google_breakpad::ExceptionHandler::WriteMinidumpWithExceptionForProcess(unsigned long,_EXCEPTION_POINTERS *,MDRawAssertionInfo *,void *,bool)
FUNC 5550 144 0 google_breakpad::ExceptionHandler::UpdateNextID()
FUNC 56a0 2a 0 std::operator==<std::allocator<wchar_t>,std::allocator<wchar_t> >(std::_Wrap_alloc<std::allocator<wchar_t> > const &,std::_Wrap_alloc<std::allocator<wchar_t> > const &)
FUNC 56d0 7 0 std::operator==<wchar_t,wchar_t>(std::allocator<wchar_t> const &,std::allocator<wchar_t> const &)
FUNC 56e0 32 0 std::operator!=<std::allocator<wchar_t>,std::allocator<wchar_t> >(std::_Wrap_alloc<std::allocator<wchar_t> > const &,std::_Wrap_alloc<std::allocator<wchar_t> > const &)
FUNC 5720 3f 0 std::_Allocate<std::_List_node<google_breakpad::AppMemory,void *> >(unsigned int,std::_List_node<google_breakpad::AppMemory,void *> *)
FUNC 5760 e0 0 std::_List_buy<google_breakpad::AppMemory,std::allocator<google_breakpad::AppMemory> >::_Buynode<google_breakpad::AppMemory const &>(std::_List_node<google_breakpad::AppMemory,void *> *,std::_List_node<google_breakpad::AppMemory,void *> *,google_breakpad::AppMemory const &)
FUNC 5840 2d 0 std::_Find<std::_List_unchecked_iterator<std::_List_val<std::_List_simple_types<google_breakpad::AppMemory> > >,void *>(std::_List_unchecked_iterator<std::_List_val<std::_List_simple_types<google_breakpad::AppMemory> > >,std::_List_unchecked_iterator<std::_List_val<std::_List_simple_types<google_breakpad::AppMemory> > >,void * const &)
FUNC 5870 4d 0 std::_Find<std::_List_unchecked_iterator<std::_List_val<std::_List_simple_types<google_breakpad::AppMemory> > >,void *>(std::_List_unchecked_iterator<std::_List_val<std::_List_simple_types<google_breakpad::AppMemory> > >,std::_List_unchecked_iterator<std::_List_val<std::_List_simple_types<google_breakpad::AppMemory> > >,void * const &,std::integral_constant<bool,0>)
FUNC 58c0 7c 0 std::list<google_breakpad::AppMemory,std::allocator<google_breakpad::AppMemory> >::_Insert<google_breakpad::AppMemory const &>(std::_List_unchecked_const_iterator<std::_List_val<std::_List_simple_types<google_breakpad::AppMemory> >,std::_Iterator_base0>,google_breakpad::AppMemory const &)
FUNC 5940 11 0 std::_Rechecked<std::_List_val<std::_List_simple_types<google_breakpad::AppMemory> > >(std::_List_iterator<std::_List_val<std::_List_simple_types<google_breakpad::AppMemory> > > &,std::_List_unchecked_iterator<std::_List_val<std::_List_simple_types<google_breakpad::AppMemory> > >)
FUNC 5960 33 0 std::vector<google_breakpad::ExceptionHandler *,std::allocator<google_breakpad::ExceptionHandler *> >::_Umove<google_breakpad::ExceptionHandler * *>(google_breakpad::ExceptionHandler * *,google_breakpad::ExceptionHandler * *,google_breakpad::ExceptionHandler * *)
FUNC 59a0 14 0 std::_Unchecked<std::_List_val<std::_List_simple_types<google_breakpad::AppMemory> > >(std::_List_iterator<std::_List_val<std::_List_simple_types<google_breakpad::AppMemory> > >)
FUNC 59c0 45 0 std::_Uninit_move<google_breakpad::ExceptionHandler * *,google_breakpad::ExceptionHandler * *,std::_Wrap_alloc<std::allocator<google_breakpad::ExceptionHandler *> > >(google_breakpad::ExceptionHandler * *,google_breakpad::ExceptionHandler * *,google_breakpad::ExceptionHandler * *,std::_Wrap_alloc<std::allocator<google_breakpad::ExceptionHandler *> > &)
FUNC 5a10 47 0 std::_Uninitialized_move<google_breakpad::ExceptionHandler * *,google_breakpad::ExceptionHandler * *,std::_Wrap_alloc<std::allocator<google_breakpad::ExceptionHandler *> > >(google_breakpad::ExceptionHandler * *,google_breakpad::ExceptionHandler * *,google_breakpad::ExceptionHandler * *,std::_Wrap_alloc<std::allocator<google_breakpad::ExceptionHandler *> > &)
FUNC 5a60 7 0 std::_Val_type<google_breakpad::ExceptionHandler * *>(google_breakpad::ExceptionHandler * *)
FUNC 5a70 49 0 std::basic_string<wchar_t,std::char_traits<wchar_t>,std::allocator<wchar_t> >::assign<std::_String_iterator<std::_String_val<std::_Simple_types<wchar_t> > > >(std::_String_iterator<std::_String_val<std::_Simple_types<wchar_t> > >,std::_String_iterator<std::_String_val<std::_Simple_types<wchar_t> > >)
FUNC 5ac0 2a 0 std::_Wrap_alloc<std::allocator<google_breakpad::ExceptionHandler *> >::construct<google_breakpad::ExceptionHandler *,google_breakpad::ExceptionHandler * &>(google_breakpad::ExceptionHandler * *,google_breakpad::ExceptionHandler * &)
FUNC 5af0 2a 0 std::_Wrap_alloc<std::allocator<google_breakpad::ExceptionHandler *> >::construct<google_breakpad::ExceptionHandler *,google_breakpad::ExceptionHandler * const &>(google_breakpad::ExceptionHandler * *,google_breakpad::ExceptionHandler * const &)
FUNC 5b20 2a 0 std::_Wrap_alloc<std::allocator<std::_List_node<google_breakpad::AppMemory,void *> > >::construct<google_breakpad::AppMemory,google_breakpad::AppMemory const &>(google_breakpad::AppMemory *,google_breakpad::AppMemory const &)
FUNC 5b50 98 0 std::allocator<std::_List_node<google_breakpad::AppMemory,void *> >::construct<google_breakpad::AppMemory,google_breakpad::AppMemory const &>(google_breakpad::AppMemory *,google_breakpad::AppMemory const &)
FUNC 5bf0 1e 0 std::allocator_traits<std::allocator<std::_List_node<google_breakpad::AppMemory,void *> > >::construct<google_breakpad::AppMemory,google_breakpad::AppMemory const &>(std::allocator<std::_List_node<google_breakpad::AppMemory,void *> > &,google_breakpad::AppMemory *,google_breakpad::AppMemory const &)
FUNC 5c10 59 0 std::find<std::_List_iterator<std::_List_val<std::_List_simple_types<google_breakpad::AppMemory> > >,void *>(std::_List_iterator<std::_List_val<std::_List_simple_types<google_breakpad::AppMemory> > >,std::_List_iterator<std::_List_val<std::_List_simple_types<google_breakpad::AppMemory> > >,void * const &)
FUNC 5c70 8 0 std::forward<google_breakpad::AppMemory const &>(google_breakpad::AppMemory const &)
FUNC 5c80 49 0 std::max<unsigned __int64>(unsigned __int64 const &,unsigned __int64 const &)
FUNC 5cd0 49 0 std::min<unsigned __int64>(unsigned __int64 const &,unsigned __int64 const &)
FUNC 5d20 25 0 std::_List_alloc<0,std::_List_base_types<google_breakpad::AppMemory,std::allocator<google_breakpad::AppMemory> > >::_List_alloc<0,std::_List_base_types<google_breakpad::AppMemory,std::allocator<google_breakpad::AppMemory> > >(std::allocator<google_breakpad::AppMemory> const &)
FUNC 5d50 1c 0 std::_List_buy<google_breakpad::AppMemory,std::allocator<google_breakpad::AppMemory> >::_List_buy<google_breakpad::AppMemory,std::allocator<google_breakpad::AppMemory> >(std::allocator<google_breakpad::AppMemory> const &)
FUNC 5d70 16 0 std::_List_const_iterator<std::_List_val<std::_List_simple_types<google_breakpad::AppMemory> > >::_List_const_iterator<std::_List_val<std::_List_simple_types<google_breakpad::AppMemory> > >()
FUNC 5d90 20 0 std::_List_iterator<std::_List_val<std::_List_simple_types<google_breakpad::AppMemory> > >::_List_iterator<std::_List_val<std::_List_simple_types<google_breakpad::AppMemory> > >(std::_List_node<google_breakpad::AppMemory,void *> *,std::_List_val<std::_List_simple_types<google_breakpad::AppMemory> > const *)
FUNC 5db0 24 0 std::_List_unchecked_const_iterator<std::_List_val<std::_List_simple_types<google_breakpad::AppMemory> >,std::_Iterator_base0>::_List_unchecked_const_iterator<std::_List_val<std::_List_simple_types<google_breakpad::AppMemory> >,std::_Iterator_base0>(std::_List_node<google_breakpad::AppMemory,void *> *,std::_List_val<std::_List_simple_types<google_breakpad::AppMemory> > const *)
FUNC 5de0 17 0 std::_List_unchecked_const_iterator<std::_List_val<std::_List_simple_types<google_breakpad::AppMemory> >,std::_Iterator_base0>::_List_unchecked_const_iterator<std::_List_val<std::_List_simple_types<google_breakpad::AppMemory> >,std::_Iterator_base0>()
FUNC 5e00 20 0 std::_List_unchecked_iterator<std::_List_val<std::_List_simple_types<google_breakpad::AppMemory> > >::_List_unchecked_iterator<std::_List_val<std::_List_simple_types<google_breakpad::AppMemory> > >(std::_List_node<google_breakpad::AppMemory,void *> *,std::_List_val<std::_List_simple_types<google_breakpad::AppMemory> > const *)
FUNC 5e20 21 0 std::_List_val<std::_List_simple_types<google_breakpad::AppMemory> >::_List_val<std::_List_simple_types<google_breakpad::AppMemory> >()
FUNC 5e50 24 0 std::_String_const_iterator<std::_String_val<std::_Simple_types<wchar_t> > >::_String_const_iterator<std::_String_val<std::_Simple_types<wchar_t> > >(wchar_t const *,std::_Container_base0 const *)
FUNC 5e80 20 0 std::_String_iterator<std::_String_val<std::_Simple_types<wchar_t> > >::_String_iterator<std::_String_val<std::_Simple_types<wchar_t> > >(wchar_t *,std::_Container_base0 const *)
FUNC 5ea0 2d 0 std::basic_string<wchar_t,std::char_traits<wchar_t>,std::allocator<wchar_t> >::basic_string<wchar_t,std::char_traits<wchar_t>,std::allocator<wchar_t> >()
FUNC 5ed0 21 0 std::list<google_breakpad::AppMemory,std::allocator<google_breakpad::AppMemory> >::list<google_breakpad::AppMemory,std::allocator<google_breakpad::AppMemory> >()
FUNC 5f00 83 0 google_breakpad::AutoExceptionHandler::AutoExceptionHandler()
FUNC 5f90 21 0 google_breakpad::MinidumpCallbackContext::MinidumpCallbackContext()
FUNC 5fc0 19 0 std::_List_alloc<0,std::_List_base_types<google_breakpad::AppMemory,std::allocator<google_breakpad::AppMemory> > >::~_List_alloc<0,std::_List_base_types<google_breakpad::AppMemory,std::allocator<google_breakpad::AppMemory> > >()
FUNC 5fe0 13 0 std::_List_buy<google_breakpad::AppMemory,std::allocator<google_breakpad::AppMemory> >::~_List_buy<google_breakpad::AppMemory,std::allocator<google_breakpad::AppMemory> >()
FUNC 6000 1b 0 std::list<google_breakpad::AppMemory,std::allocator<google_breakpad::AppMemory> >::~list<google_breakpad::AppMemory,std::allocator<google_breakpad::AppMemory> >()
FUNC 6020 37 0 google_breakpad::scoped_ptr<google_breakpad::CrashGenerationClient>::~scoped_ptr<google_breakpad::CrashGenerationClient>()
FUNC 6060 4a 0 google_breakpad::AutoExceptionHandler::~AutoExceptionHandler()
FUNC 60b0 a9 0 std::basic_string<wchar_t,std::char_traits<wchar_t>,std::allocator<wchar_t> >::operator=(std::basic_string<wchar_t,std::char_traits<wchar_t>,std::allocator<wchar_t> > &&)
FUNC 6160 74 0 std::basic_string<wchar_t,std::char_traits<wchar_t>,std::allocator<wchar_t> >::operator=(std::basic_string<wchar_t,std::char_traits<wchar_t>,std::allocator<wchar_t> > const &)
FUNC 61e0 19 0 std::basic_string<wchar_t,std::char_traits<wchar_t>,std::allocator<wchar_t> >::operator=(wchar_t const *)
FUNC 6200 2e 0 std::_List_unchecked_const_iterator<std::_List_val<std::_List_simple_types<google_breakpad::AppMemory> >,std::_Iterator_base0>::operator==(std::_List_unchecked_const_iterator<std::_List_val<std::_List_simple_types<google_breakpad::AppMemory> >,std::_Iterator_base0> const &)
FUNC 6230 3a 0 std::_String_const_iterator<std::_String_val<std::_Simple_types<wchar_t> > >::operator==(std::_String_const_iterator<std::_String_val<std::_Simple_types<wchar_t> > > const &)
FUNC 6270 47 0 google_breakpad::AppMemory::operator==(void const *)
FUNC 62c0 35 0 std::_List_const_iterator<std::_List_val<std::_List_simple_types<google_breakpad::AppMemory> > >::operator!=(std::_List_const_iterator<std::_List_val<std::_List_simple_types<google_breakpad::AppMemory> > > const &)
FUNC 6300 35 0 std::_Vector_const_iterator<std::_Vector_val<std::_Simple_types<google_breakpad::ExceptionHandler *> > >::operator!=(std::_Vector_const_iterator<std::_Vector_val<std::_Simple_types<google_breakpad::ExceptionHandler *> > > const &)
FUNC 6340 1c 0 std::_List_unchecked_const_iterator<std::_List_val<std::_List_simple_types<google_breakpad::AppMemory> >,std::_Iterator_base0>::operator->()
FUNC 6360 19 0 std::_List_unchecked_const_iterator<std::_List_val<std::_List_simple_types<google_breakpad::AppMemory> >,std::_Iterator_base0>::operator*()
FUNC 6380 13 0 std::_List_iterator<std::_List_val<std::_List_simple_types<google_breakpad::AppMemory> > >::operator*()
FUNC 63a0 13 0 std::_String_iterator<std::_String_val<std::_Simple_types<wchar_t> > >::operator*()
FUNC 63c0 2a 0 std::_List_const_iterator<std::_List_val<std::_List_simple_types<google_breakpad::AppMemory> > >::operator++(int)
FUNC 63f0 23 0 std::_List_const_iterator<std::_List_val<std::_List_simple_types<google_breakpad::AppMemory> > >::operator++()
FUNC 6420 16 0 std::_List_unchecked_iterator<std::_List_val<std::_List_simple_types<google_breakpad::AppMemory> > >::operator++()
FUNC 6440 1b 0 std::_Vector_const_iterator<std::_Vector_val<std::_Simple_types<google_breakpad::ExceptionHandler *> > >::operator++()
FUNC 6460 16 0 std::_Vector_iterator<std::_Vector_val<std::_Simple_types<google_breakpad::ExceptionHandler *> > >::operator++()
FUNC 6480 25 0 std::_String_const_iterator<std::_String_val<std::_Simple_types<wchar_t> > >::operator-(std::_String_const_iterator<std::_String_val<std::_Simple_types<wchar_t> > > const &)
FUNC 64b0 23 0 std::_String_iterator<std::_String_val<std::_Simple_types<wchar_t> > >::operator-(std::_String_const_iterator<std::_String_val<std::_Simple_types<wchar_t> > > const &)
FUNC 64e0 2d 0 std::_Vector_iterator<std::_Vector_val<std::_Simple_types<google_breakpad::ExceptionHandler *> > >::operator-(int)
FUNC 6510 20 0 std::_Vector_const_iterator<std::_Vector_val<std::_Simple_types<google_breakpad::ExceptionHandler *> > >::operator+=(int)
FUNC 6530 1c 0 std::_Vector_iterator<std::_Vector_val<std::_Simple_types<google_breakpad::ExceptionHandler *> > >::operator+=(int)
FUNC 6550 1b 0 std::_Vector_iterator<std::_Vector_val<std::_Simple_types<google_breakpad::ExceptionHandler *> > >::operator-=(int)
FUNC 6570 2c 0 std::vector<google_breakpad::ExceptionHandler *,std::allocator<google_breakpad::ExceptionHandler *> >::`scalar deleting destructor'(unsigned int)
FUNC 65a0 2c 0 google_breakpad::CrashGenerationClient::`scalar deleting destructor'(unsigned int)
FUNC 65d0 2f 0 google_breakpad::ExceptionHandler::IsOutOfProcess()
FUNC 6600 7c 0 std::basic_string<wchar_t,std::char_traits<wchar_t>,std::allocator<wchar_t> >::_Assign_rv(std::basic_string<wchar_t,std::char_traits<wchar_t>,std::allocator<wchar_t> > &&)
FUNC 6680 17 0 std::_List_alloc<0,std::_List_base_types<google_breakpad::AppMemory,std::allocator<google_breakpad::AppMemory> > >::_Buyheadnode()
FUNC 66a0 11f 0 std::_List_alloc<0,std::_List_base_types<google_breakpad::AppMemory,std::allocator<google_breakpad::AppMemory> > >::_Buynode0(std::_List_node<google_breakpad::AppMemory,void *> *,std::_List_node<google_breakpad::AppMemory,void *> *)
FUNC 67c0 d 0 std::_String_const_iterator<std::_String_val<std::_Simple_types<wchar_t> > >::_Compat(std::_String_const_iterator<std::_String_val<std::_Simple_types<wchar_t> > > const &)
FUNC 67d0 7a 0 std::_List_alloc<0,std::_List_base_types<google_breakpad::AppMemory,std::allocator<google_breakpad::AppMemory> > >::_Freeheadnode(std::_List_node<google_breakpad::AppMemory,void *> *)
FUNC 6850 a3 0 std::_List_buy<google_breakpad::AppMemory,std::allocator<google_breakpad::AppMemory> >::_Freenode(std::_List_node<google_breakpad::AppMemory,void *> *)
FUNC 6900 d 0 std::_Iterator_base0::_Getcont()
FUNC 6910 3d 0 std::list<google_breakpad::AppMemory,std::allocator<google_breakpad::AppMemory> >::_Incsize(unsigned int)
FUNC 6950 20 0 std::list<google_breakpad::AppMemory,std::allocator<google_breakpad::AppMemory> >::_Make_iter(std::_List_const_iterator<std::_List_val<std::_List_simple_types<google_breakpad::AppMemory> > >)
FUNC 6970 20 0 std::vector<google_breakpad::ExceptionHandler *,std::allocator<google_breakpad::ExceptionHandler *> >::_Make_iter(std::_Vector_const_iterator<std::_Vector_val<std::_Simple_types<google_breakpad::ExceptionHandler *> > >)
FUNC 6990 b 0 std::_List_val<std::_List_simple_types<google_breakpad::AppMemory> >::_Myval(std::_List_node<google_breakpad::AppMemory,void *> *)
FUNC 69a0 d 0 std::vector<google_breakpad::ExceptionHandler *,std::allocator<google_breakpad::ExceptionHandler *> >::_Orphan_range(google_breakpad::ExceptionHandler * *,google_breakpad::ExceptionHandler * *)
FUNC 69b0 29 0 std::basic_string<wchar_t,std::char_traits<wchar_t>,std::allocator<wchar_t> >::_Pdif(std::_String_const_iterator<std::_String_val<std::_Simple_types<wchar_t> > >,std::_String_const_iterator<std::_String_val<std::_Simple_types<wchar_t> > >)
FUNC 69e0 b 0 std::_List_val<std::_List_simple_types<google_breakpad::AppMemory> >::_Prevnode(std::_List_node<google_breakpad::AppMemory,void *> *)
FUNC 69f0 138 0 std::vector<google_breakpad::ExceptionHandler *,std::allocator<google_breakpad::ExceptionHandler *> >::_Reallocate(unsigned int)
FUNC 6b30 18 0 std::_List_iterator<std::_List_val<std::_List_simple_types<google_breakpad::AppMemory> > >::_Rechecked(std::_List_unchecked_iterator<std::_List_val<std::_List_simple_types<google_breakpad::AppMemory> > >)
FUNC 6b50 13 0 std::list<google_breakpad::AppMemory,std::allocator<google_breakpad::AppMemory> >::_Tidy()
FUNC 6b70 27 0 std::_List_iterator<std::_List_val<std::_List_simple_types<google_breakpad::AppMemory> > >::_Unchecked()
FUNC 6ba0 22 0 std::vector<google_breakpad::ExceptionHandler *,std::allocator<google_breakpad::ExceptionHandler *> >::begin()
FUNC 6bd0 80 0 std::list<google_breakpad::AppMemory,std::allocator<google_breakpad::AppMemory> >::_Unlinknode(std::_List_const_iterator<std::_List_val<std::_List_simple_types<google_breakpad::AppMemory> > >)
FUNC 6c50 16 0 std::vector<google_breakpad::ExceptionHandler *,std::allocator<google_breakpad::ExceptionHandler *> >::_Xran()
FUNC 6c70 19 0 std::_Wrap_alloc<std::allocator<std::_List_node<google_breakpad::AppMemory,void *> > >::allocate(unsigned int)
FUNC 6c90 1b 0 std::allocator<std::_List_node<google_breakpad::AppMemory,void *> >::allocate(unsigned int)
FUNC 6cb0 21 0 std::basic_string<wchar_t,std::char_traits<wchar_t>,std::allocator<wchar_t> >::assign(std::basic_string<wchar_t,std::char_traits<wchar_t>,std::allocator<wchar_t> > const &)
FUNC 6ce0 2d 0 std::vector<google_breakpad::ExceptionHandler *,std::allocator<google_breakpad::ExceptionHandler *> >::at(unsigned int)
FUNC 6d10 2d 0 std::vector<google_breakpad::ExceptionHandler *,std::allocator<google_breakpad::ExceptionHandler *> >::back()
FUNC 6d40 25 0 std::basic_string<wchar_t,std::char_traits<wchar_t>,std::allocator<wchar_t> >::begin()
FUNC 6d70 2d 0 std::list<google_breakpad::AppMemory,std::allocator<google_breakpad::AppMemory> >::begin()
FUNC 6da0 13 0 std::basic_string<wchar_t,std::char_traits<wchar_t>,std::allocator<wchar_t> >::c_str()
FUNC 6dc0 85 0 std::list<google_breakpad::AppMemory,std::allocator<google_breakpad::AppMemory> >::clear()
FUNC 6e50 19 0 std::allocator<google_breakpad::ExceptionHandler *>::deallocate(google_breakpad::ExceptionHandler * *,unsigned int)
FUNC 6e70 2e 0 std::basic_string<wchar_t,std::char_traits<wchar_t>,std::allocator<wchar_t> >::end()
FUNC 6ea0 22 0 std::list<google_breakpad::AppMemory,std::allocator<google_breakpad::AppMemory> >::end()
FUNC 6ed0 23 0 std::vector<google_breakpad::ExceptionHandler *,std::allocator<google_breakpad::ExceptionHandler *> >::end()
FUNC 6f00 4a 0 std::list<google_breakpad::AppMemory,std::allocator<google_breakpad::AppMemory> >::erase(std::_List_const_iterator<std::_List_val<std::_List_simple_types<google_breakpad::AppMemory> > >)
FUNC 6f50 62 0 std::vector<google_breakpad::ExceptionHandler *,std::allocator<google_breakpad::ExceptionHandler *> >::erase(std::_Vector_const_iterator<std::_Vector_val<std::_Simple_types<google_breakpad::ExceptionHandler *> > >)
FUNC 6fc0 20 0 std::list<google_breakpad::AppMemory,std::allocator<google_breakpad::AppMemory> >::front()
FUNC 6fe0 14 0 google_breakpad::ExceptionHandler::get_handle_debug_exceptions()
FUNC 7000 17 0 std::_Wrap_alloc<std::allocator<std::_List_node<google_breakpad::AppMemory,void *> > >::max_size()
FUNC 7020 10 0 std::allocator<google_breakpad::ExceptionHandler *>::max_size()
FUNC 7030 10 0 std::allocator<std::_List_node<google_breakpad::AppMemory,void *> >::max_size()
FUNC 7040 d 0 std::allocator_traits<std::allocator<std::_List_node<google_breakpad::AppMemory,void *> > >::max_size(std::allocator<std::_List_node<google_breakpad::AppMemory,void *> > const &)
FUNC 7050 20 0 std::list<google_breakpad::AppMemory,std::allocator<google_breakpad::AppMemory> >::max_size()
FUNC 7070 11 0 std::pointer_traits<google_breakpad::AppMemory const *>::pointer_to(google_breakpad::AppMemory const &)
FUNC 7090 39 0 std::vector<google_breakpad::ExceptionHandler *,std::allocator<google_breakpad::ExceptionHandler *> >::pop_back()
FUNC 70d0 30 0 std::list<google_breakpad::AppMemory,std::allocator<google_breakpad::AppMemory> >::push_back(google_breakpad::AppMemory const &)
FUNC 7100 21 0 google_breakpad::scoped_ptr<google_breakpad::CrashGenerationClient>::release()
FUNC 7130 31c 0 std::basic_string<wchar_t,std::char_traits<wchar_t>,std::allocator<wchar_t> >::replace(unsigned int,unsigned int,std::basic_string<wchar_t,std::char_traits<wchar_t>,std::allocator<wchar_t> > const &,unsigned int,unsigned int)
FUNC 7450 184 0 std::basic_string<wchar_t,std::char_traits<wchar_t>,std::allocator<wchar_t> >::replace(unsigned int,unsigned int,wchar_t const *,unsigned int)
FUNC 75e0 b3 0 std::basic_string<wchar_t,std::char_traits<wchar_t>,std::allocator<wchar_t> >::replace(std::_String_const_iterator<std::_String_val<std::_Simple_types<wchar_t> > >,std::_String_const_iterator<std::_String_val<std::_Simple_types<wchar_t> > >,std::_String_iterator<std::_String_val<std::_Simple_types<wchar_t> > >,std::_String_iterator<std::_String_val<std::_Simple_types<wchar_t> > >)
FUNC 76a0 4b 0 google_breakpad::scoped_ptr<google_breakpad::CrashGenerationClient>::reset(google_breakpad::CrashGenerationClient *)
FUNC 76f0 35 0 google_breakpad::ExceptionHandler::set_dump_path(std::basic_string<wchar_t,std::char_traits<wchar_t>,std::allocator<wchar_t> > const &)
FUNC 7730 e2 0 google_breakpad::WindowsStringUtils::safe_mbstowcs(std::basic_string<char,std::char_traits<char>,std::allocator<char> > const &,std::basic_string<wchar_t,std::char_traits<wchar_t>,std::allocator<wchar_t> > *)
FUNC 7820 e2 0 google_breakpad::WindowsStringUtils::safe_wcstombs(std::basic_string<wchar_t,std::char_traits<wchar_t>,std::allocator<wchar_t> > const &,std::basic_string<char,std::char_traits<char>,std::allocator<char> > *)
FUNC 7910 b5 0 google_breakpad::WindowsStringUtils::GetBaseName(std::basic_string<wchar_t,std::char_traits<wchar_t>,std::allocator<wchar_t> > const &)
FUNC 79d0 30 0 std::_Fill_n<wchar_t *,unsigned int,wchar_t>(wchar_t *,unsigned int,wchar_t const &)
FUNC 7a00 17 0 std::_Uninit_def_fill_n<char,unsigned int,char>(char *,unsigned int,std::_Wrap_alloc<std::allocator<char> > &,char *,std::_Scalar_ptr_iterator_tag)
FUNC 7a20 22 0 std::_Uninit_def_fill_n<wchar_t,unsigned int,wchar_t>(wchar_t *,unsigned int,std::_Wrap_alloc<std::allocator<wchar_t> > &,wchar_t *,std::_Scalar_ptr_iterator_tag)
FUNC 7a50 41 0 std::_Uninitialized_default_fill_n<char *,unsigned int,std::_Wrap_alloc<std::allocator<char> > >(char *,unsigned int,std::_Wrap_alloc<std::allocator<char> > &)
FUNC 7aa0 41 0 std::_Uninitialized_default_fill_n<wchar_t *,unsigned int,std::_Wrap_alloc<std::allocator<wchar_t> > >(wchar_t *,unsigned int,std::_Wrap_alloc<std::allocator<wchar_t> > &)
FUNC 7af0 48 0 std::basic_string<wchar_t,std::char_traits<wchar_t>,std::allocator<wchar_t> >::basic_string<wchar_t,std::char_traits<wchar_t>,std::allocator<wchar_t> >(std::basic_string<wchar_t,std::char_traits<wchar_t>,std::allocator<wchar_t> > &&)
FUNC 7b40 53 0 std::basic_string<wchar_t,std::char_traits<wchar_t>,std::allocator<wchar_t> >::basic_string<wchar_t,std::char_traits<wchar_t>,std::allocator<wchar_t> >(std::basic_string<wchar_t,std::char_traits<wchar_t>,std::allocator<wchar_t> > const &)
FUNC 7ba0 cb 0 std::vector<char,std::allocator<char> >::vector<char,std::allocator<char> >(unsigned int)
FUNC 7c70 ce 0 std::vector<wchar_t,std::allocator<wchar_t> >::vector<wchar_t,std::allocator<wchar_t> >(unsigned int)
FUNC 7d40 13 0 std::vector<char,std::allocator<char> >::~vector<char,std::allocator<char> >()
FUNC 7d60 13 0 std::vector<wchar_t,std::allocator<wchar_t> >::~vector<wchar_t,std::allocator<wchar_t> >()
FUNC 7d80 19 0 std::basic_string<char,std::char_traits<char>,std::allocator<char> >::operator=(char const *)
FUNC 7da0 15 0 std::vector<char,std::allocator<char> >::operator[](unsigned int)
FUNC 7dc0 18 0 std::vector<wchar_t,std::allocator<wchar_t> >::operator[](unsigned int)
FUNC 7de0 86 0 std::vector<char,std::allocator<char> >::_Buy(unsigned int)
FUNC 7e70 89 0 std::vector<wchar_t,std::allocator<wchar_t> >::_Buy(unsigned int)
FUNC 7f00 20 0 std::_Fill_n(char *,unsigned int,char)
FUNC 7f20 75 0 std::vector<char,std::allocator<char> >::_Tidy()
FUNC 7fa0 77 0 std::vector<wchar_t,std::allocator<wchar_t> >::_Tidy()
FUNC 8020 16 0 std::vector<wchar_t,std::allocator<wchar_t> >::_Xlen()
FUNC 8040 13 0 std::basic_string<char,std::char_traits<char>,std::allocator<char> >::c_str()
FUNC 8060 34 0 std::char_traits<wchar_t>::find(wchar_t const *,unsigned int,wchar_t const &)
FUNC 80a0 2a 0 std::basic_string<wchar_t,std::char_traits<wchar_t>,std::allocator<wchar_t> >::find_last_of(wchar_t const *,unsigned int)
FUNC 80d0 a0 0 std::basic_string<wchar_t,std::char_traits<wchar_t>,std::allocator<wchar_t> >::find_last_of(wchar_t const *,unsigned int,unsigned int)
FUNC 8170 20 0 std::vector<char,std::allocator<char> >::max_size()
FUNC 8190 20 0 std::vector<wchar_t,std::allocator<wchar_t> >::max_size()
FUNC 81b0 36 0 wmemchr
FUNC 81f0 110 0 google_breakpad::GUIDString::GUIDToWString(_GUID *)
FUNC 8300 110 0 google_breakpad::GUIDString::GUIDToSymbolServerWString(_GUID *)
FUNC 8410 a5 0 google_breakpad::CrashGenerationClient::CrashGenerationClient(wchar_t const *,_MINIDUMP_TYPE,google_breakpad::CustomClientInfo const *)
FUNC 84c0 a0 0 google_breakpad::CrashGenerationClient::CrashGenerationClient(void *,_MINIDUMP_TYPE,google_breakpad::CustomClientInfo const *)
FUNC 8560 55 0 google_breakpad::CrashGenerationClient::~CrashGenerationClient()
FUNC 85c0 51 0 google_breakpad::CrashGenerationClient::Register()
FUNC 8620 96 0 google_breakpad::CrashGenerationClient::RequestUpload(unsigned long)
FUNC 86c0 73 0 google_breakpad::CrashGenerationClient::RequestDump(_EXCEPTION_POINTERS *,MDRawAssertionInfo *)
FUNC 8740 1b 0 google_breakpad::CrashGenerationClient::RequestDump(_EXCEPTION_POINTERS *)
FUNC 8760 1b 0 google_breakpad::CrashGenerationClient::RequestDump(MDRawAssertionInfo *)
FUNC 8780 b3 0 google_breakpad::CrashGenerationClient::DuplicatePipeToClientProcess(wchar_t const *,void *)
FUNC 8840 66 0 google_breakpad::CrashGenerationClient::ConnectToServer()
FUNC 88b0 ef 0 google_breakpad::CrashGenerationClient::RegisterClient(void *)
FUNC 89a0 4e 0 google_breakpad::CrashGenerationClient::ValidateResponse(google_breakpad::ProtocolMessage const &)
FUNC 89f0 29 0 google_breakpad::CrashGenerationClient::IsRegistered()
FUNC 8a20 98 0 google_breakpad::CrashGenerationClient::ConnectToPipe(wchar_t const *,unsigned long,unsigned long)
FUNC 8ac0 78 0 google_breakpad::CrashGenerationClient::SignalCrashEventAndWait()
FUNC 8b40 71 0 google_breakpad::ProtocolMessage::ProtocolMessage(google_breakpad::MessageTag,unsigned long,_MINIDUMP_TYPE,unsigned long *,_EXCEPTION_POINTERS * *,MDRawAssertionInfo *,google_breakpad::CustomClientInfo const &,void *,void *,void *)
FUNC 8bc0 74 0 google_breakpad::ProtocolMessage::ProtocolMessage()
FUNC 8c40 1c 0 main
FUNC 8c60 77 0 SilentInstaller::SilentInstaller()
FUNC 8ce0 74 0 SilentInstaller::~SilentInstaller()
FUNC 8d60 99 0 SilentInstaller::start()
FUNC 8e00 291 0 SilentInstaller::initialize()
FUNC 90a0 10b 0 SilentInstaller::shareLocalState()
FUNC 91b0 1e 0 std::chrono::duration<__int64,std::ratio<1,1> >::duration<__int64,std::ratio<1,1> ><int,void>(int const &)
FUNC 91d0 31 0 std::chrono::duration<__int64,std::ratio<1,1000000000> >::duration<__int64,std::ratio<1,1000000000> ><__int64,std::ratio<1,1>,void>(std::chrono::duration<__int64,std::ratio<1,1> > const &)
FUNC 9210 31 0 std::chrono::duration<__int64,std::ratio<1,1000000000> >::duration<__int64,std::ratio<1,1000000000> ><__int64,std::ratio<1,10000000>,void>(std::chrono::duration<__int64,std::ratio<1,10000000> > const &)
FUNC 9250 20 0 std::chrono::duration<__int64,std::ratio<1,10000000> >::duration<__int64,std::ratio<1,10000000> ><__int64,void>(__int64 const &)
FUNC 9270 6f 0 std::chrono::operator<<__int64,std::ratio<1,1>,__int64,std::ratio<1,1> >(std::chrono::duration<__int64,std::ratio<1,1> > const &,std::chrono::duration<__int64,std::ratio<1,1> > const &)
FUNC 92e0 32 0 std::chrono::operator<=<__int64,std::ratio<1,1>,__int64,std::ratio<1,1> >(std::chrono::duration<__int64,std::ratio<1,1> > const &,std::chrono::duration<__int64,std::ratio<1,1> > const &)
FUNC 9320 f1 0 std::_To_xtime<__int64,std::ratio<1,1> >(std::chrono::duration<__int64,std::ratio<1,1> > const &)
FUNC 9420 bd 0 std::chrono::duration_cast<std::chrono::duration<__int64,std::ratio<1,1> >,__int64,std::ratio<1,1000000000> >(std::chrono::duration<__int64,std::ratio<1,1000000000> > const &)
FUNC 94e0 bd 0 std::chrono::duration_cast<std::chrono::duration<__int64,std::ratio<1,1000000000> >,__int64,std::ratio<1,1> >(std::chrono::duration<__int64,std::ratio<1,1> > const &)
FUNC 95a0 b7 0 std::chrono::duration_cast<std::chrono::duration<__int64,std::ratio<1,1000000000> >,__int64,std::ratio<1,10000000> >(std::chrono::duration<__int64,std::ratio<1,10000000> > const &)
FUNC 9660 69 0 std::this_thread::sleep_for<__int64,std::ratio<1,1> >(std::chrono::duration<__int64,std::ratio<1,1> > const &)
FUNC 96d0 20 0 std::chrono::time_point<std::chrono::system_clock,std::chrono::duration<__int64,std::ratio<1,10000000> > >::time_point<std::chrono::system_clock,std::chrono::duration<__int64,std::ratio<1,10000000> > >(std::chrono::duration<__int64,std::ratio<1,10000000> > const &)
FUNC 96f0 45 0 QString::QString(char const *)
FUNC 9740 48 0 QString::operator!=(char const *)
FUNC 9790 28 0 std::chrono::duration<__int64,std::ratio<1,1000000000> >::operator+=(std::chrono::duration<__int64,std::ratio<1,1000000000> > const &)
FUNC 97c0 28 0 std::chrono::duration<__int64,std::ratio<1,1000000000> >::operator-=(std::chrono::duration<__int64,std::ratio<1,1000000000> > const &)
FUNC 97f0 13 0 QTypedArrayData<unsigned short>::data()
FUNC 9810 1b 0 QArrayData::data()
FUNC 9830 2e 0 std::chrono::system_clock::now()
FUNC 9860 13 0 QString::size()
FUNC 9880 62 0 std::this_thread::sleep_until(xtime const *)
FUNC 98f0 20 0 std::chrono::time_point<std::chrono::system_clock,std::chrono::duration<__int64,std::ratio<1,10000000> > >::time_since_epoch()
FUNC 9910 24 0 std::chrono::duration<__int64,std::ratio<1,1> >::zero()
FUNC 9940 9 0 std::chrono::duration_values<__int64>::zero()
FUNC 9950 2b 0 StaticQGenericEnginePluginPluginInstance::StaticQGenericEnginePluginPluginInstance()
FUNC 9980 2b 0 StaticQNativeWifiEnginePluginPluginInstance::StaticQNativeWifiEnginePluginPluginInstance()
FUNC 99b0 86 0 Logging::getInstance()
FUNC 9a40 93 0 Logging::debug(QString)
FUNC 9ae0 93 0 Logging::info(QString)
FUNC 9b80 93 0 Logging::error(QString)
FUNC 9c20 31 0 Logging::getAppName()
FUNC 9c60 253 0 Logging::getRecentLogs(QString)
FUNC 9ec0 154 0 Logging::setPath(QDir const *,QString)
FUNC a020 65 0 Logging::Logging()
FUNC a090 76 0 Logging::~Logging()
FUNC a110 2d3 0 Logging::log(QString,QString)
FUNC a3f0 12f 0 Logging::readFile(QString *,QFile *,int)
FUNC a520 1b8 0 Logging::readLastCharacters(QFile *,int *)
FUNC a6e0 22b 0 Logging::getLogPath(QDir const *,int,bool,QString)
FUNC a910 2da 0 std::operator<<<char,std::char_traits<char>,std::allocator<char> >(std::basic_ostream<char,std::char_traits<char> > &,std::basic_string<char,std::char_traits<char>,std::allocator<char> > const &)
FUNC abf0 41 0 std::_Allocate<QDir const *>(unsigned int,QDir const * *)
FUNC ac40 34 0 std::_Destroy_range<std::_Wrap_alloc<std::allocator<QDir const *> > >(QDir const * *,QDir const * *,std::_Wrap_alloc<std::allocator<QDir const *> > &)
FUNC ac80 33 0 std::endl<char,std::char_traits<char> >(std::basic_ostream<char,std::char_traits<char> > &)
FUNC acc0 1d 0 QFlags<QIODevice::OpenModeFlag>::QFlags<QIODevice::OpenModeFlag>(QFlag)
FUNC ace0 3f 0 std::basic_string<char,std::char_traits<char>,std::allocator<char> >::basic_string<char,std::char_traits<char>,std::allocator<char> >(char const *,unsigned int)
FUNC ad20 21 0 std::vector<QDir const *,std::allocator<QDir const *> >::vector<QDir const *,std::allocator<QDir const *> >()
FUNC ad50 41 0 QString::QString(QByteArray const &)
FUNC ada0 47 0 QStringRef::QStringRef(QString const *)
FUNC adf0 60 0 std::basic_ostream<char,std::char_traits<char> >::_Sentry_base::_Sentry_base(std::basic_ostream<char,std::char_traits<char> > &)
FUNC ae50 cd 0 std::basic_ostream<char,std::char_traits<char> >::sentry::sentry(std::basic_ostream<char,std::char_traits<char> > &)
FUNC af20 17 0 std::basic_string<char,std::char_traits<char>,std::allocator<char> >::~basic_string<char,std::char_traits<char>,std::allocator<char> >()
FUNC af40 13 0 std::vector<QDir const *,std::allocator<QDir const *> >::~vector<QDir const *,std::allocator<QDir const *> >()
FUNC af60 2a 0 QByteArray::~QByteArray()
FUNC af90 b 0 QStringRef::~QStringRef()
FUNC afa0 55 0 std::basic_ostream<char,std::char_traits<char> >::_Sentry_base::~_Sentry_base()
FUNC b000 2b 0 std::basic_ostream<char,std::char_traits<char> >::sentry::~sentry()
FUNC b030 f 0 operator<<(QTextStream &,QTextStream & (*)(QTextStream &))
FUNC b040 18 0 std::vector<QDir const *,std::allocator<QDir const *> >::operator[](unsigned int)
FUNC b060 10 0 QFlag::operator int()
FUNC b070 11 0 std::basic_ostream<char,std::char_traits<char> >::sentry::operator bool()
FUNC b090 7e 0 operator+(QString const &,QString const &)
FUNC b110 84 0 operator+(char const *,QString const &)
FUNC b1a0 2e 0 QFlags<QIODevice::OpenModeFlag>::operator|(QIODevice::OpenModeFlag)
FUNC b1d0 26 0 operator|(QIODevice::OpenModeFlag,QIODevice::OpenModeFlag)
FUNC b200 19 0 QString::operator+=(QStringRef const &)
FUNC b220 2f 0 std::vector<QDir const *,std::allocator<QDir const *> >::_Destroy(QDir const * *,QDir const * *)
FUNC b250 59 0 std::vector<QDir const *,std::allocator<QDir const *> >::_Grow_to(unsigned int)
FUNC b2b0 37 0 std::vector<QDir const *,std::allocator<QDir const *> >::_Inside(QDir const * const *)
FUNC b2f0 78 0 std::vector<QDir const *,std::allocator<QDir const *> >::_Tidy()
FUNC b370 19 0 std::_Wrap_alloc<std::allocator<QDir const *> >::allocate(unsigned int)
FUNC b390 1b 0 std::allocator<QDir const *>::allocate(unsigned int)
FUNC b3b0 15 0 QByteArray::constData()
FUNC b3d0 15 0 QTypedArrayData<char>::deallocate(QArrayData *)
FUNC b3f0 8 0 std::char_traits<char>::eof()
FUNC b400 27 0 std::char_traits<char>::eq_int_type(int const &,int const &)
FUNC b430 17 0 std::_Wrap_alloc<std::allocator<QDir const *> >::max_size()
FUNC b450 45 0 qstrnlen(char const *,unsigned int)
FUNC b4a0 3c 0 QByteArray::toStdString()
FUNC b4e0 80 0 QString::toStdString()
FUNC b560 e 0 WinProcessUtils::WinProcessUtils()
FUNC b570 b 0 WinProcessUtils::~WinProcessUtils()
FUNC b580 64 0 WinProcessUtils::StartProcess(wchar_t const *,unsigned long)
FUNC b5f0 262 0 WinProcessUtils::SerializeClientInfo(QString,QString,QString,QString,wchar_t const *,int)
FUNC b860 21b 0 WinProcessUtils::ParseClientInfo(QString *,QString *,QString *,QString *,wchar_t const *)
FUNC ba80 1d 0 WinProcessUtils::CreateSharedMemory(wchar_t const *,int)
FUNC baa0 1b 0 WinProcessUtils::CreateSharedMemory(int)
FUNC bac0 13c 0 WinProcessUtils::WriteMessageToSharedMemory(void *,wchar_t const *,int)
FUNC bc00 58 0 WinProcessUtils::ReadMessageFromSharedMemory(void *,wchar_t const *,int)
FUNC bc60 3b 0 WinProcessUtils::GetInheritableHandle(void *,void * *)
FUNC bca0 2e 0 WinProcessUtils::SetEnvironmentVar(wchar_t const *,wchar_t *,int)
FUNC bcd0 34 0 WinProcessUtils::ReadEnvironmentVariable(wchar_t const *,wchar_t *,int)
FUNC bd10 17 0 WinProcessUtils::Print(wchar_t const *)
FUNC bd30 21f 0 WinProcessUtils::processNameFromPid(unsigned long)
FUNC bf50 2c 0 Deserializer::`scalar deleting destructor'(unsigned int)
FUNC bf80 2c 0 Serializer::`scalar deleting destructor'(unsigned int)
FUNC bfb0 13 0 std::basic_string<char,std::char_traits<char>,std::allocator<char> >::data()
FUNC bfd0 39 0 QString::fromStdString(std::basic_string<char,std::char_traits<char>,std::allocator<char> > const &)
FUNC c010 2b 0 QString::isEmpty()
FUNC c040 62 0 QString::toWCharArray(wchar_t *)
FUNC c0b0 55 0 std::to_string(unsigned long)
FUNC c110 22 0 Serializer::Serializer()
FUNC c140 16 0 Serializer::~Serializer()
FUNC c160 fb 0 Serializer::AddString(QString)
FUNC c260 12e 0 Serializer::AddString(QString,QString)
FUNC c390 d0 0 Serializer::AddBool(bool)
FUNC c460 b8 0 Serializer::AddBool(QString,bool)
FUNC c520 fb 0 Serializer::AddDate(QDateTime)
FUNC c620 ae 0 Serializer::AddDate(QString,QDateTime)
FUNC c6d0 aa 0 Serializer::AddQInt64(QString,__int64)
FUNC c780 d3 0 Serializer::AddQInt64(__int64)
FUNC c860 31 0 Serializer::GetSerializedString()
FUNC c8a0 18 0 QByteArray::QByteArray()
FUNC c8c0 1e 0 QChar::QChar(int)
FUNC c8e0 7a 0 QString::operator+=(QByteArray const &)
FUNC c960 a4 0 QString::operator+=(QChar)
FUNC ca10 4b 0 QString::fromUtf8(QByteArray const &)
FUNC ca60 37 0 QtPrivate::RefCount::isShared()
FUNC caa0 e 0 StringsHelper::StringsHelper()
FUNC cab0 ec 0 StringsHelper::basicCheck(QString)
FUNC cba0 af 0 StringsHelper::base64Encode(QString)
FUNC cc50 b3 0 StringsHelper::base64Decode(QString)
FUNC cd10 86 0 StringsHelper::trim(std::basic_string<char,std::char_traits<char>,std::allocator<char> >)
FUNC cda0 2d 0 StringsHelper::LPTSTRtoQString(wchar_t * const)
FUNC cdd0 2d 0 StringsHelper::LPTSTRtoQString(wchar_t const *)
FUNC ce00 48 0 std::basic_string<char,std::char_traits<char>,std::allocator<char> >::basic_string<char,std::char_traits<char>,std::allocator<char> >(std::basic_string<char,std::char_traits<char>,std::allocator<char> > &&)
FUNC ce50 48 0 QString::operator==(char const *)
FUNC cea0 7c 0 std::basic_string<char,std::char_traits<char>,std::allocator<char> >::_Assign_rv(std::basic_string<char,std::char_traits<char>,std::allocator<char> > &&)
FUNC cf20 76 0 QByteArray::append(QString const &)
FUNC cfa0 35 0 std::char_traits<char>::find(char const *,unsigned int,char const &)
FUNC cfe0 2a 0 std::basic_string<char,std::char_traits<char>,std::allocator<char> >::find_last_not_of(char const *,unsigned int)
FUNC d010 91 0 std::basic_string<char,std::char_traits<char>,std::allocator<char> >::find_last_not_of(char const *,unsigned int,unsigned int)
FUNC d0b0 dc 0 Deserializer::Deserializer(QString)
FUNC d190 13 0 Deserializer::~Deserializer()
FUNC d1b0 27e 0 Deserializer::GetString(int)
FUNC d430 81 0 Deserializer::GetDate(int)
FUNC d4c0 b4 0 Deserializer::GetBool(int)
FUNC d580 13 0 Deserializer::GetSplitCount()
FUNC d5a0 329 0 std::operator<<<std::char_traits<char> >(std::basic_ostream<char,std::char_traits<char> > &,char const *)
FUNC d8d0 3b 0 std::operator+<char,std::char_traits<char>,std::allocator<char> >(char const *,std::basic_string<char,std::char_traits<char>,std::allocator<char> > &&)
FUNC d910 dd 0 QList<QString>::QList<QString>(QList<QString> const &)
FUNC d9f0 17 0 QList<QString>::QList<QString>()
FUNC da10 2d 0 std::basic_string<char,std::char_traits<char>,std::allocator<char> >::basic_string<char,std::char_traits<char>,std::allocator<char> >()
FUNC da40 7e 0 std::basic_stringbuf<char,std::char_traits<char>,std::allocator<char> >::basic_stringbuf<char,std::char_traits<char>,std::allocator<char> >(int)
FUNC dac0 d3 0 std::basic_stringstream<char,std::char_traits<char>,std::allocator<char> >::basic_stringstream<char,std::char_traits<char>,std::allocator<char> >(int)
FUNC dba0 39 0 std::fpos<int>::fpos<int>(__int64)
FUNC dbe0 a9 0 ETCustomException::ETCustomException(std::basic_string<char,std::char_traits<char>,std::allocator<char> >,std::basic_string<char,std::char_traits<char>,std::allocator<char> >)
FUNC dc90 17 0 ETException::ETException()
FUNC dcb0 16 0 QStringList::QStringList()
FUNC dcd0 2a 0 QList<QString>::~QList<QString>()
FUNC dd00 25 0 std::basic_stringbuf<char,std::char_traits<char>,std::allocator<char> >::~basic_stringbuf<char,std::char_traits<char>,std::allocator<char> >()
FUNC dd30 52 0 std::basic_stringstream<char,std::char_traits<char>,std::allocator<char> >::~basic_stringstream<char,std::char_traits<char>,std::allocator<char> >()
FUNC dd90 13 0 QStringList::~QStringList()
FUNC ddb0 76 0 QList<QString>::operator=(QList<QString> const &)
FUNC de30 74 0 std::basic_string<char,std::char_traits<char>,std::allocator<char> >::operator=(std::basic_string<char,std::char_traits<char>,std::allocator<char> > const &)
FUNC deb0 1c 0 QStringList::operator=(QStringList const &)
FUNC ded0 2d 0 QList<QString>::operator[](int)
FUNC df00 22 0 std::fpos<int>::operator __int64()
FUNC df30 22 0 std::basic_stringstream<char,std::char_traits<char>,std::allocator<char> >::`vbase destructor'()
FUNC df60 2c 0 std::basic_stringbuf<char,std::char_traits<char>,std::allocator<char> >::`scalar deleting destructor'(unsigned int)
FUNC df90 35 0 std::basic_stringstream<char,std::char_traits<char>,std::allocator<char> >::`scalar deleting destructor'(unsigned int)
FUNC dfd0 2c 0 QString::`scalar deleting destructor'(unsigned int)
FUNC e000 5d 0 std::basic_stringbuf<char,std::char_traits<char>,std::allocator<char> >::_Getstate(int)
FUNC e060 101 0 std::basic_stringbuf<char,std::char_traits<char>,std::allocator<char> >::_Init(char const *,unsigned int,int)
FUNC e170 98 0 std::basic_stringbuf<char,std::char_traits<char>,std::allocator<char> >::_Tidy()
FUNC e210 21 0 std::basic_string<char,std::char_traits<char>,std::allocator<char> >::assign(std::basic_string<char,std::char_traits<char>,std::allocator<char> > const &)
FUNC e240 24 0 QListData::at(int)
FUNC e270 1c 0 QListData::begin()
FUNC e290 15 0 QString::compare(QString const &,QString const &,Qt::CaseSensitivity)
FUNC e2b0 3d 0 QList<QString>::dealloc(QListData::Data *)
FUNC e2f0 24 0 QList<QString>::detach()
FUNC e320 da 0 QList<QString>::detach_helper(int)
FUNC e400 1c 0 QList<QString>::detach_helper()
FUNC e420 19 0 QListData::dispose()
FUNC e440 1c 0 QListData::end()
FUNC e460 2b 0 std::char_traits<char>::eq(char const &,char const &)
FUNC e490 137 0 std::basic_string<char,std::char_traits<char>,std::allocator<char> >::insert(unsigned int,std::basic_string<char,std::char_traits<char>,std::allocator<char> > const &,unsigned int,unsigned int)
FUNC e5d0 2a 0 std::basic_string<char,std::char_traits<char>,std::allocator<char> >::insert(unsigned int,char const *)
FUNC e600 f1 0 std::basic_string<char,std::char_traits<char>,std::allocator<char> >::insert(unsigned int,char const *,unsigned int)
FUNC e700 223 0 QList<QString>::node_copy(QList<QString>::Node *,QList<QString>::Node *,QList<QString>::Node *)
FUNC e930 78 0 QList<QString>::node_destruct(QList<QString>::Node *,QList<QString>::Node *)
FUNC e9b0 42 0 std::char_traits<char>::not_eof(int const &)
FUNC ea00 2f1 0 std::basic_stringbuf<char,std::char_traits<char>,std::allocator<char> >::overflow(int)
FUNC ed00 f0 0 std::basic_stringbuf<char,std::char_traits<char>,std::allocator<char> >::pbackfail(int)
FUNC edf0 2b8 0 std::basic_stringbuf<char,std::char_traits<char>,std::allocator<char> >::seekoff(__int64,int,int)
FUNC f0b0 1fe 0 std::basic_stringbuf<char,std::char_traits<char>,std::allocator<char> >::seekpos(std::fpos<int>,int)
FUNC f2b0 13 0 QList<QString>::size()
FUNC f2d0 1d 0 QListData::size()
FUNC f2f0 148 0 std::basic_stringbuf<char,std::char_traits<char>,std::allocator<char> >::str()
FUNC f440 31 0 std::basic_stringstream<char,std::char_traits<char>,std::allocator<char> >::str()
FUNC f480 1d 0 QList<QString>::swap(QList<QString> &)
FUNC f4a0 24 0 QList<QString>::Node::t()
FUNC f4d0 a 0 std::char_traits<char>::to_char_type(int const &)
FUNC f4e0 b 0 std::char_traits<char>::to_int_type(char const &)
FUNC f4f0 fd 0 std::basic_stringbuf<char,std::char_traits<char>,std::allocator<char> >::underflow()
FUNC f5f0 11a 0 ETCustomException::what()
FUNC f710 2f 0 ETException::what()
FUNC f740 86 0 CustomErrorHandler::getInstance()
FUNC f7d0 1b 0 CustomErrorHandler::throwError(ETException *)
FUNC f7f0 1a6 0 CustomErrorHandler::throwError(ETException *,bool)
FUNC f9a0 21 0 CustomErrorHandler::CustomErrorHandler()
FUNC f9d0 1a 0 QString::QString(QString::Null const &)
FUNC f9f0 13 0 CustomErrorHandler::~CustomErrorHandler()
FUNC fa10 10a 0 BreakpadContext::BreakpadContext(QString)
FUNC fb20 83 0 BreakpadContext::~BreakpadContext()
FUNC fbb0 2e 0 BreakpadContext::startedAtUtc()
FUNC fbe0 31 0 BreakpadContext::gitRev()
FUNC fc20 31 0 BreakpadContext::appName()
FUNC fc60 31 0 BreakpadContext::appVersion()
FUNC fca0 31 0 BreakpadContext::buildType()
FUNC fce0 7c 0 QString::operator=(char const *)
FUNC fd60 28b 0 ErrorReportRequest::ErrorReportRequest(QString,BreakpadContext const *,QString,int,int)
FUNC fff0 37 0 ErrorReportRequest::~ErrorReportRequest()
FUNC 10030 25b 0 ErrorReportRequest::send()
FUNC 10290 2c 0 QByteArray::`scalar deleting destructor'(unsigned int)
FUNC 102c0 a 0 QCoreApplication::instance()
FUNC 102d0 12d 0 LocalStateHolder::createInstance(int,int,QString)
FUNC 10400 c8 0 LocalStateHolder::getInstance()
FUNC 104d0 24 0 LocalStateHolder::hasInstance()
FUNC 10500 3e 0 LocalStateHolder::destroyInstance()
FUNC 10540 16 0 LocalStateHolder::~LocalStateHolder()
FUNC 10560 10 0 LocalStateHolder::getUserId()
FUNC 10570 31 0 LocalStateHolder::getB64Password()
FUNC 105b0 11 0 LocalStateHolder::getClientId()
FUNC 105d0 1dc 0 LocalStateHolder::updateETState(rapidjson::GenericDocument<rapidjson::UTF8<char>,rapidjson::MemoryPoolAllocator<rapidjson::CrtAllocator> > const *)
FUNC 107b0 11 0 LocalStateHolder::getLatestETState()
FUNC 107d0 c2 0 LocalStateHolder::LocalStateHolder(int,int,QString)
FUNC 108a0 2c 0 ETState::`scalar deleting destructor'(unsigned int)
FUNC 108d0 2c 0 LocalStateHolder::`scalar deleting destructor'(unsigned int)
FUNC 10900 2d 0 std::exception::`scalar deleting destructor'(unsigned int)
FUNC 10930 3f 0 CustomErrorHandler::metaObject()
FUNC 10970 3d 0 CustomErrorHandler::qt_metacast(char const *)
FUNC 109b0 8a 0 CustomErrorHandler::qt_metacall(QMetaObject::Call,int,void * *)
FUNC 10a40 7b 0 CustomErrorHandler::qt_static_metacall(QObject *,QMetaObject::Call,int,void * *)
FUNC 10ac0 33 0 CustomErrorHandler::sig_abortExec(ETException *)
FUNC 10b00 15 0 QScopedPointer<QObjectData,QScopedPointerDeleter<QObjectData> >::operator->()
FUNC 10b20 8e 0 Json::Json()
FUNC 10bb0 37 0 Json::~Json()
FUNC 10bf0 d2 0 Json::addProperty(char const *,QString)
FUNC 10cd0 8d 0 Json::addProperty(char const *,int)
FUNC 10d60 9f 0 Json::toBin(QByteArray *)
FUNC 10e00 1ec 0 rapidjson::GenericValue<rapidjson::UTF8<char>,rapidjson::MemoryPoolAllocator<rapidjson::CrtAllocator> >::Accept<rapidjson::Writer<rapidjson::GenericStringBuffer<rapidjson::UTF8<char>,rapidjson::CrtAllocator>,rapidjson::UTF8<char>,rapidjson::MemoryPoolAllocator<rapidjson::CrtAllocator> > >(rapidjson::Writer<rapidjson::GenericStringBuffer<rapidjson::UTF8<char>,rapidjson::CrtAllocator>,rapidjson::UTF8<char>,rapidjson::MemoryPoolAllocator<rapidjson::CrtAllocator> > &)
FUNC 10ff0 11 0 rapidjson::internal::Stack<rapidjson::CrtAllocator>::Bottom<char>()
FUNC 11010 22 0 rapidjson::internal::Stack<rapidjson::CrtAllocator>::Pop<char>(unsigned int)
FUNC 11040 27 0 rapidjson::internal::Stack<rapidjson::MemoryPoolAllocator<rapidjson::CrtAllocator> >::Pop<rapidjson::Writer<rapidjson::GenericStringBuffer<rapidjson::UTF8<char>,rapidjson::CrtAllocator>,rapidjson::UTF8<char>,rapidjson::MemoryPoolAllocator<rapidjson::CrtAllocator> >::Level>(unsigned int)
FUNC 11070 b9 0 rapidjson::internal::Stack<rapidjson::CrtAllocator>::Push<char>(unsigned int)
FUNC 11130 c6 0 rapidjson::internal::Stack<rapidjson::MemoryPoolAllocator<rapidjson::CrtAllocator> >::Push<rapidjson::Writer<rapidjson::GenericStringBuffer<rapidjson::UTF8<char>,rapidjson::CrtAllocator>,rapidjson::UTF8<char>,rapidjson::MemoryPoolAllocator<rapidjson::CrtAllocator> >::Level>(unsigned int)
FUNC 11200 29 0 rapidjson::internal::StrLen<char>(char const *)
FUNC 11230 14 0 rapidjson::internal::Stack<rapidjson::MemoryPoolAllocator<rapidjson::CrtAllocator> >::Top<rapidjson::Writer<rapidjson::GenericStringBuffer<rapidjson::UTF8<char>,rapidjson::CrtAllocator>,rapidjson::UTF8<char>,rapidjson::MemoryPoolAllocator<rapidjson::CrtAllocator> >::Level>()
FUNC 11250 77 0 rapidjson::GenericDocument<rapidjson::UTF8<char>,rapidjson::MemoryPoolAllocator<rapidjson::CrtAllocator> >::GenericDocument<rapidjson::UTF8<char>,rapidjson::MemoryPoolAllocator<rapidjson::CrtAllocator> >(rapidjson::MemoryPoolAllocator<rapidjson::CrtAllocator> *,unsigned int)
FUNC 112d0 20 0 rapidjson::GenericStringBuffer<rapidjson::UTF8<char>,rapidjson::CrtAllocator>::GenericStringBuffer<rapidjson::UTF8<char>,rapidjson::CrtAllocator>(rapidjson::CrtAllocator *,unsigned int)
FUNC 112f0 3d 0 rapidjson::GenericValue<rapidjson::UTF8<char>,rapidjson::MemoryPoolAllocator<rapidjson::CrtAllocator> >::GenericValue<rapidjson::UTF8<char>,rapidjson::MemoryPoolAllocator<rapidjson::CrtAllocator> >(int)
FUNC 11330 2b 0 rapidjson::GenericValue<rapidjson::UTF8<char>,rapidjson::MemoryPoolAllocator<rapidjson::CrtAllocator> >::GenericValue<rapidjson::UTF8<char>,rapidjson::MemoryPoolAllocator<rapidjson::CrtAllocator> >(char const *,unsigned int)
FUNC 11360 30 0 rapidjson::GenericValue<rapidjson::UTF8<char>,rapidjson::MemoryPoolAllocator<rapidjson::CrtAllocator> >::GenericValue<rapidjson::UTF8<char>,rapidjson::MemoryPoolAllocator<rapidjson::CrtAllocator> >(rapidjson::Type)
FUNC 11390 18 0 rapidjson::GenericValue<rapidjson::UTF8<char>,rapidjson::MemoryPoolAllocator<rapidjson::CrtAllocator> >::GenericValue<rapidjson::UTF8<char>,rapidjson::MemoryPoolAllocator<rapidjson::CrtAllocator> >()
FUNC 113b0 a8 0 rapidjson::MemoryPoolAllocator<rapidjson::CrtAllocator>::MemoryPoolAllocator<rapidjson::CrtAllocator>(unsigned int,rapidjson::CrtAllocator *)
FUNC 11460 108 0 rapidjson::internal::Stack<rapidjson::MemoryPoolAllocator<rapidjson::CrtAllocator> >::Stack<rapidjson::MemoryPoolAllocator<rapidjson::CrtAllocator> >(rapidjson::MemoryPoolAllocator<rapidjson::CrtAllocator> *,unsigned int)
FUNC 11570 d9 0 rapidjson::internal::Stack<rapidjson::CrtAllocator>::Stack<rapidjson::CrtAllocator>(rapidjson::CrtAllocator *,unsigned int)
FUNC 11650 2e 0 rapidjson::Writer<rapidjson::GenericStringBuffer<rapidjson::UTF8<char>,rapidjson::CrtAllocator>,rapidjson::UTF8<char>,rapidjson::MemoryPoolAllocator<rapidjson::CrtAllocator> >::Writer<rapidjson::GenericStringBuffer<rapidjson::UTF8<char>,rapidjson::CrtAllocator>,rapidjson::UTF8<char>,rapidjson::MemoryPoolAllocator<rapidjson::CrtAllocator> >(rapidjson::GenericStringBuffer<rapidjson::UTF8<char>,rapidjson::CrtAllocator> &,rapidjson::MemoryPoolAllocator<rapidjson::CrtAllocator> *,unsigned int)
FUNC 11680 22 0 rapidjson::Writer<rapidjson::GenericStringBuffer<rapidjson::UTF8<char>,rapidjson::CrtAllocator>,rapidjson::UTF8<char>,rapidjson::MemoryPoolAllocator<rapidjson::CrtAllocator> >::Level::Level(bool)
FUNC 116b0 56 0 rapidjson::GenericDocument<rapidjson::UTF8<char>,rapidjson::MemoryPoolAllocator<rapidjson::CrtAllocator> >::~GenericDocument<rapidjson::UTF8<char>,rapidjson::MemoryPoolAllocator<rapidjson::CrtAllocator> >()
FUNC 11710 13 0 rapidjson::GenericStringBuffer<rapidjson::UTF8<char>,rapidjson::CrtAllocator>::~GenericStringBuffer<rapidjson::UTF8<char>,rapidjson::CrtAllocator>()
FUNC 11730 db 0 rapidjson::GenericValue<rapidjson::UTF8<char>,rapidjson::MemoryPoolAllocator<rapidjson::CrtAllocator> >::~GenericValue<rapidjson::UTF8<char>,rapidjson::MemoryPoolAllocator<rapidjson::CrtAllocator> >()
FUNC 11810 2a 0 rapidjson::MemoryPoolAllocator<rapidjson::CrtAllocator>::~MemoryPoolAllocator<rapidjson::CrtAllocator>()
FUNC 11840 47 0 rapidjson::internal::Stack<rapidjson::MemoryPoolAllocator<rapidjson::CrtAllocator> >::~Stack<rapidjson::MemoryPoolAllocator<rapidjson::CrtAllocator> >()
FUNC 11890 31 0 rapidjson::internal::Stack<rapidjson::CrtAllocator>::~Stack<rapidjson::CrtAllocator>()
FUNC 118d0 16 0 rapidjson::Writer<rapidjson::GenericStringBuffer<rapidjson::UTF8<char>,rapidjson::CrtAllocator>,rapidjson::UTF8<char>,rapidjson::MemoryPoolAllocator<rapidjson::CrtAllocator> >::~Writer<rapidjson::GenericStringBuffer<rapidjson::UTF8<char>,rapidjson::CrtAllocator>,rapidjson::UTF8<char>,rapidjson::MemoryPoolAllocator<rapidjson::CrtAllocator> >()
FUNC 118f0 2c 0 rapidjson::GenericDocument<rapidjson::UTF8<char>,rapidjson::MemoryPoolAllocator<rapidjson::CrtAllocator> >::`scalar deleting destructor'(unsigned int)
FUNC 11920 2c 0 rapidjson::GenericValue<rapidjson::UTF8<char>,rapidjson::MemoryPoolAllocator<rapidjson::CrtAllocator> >::`scalar deleting destructor'(unsigned int)
FUNC 11950 2c 0 rapidjson::MemoryPoolAllocator<rapidjson::CrtAllocator>::`scalar deleting destructor'(unsigned int)
FUNC 11980 49 0 rapidjson::MemoryPoolAllocator<rapidjson::CrtAllocator>::AddChunk(unsigned int)
FUNC 119d0 d0 0 rapidjson::GenericValue<rapidjson::UTF8<char>,rapidjson::MemoryPoolAllocator<rapidjson::CrtAllocator> >::AddMember(rapidjson::GenericValue<rapidjson::UTF8<char>,rapidjson::MemoryPoolAllocator<rapidjson::CrtAllocator> > &,rapidjson::GenericValue<rapidjson::UTF8<char>,rapidjson::MemoryPoolAllocator<rapidjson::CrtAllocator> > &,rapidjson::MemoryPoolAllocator<rapidjson::CrtAllocator> &)
FUNC 11aa0 8f 0 rapidjson::GenericValue<rapidjson::UTF8<char>,rapidjson::MemoryPoolAllocator<rapidjson::CrtAllocator> >::AddMember(char const *,rapidjson::GenericValue<rapidjson::UTF8<char>,rapidjson::MemoryPoolAllocator<rapidjson::CrtAllocator> > &,rapidjson::MemoryPoolAllocator<rapidjson::CrtAllocator> &)
FUNC 11b30 43 0 rapidjson::Writer<rapidjson::GenericStringBuffer<rapidjson::UTF8<char>,rapidjson::CrtAllocator>,rapidjson::UTF8<char>,rapidjson::MemoryPoolAllocator<rapidjson::CrtAllocator> >::Bool(bool)
FUNC 11b80 45 0 rapidjson::MemoryPoolAllocator<rapidjson::CrtAllocator>::Clear()
FUNC 11bd0 2f 0 rapidjson::Writer<rapidjson::GenericStringBuffer<rapidjson::UTF8<char>,rapidjson::CrtAllocator>,rapidjson::UTF8<char>,rapidjson::MemoryPoolAllocator<rapidjson::CrtAllocator> >::Double(double)
FUNC 11c00 25 0 rapidjson::Writer<rapidjson::GenericStringBuffer<rapidjson::UTF8<char>,rapidjson::CrtAllocator>,rapidjson::UTF8<char>,rapidjson::MemoryPoolAllocator<rapidjson::CrtAllocator> >::EndArray(unsigned int)
FUNC 11c30 25 0 rapidjson::Writer<rapidjson::GenericStringBuffer<rapidjson::UTF8<char>,rapidjson::CrtAllocator>,rapidjson::UTF8<char>,rapidjson::MemoryPoolAllocator<rapidjson::CrtAllocator> >::EndObject(unsigned int)
FUNC 11c60 12 0 rapidjson::CrtAllocator::Free(void *)
FUNC 11c80 16 0 rapidjson::GenericDocument<rapidjson::UTF8<char>,rapidjson::MemoryPoolAllocator<rapidjson::CrtAllocator> >::GetAllocator()
FUNC 11ca0 17 0 rapidjson::internal::Stack<rapidjson::CrtAllocator>::GetSize()
FUNC 11cc0 2a 0 rapidjson::GenericStringBuffer<rapidjson::UTF8<char>,rapidjson::CrtAllocator>::GetString()
FUNC 11cf0 16 0 rapidjson::GenericValue<rapidjson::UTF8<char>,rapidjson::MemoryPoolAllocator<rapidjson::CrtAllocator> >::GetType()
FUNC 11d10 2a 0 rapidjson::Writer<rapidjson::GenericStringBuffer<rapidjson::UTF8<char>,rapidjson::CrtAllocator>,rapidjson::UTF8<char>,rapidjson::MemoryPoolAllocator<rapidjson::CrtAllocator> >::Int64(__int64)
FUNC 11d40 26 0 rapidjson::Writer<rapidjson::GenericStringBuffer<rapidjson::UTF8<char>,rapidjson::CrtAllocator>,rapidjson::UTF8<char>,rapidjson::MemoryPoolAllocator<rapidjson::CrtAllocator> >::Int(int)
FUNC 11d70 2e 0 rapidjson::GenericValue<rapidjson::UTF8<char>,rapidjson::MemoryPoolAllocator<rapidjson::CrtAllocator> >::IsInt64()
FUNC 11da0 2e 0 rapidjson::GenericValue<rapidjson::UTF8<char>,rapidjson::MemoryPoolAllocator<rapidjson::CrtAllocator> >::IsInt()
FUNC 11dd0 2e 0 rapidjson::GenericValue<rapidjson::UTF8<char>,rapidjson::MemoryPoolAllocator<rapidjson::CrtAllocator> >::IsUint64()
FUNC 11e00 2e 0 rapidjson::GenericValue<rapidjson::UTF8<char>,rapidjson::MemoryPoolAllocator<rapidjson::CrtAllocator> >::IsUint()
FUNC 11e30 81 0 rapidjson::MemoryPoolAllocator<rapidjson::CrtAllocator>::Malloc(unsigned int)
FUNC 11ec0 1a 0 rapidjson::CrtAllocator::Malloc(unsigned int)
FUNC 11ee0 20 0 rapidjson::Writer<rapidjson::GenericStringBuffer<rapidjson::UTF8<char>,rapidjson::CrtAllocator>,rapidjson::UTF8<char>,rapidjson::MemoryPoolAllocator<rapidjson::CrtAllocator> >::Null()
FUNC 11f00 88 0 rapidjson::Writer<rapidjson::GenericStringBuffer<rapidjson::UTF8<char>,rapidjson::CrtAllocator>,rapidjson::UTF8<char>,rapidjson::MemoryPoolAllocator<rapidjson::CrtAllocator> >::Prefix(rapidjson::Type)
FUNC 11f90 1c 0 rapidjson::GenericStringBuffer<rapidjson::UTF8<char>,rapidjson::CrtAllocator>::Put(char)
FUNC 11fb0 29 0 rapidjson::GenericValue<rapidjson::UTF8<char>,rapidjson::MemoryPoolAllocator<rapidjson::CrtAllocator> >::RawAssign(rapidjson::GenericValue<rapidjson::UTF8<char>,rapidjson::MemoryPoolAllocator<rapidjson::CrtAllocator> > &)
FUNC 11fe0 b0 0 rapidjson::MemoryPoolAllocator<rapidjson::CrtAllocator>::Realloc(void *,unsigned int,unsigned int)
FUNC 12090 1e 0 rapidjson::CrtAllocator::Realloc(void *,unsigned int,unsigned int)
FUNC 120b0 89 0 rapidjson::GenericValue<rapidjson::UTF8<char>,rapidjson::MemoryPoolAllocator<rapidjson::CrtAllocator> >::SetInt(int)
FUNC 12140 85 0 rapidjson::GenericValue<rapidjson::UTF8<char>,rapidjson::MemoryPoolAllocator<rapidjson::CrtAllocator> >::SetObject()
FUNC 121d0 2d 0 rapidjson::GenericValue<rapidjson::UTF8<char>,rapidjson::MemoryPoolAllocator<rapidjson::CrtAllocator> >::SetString(char const *,rapidjson::MemoryPoolAllocator<rapidjson::CrtAllocator> &)
FUNC 12200 2e 0 rapidjson::GenericValue<rapidjson::UTF8<char>,rapidjson::MemoryPoolAllocator<rapidjson::CrtAllocator> >::SetString(char const *,unsigned int,rapidjson::MemoryPoolAllocator<rapidjson::CrtAllocator> &)
FUNC 12230 56 0 rapidjson::GenericValue<rapidjson::UTF8<char>,rapidjson::MemoryPoolAllocator<rapidjson::CrtAllocator> >::SetStringRaw(char const *,unsigned int,rapidjson::MemoryPoolAllocator<rapidjson::CrtAllocator> &)
FUNC 12290 9d 0 rapidjson::Writer<rapidjson::GenericStringBuffer<rapidjson::UTF8<char>,rapidjson::CrtAllocator>,rapidjson::UTF8<char>,rapidjson::MemoryPoolAllocator<rapidjson::CrtAllocator> >::StartArray()
FUNC 12330 9d 0 rapidjson::Writer<rapidjson::GenericStringBuffer<rapidjson::UTF8<char>,rapidjson::CrtAllocator>,rapidjson::UTF8<char>,rapidjson::MemoryPoolAllocator<rapidjson::CrtAllocator> >::StartObject()
FUNC 123d0 2a 0 rapidjson::Writer<rapidjson::GenericStringBuffer<rapidjson::UTF8<char>,rapidjson::CrtAllocator>,rapidjson::UTF8<char>,rapidjson::MemoryPoolAllocator<rapidjson::CrtAllocator> >::String(char const *,unsigned int,bool)
FUNC 12400 2a 0 rapidjson::Writer<rapidjson::GenericStringBuffer<rapidjson::UTF8<char>,rapidjson::CrtAllocator>,rapidjson::UTF8<char>,rapidjson::MemoryPoolAllocator<rapidjson::CrtAllocator> >::Uint64(unsigned __int64)
FUNC 12430 26 0 rapidjson::Writer<rapidjson::GenericStringBuffer<rapidjson::UTF8<char>,rapidjson::CrtAllocator>,rapidjson::UTF8<char>,rapidjson::MemoryPoolAllocator<rapidjson::CrtAllocator> >::Uint(unsigned int)
FUNC 12460 83 0 rapidjson::Writer<rapidjson::GenericStringBuffer<rapidjson::UTF8<char>,rapidjson::CrtAllocator>,rapidjson::UTF8<char>,rapidjson::MemoryPoolAllocator<rapidjson::CrtAllocator> >::WriteBool(bool)
FUNC 124f0 76 0 rapidjson::Writer<rapidjson::GenericStringBuffer<rapidjson::UTF8<char>,rapidjson::CrtAllocator>,rapidjson::UTF8<char>,rapidjson::MemoryPoolAllocator<rapidjson::CrtAllocator> >::WriteDouble(double)
FUNC 12570 17 0 rapidjson::Writer<rapidjson::GenericStringBuffer<rapidjson::UTF8<char>,rapidjson::CrtAllocator>,rapidjson::UTF8<char>,rapidjson::MemoryPoolAllocator<rapidjson::CrtAllocator> >::WriteEndArray()
FUNC 12590 17 0 rapidjson::Writer<rapidjson::GenericStringBuffer<rapidjson::UTF8<char>,rapidjson::CrtAllocator>,rapidjson::UTF8<char>,rapidjson::MemoryPoolAllocator<rapidjson::CrtAllocator> >::WriteEndObject()
FUNC 125b0 4a 0 rapidjson::Writer<rapidjson::GenericStringBuffer<rapidjson::UTF8<char>,rapidjson::CrtAllocator>,rapidjson::UTF8<char>,rapidjson::MemoryPoolAllocator<rapidjson::CrtAllocator> >::WriteInt64(__int64)
FUNC 12600 33 0 rapidjson::Writer<rapidjson::GenericStringBuffer<rapidjson::UTF8<char>,rapidjson::CrtAllocator>,rapidjson::UTF8<char>,rapidjson::MemoryPoolAllocator<rapidjson::CrtAllocator> >::WriteInt(int)
FUNC 12640 3b 0 rapidjson::Writer<rapidjson::GenericStringBuffer<rapidjson::UTF8<char>,rapidjson::CrtAllocator>,rapidjson::UTF8<char>,rapidjson::MemoryPoolAllocator<rapidjson::CrtAllocator> >::WriteNull()
FUNC 12680 17 0 rapidjson::Writer<rapidjson::GenericStringBuffer<rapidjson::UTF8<char>,rapidjson::CrtAllocator>,rapidjson::UTF8<char>,rapidjson::MemoryPoolAllocator<rapidjson::CrtAllocator> >::WriteStartArray()
FUNC 126a0 17 0 rapidjson::Writer<rapidjson::GenericStringBuffer<rapidjson::UTF8<char>,rapidjson::CrtAllocator>,rapidjson::UTF8<char>,rapidjson::MemoryPoolAllocator<rapidjson::CrtAllocator> >::WriteStartObject()
FUNC 126c0 105 0 rapidjson::Writer<rapidjson::GenericStringBuffer<rapidjson::UTF8<char>,rapidjson::CrtAllocator>,rapidjson::UTF8<char>,rapidjson::MemoryPoolAllocator<rapidjson::CrtAllocator> >::WriteString(char const *,unsigned int)
FUNC 127d0 95 0 rapidjson::Writer<rapidjson::GenericStringBuffer<rapidjson::UTF8<char>,rapidjson::CrtAllocator>,rapidjson::UTF8<char>,rapidjson::MemoryPoolAllocator<rapidjson::CrtAllocator> >::WriteUint64(unsigned __int64)
FUNC 12870 7d 0 rapidjson::Writer<rapidjson::GenericStringBuffer<rapidjson::UTF8<char>,rapidjson::CrtAllocator>,rapidjson::UTF8<char>,rapidjson::MemoryPoolAllocator<rapidjson::CrtAllocator> >::WriteUint(unsigned int)
FUNC 128f0 e 0 WebsiteUtils::WebsiteUtils()
FUNC 12900 b 0 WebsiteUtils::~WebsiteUtils()
FUNC 12910 8e 0 WebsiteUtils::websiteUrl()
FUNC 129a0 15 0 ETState::createETState(ETState *,rapidjson::GenericDocument<rapidjson::UTF8<char>,rapidjson::MemoryPoolAllocator<rapidjson::CrtAllocator> > const *,int)
FUNC 129c0 86 0 ETState::ETState()
FUNC 12a50 11b 0 ETState::~ETState()
FUNC 12b70 11 0 ETState::getMaxVpnConnections()
FUNC 12b90 11 0 ETState::getCurrentVpnConnections()
FUNC 12bb0 11 0 ETState::getMaxETConnections()
FUNC 12bd0 11 0 ETState::getCurrentETConnections()
FUNC 12bf0 2e 0 ETState::isEntrepriseAccount()
FUNC 12c20 31 0 ETState::getVpnIp()
FUNC 12c60 31 0 ETState::getVpnStatus()
FUNC 12ca0 2e 0 ETState::getOtherMachines()
FUNC 12cd0 11 0 ETState::getLocalMachine()
FUNC 12cf0 14 0 ETState::getTimestamp()
FUNC 12d10 31 0 ETState::getStatusVersion()
FUNC 12d50 31 0 ETState::getMessages()
FUNC 12d90 6a 0 ETState::isNewer(ETState *)
FUNC 12e00 ea5 0 ETState::tryParseJson(rapidjson::GenericDocument<rapidjson::UTF8<char>,rapidjson::MemoryPoolAllocator<rapidjson::CrtAllocator> > const *,int)
FUNC 13cb0 34 0 std::_Copy_impl<Machine * *,Machine * *>(Machine * *,Machine * *,Machine * *)
FUNC 13cf0 35 0 std::_Copy_impl<Machine * *,Machine * *>(Machine * *,Machine * *,Machine * *,std::_Scalar_ptr_iterator_tag)
FUNC 13d30 5 0 std::_Destroy_range<std::_Wrap_alloc<std::allocator<Machine *> > >(Machine * *,Machine * *,std::_Wrap_alloc<std::allocator<Machine *> > &,std::_Scalar_ptr_iterator_tag)
FUNC 13d40 34 0 std::_Destroy_range<std::_Wrap_alloc<std::allocator<QString> > >(QString *,QString *,std::_Wrap_alloc<std::allocator<QString> > &)
FUNC 13d80 26 0 std::_Destroy_range<std::_Wrap_alloc<std::allocator<QString> > >(QString *,QString *,std::_Wrap_alloc<std::allocator<QString> > &,std::_Nonscalar_ptr_iterator_tag)
FUNC 13db0 b 0 std::_Ptr_cat<ServerMessage *,ServerMessage *>(ServerMessage * *,ServerMessage * *)
FUNC 13dc0 10 0 std::_Rechecked<Machine * *,Machine * *>(Machine * * &,Machine * *)
FUNC 13dd0 33 0 std::vector<Machine *,std::allocator<Machine *> >::_Ucopy<Machine * *>(Machine * *,Machine * *,Machine * *)
FUNC 13e10 33 0 std::vector<ServerMessage *,std::allocator<ServerMessage *> >::_Ucopy<std::_Vector_const_iterator<std::_Vector_val<std::_Simple_types<ServerMessage *> > > >(std::_Vector_const_iterator<std::_Vector_val<std::_Simple_types<ServerMessage *> > >,std::_Vector_const_iterator<std::_Vector_val<std::_Simple_types<ServerMessage *> > >,ServerMessage * *)
FUNC 13e50 33 0 std::vector<QString,std::allocator<QString> >::_Ucopy<std::_Vector_const_iterator<std::_Vector_val<std::_Simple_types<QString> > > >(std::_Vector_const_iterator<std::_Vector_val<std::_Simple_types<QString> > >,std::_Vector_const_iterator<std::_Vector_val<std::_Simple_types<QString> > >,QString *)
FUNC 13e90 33 0 std::vector<QString,std::allocator<QString> >::_Umove<QString *>(QString *,QString *,QString *)
FUNC 13ed0 d 0 std::_Unchecked<std::_Vector_val<std::_Simple_types<QString> > >(std::_Vector_const_iterator<std::_Vector_val<std::_Simple_types<QString> > >)
FUNC 13ee0 38 0 std::_Uninit_copy<Machine * const *,Machine * *,std::_Wrap_alloc<std::allocator<Machine *> > >(Machine * const *,Machine * const *,Machine * *,std::_Wrap_alloc<std::allocator<Machine *> > &)
FUNC 13f20 38 0 std::_Uninit_copy<QString const *,QString *,std::_Wrap_alloc<std::allocator<QString> > >(QString const *,QString const *,QString *,std::_Wrap_alloc<std::allocator<QString> > &)
FUNC 13f60 bc 0 std::_Uninit_copy<QString const *,QString *,std::allocator<QString> >(QString const *,QString const *,QString *,std::_Wrap_alloc<std::allocator<QString> > &,std::_Nonscalar_ptr_iterator_tag)
FUNC 14020 32 0 std::_Uninit_move<Machine *,Machine *,Machine *>(Machine * *,Machine * *,Machine * *,std::_Wrap_alloc<std::allocator<Machine *> > &,Machine * *,std::_Scalar_ptr_iterator_tag)
FUNC 14060 45 0 std::_Uninit_move<QString *,QString *,std::_Wrap_alloc<std::allocator<QString> > >(QString *,QString *,QString *,std::_Wrap_alloc<std::allocator<QString> > &)
FUNC 140b0 bc 0 std::_Uninit_move<QString *,QString *,std::allocator<QString>,QString>(QString *,QString *,QString *,std::_Wrap_alloc<std::allocator<QString> > &,QString *,std::_Nonscalar_ptr_iterator_tag)
FUNC 14170 47 0 std::_Uninitialized_copy<Machine * *,Machine * *,std::_Wrap_alloc<std::allocator<Machine *> > >(Machine * *,Machine * *,Machine * *,std::_Wrap_alloc<std::allocator<Machine *> > &)
FUNC 141c0 47 0 std::_Uninitialized_copy<std::_Vector_const_iterator<std::_Vector_val<std::_Simple_types<Machine *> > >,Machine * *,std::_Wrap_alloc<std::allocator<Machine *> > >(std::_Vector_const_iterator<std::_Vector_val<std::_Simple_types<Machine *> > >,std::_Vector_const_iterator<std::_Vector_val<std::_Simple_types<Machine *> > >,Machine * *,std::_Wrap_alloc<std::allocator<Machine *> > &)
FUNC 14210 47 0 std::_Uninitialized_copy<std::_Vector_const_iterator<std::_Vector_val<std::_Simple_types<QString> > >,QString *,std::_Wrap_alloc<std::allocator<QString> > >(std::_Vector_const_iterator<std::_Vector_val<std::_Simple_types<QString> > >,std::_Vector_const_iterator<std::_Vector_val<std::_Simple_types<QString> > >,QString *,std::_Wrap_alloc<std::allocator<QString> > &)
FUNC 14260 47 0 std::_Uninitialized_move<QString *,QString *,std::_Wrap_alloc<std::allocator<QString> > >(QString *,QString *,QString *,std::_Wrap_alloc<std::allocator<QString> > &)
FUNC 142b0 86 0 std::allocator<ServerMessage *>::construct<ServerMessage *,ServerMessage * &>(ServerMessage * *,ServerMessage * &)
FUNC 14340 1e 0 std::allocator_traits<std::allocator<ServerMessage *> >::construct<ServerMessage *,ServerMessage * &>(std::allocator<ServerMessage *> &,ServerMessage * *,ServerMessage * &)
FUNC 14360 1e 0 std::allocator_traits<std::allocator<Machine *> >::construct<Machine *,Machine * const &>(std::allocator<Machine *> &,Machine * *,Machine * const &)
FUNC 14380 2a 0 std::_Wrap_alloc<std::allocator<QString> >::construct<QString,QString const &>(QString *,QString const &)
FUNC 143b0 1e 0 std::allocator_traits<std::allocator<QString> >::construct<QString,QString const &>(std::allocator<QString> &,QString *,QString const &)
FUNC 143d0 2a 0 std::_Wrap_alloc<std::allocator<QString> >::construct<QString,QString>(QString *,QString &&)
FUNC 14400 85 0 std::allocator<QString>::construct<QString,QString>(QString *,QString &&)
FUNC 14490 1e 0 std::allocator_traits<std::allocator<QString> >::construct<QString,QString>(std::allocator<QString> &,QString *,QString &&)
FUNC 144b0 1d 0 std::_Wrap_alloc<std::allocator<QString> >::destroy<QString>(QString *)
FUNC 144d0 17 0 std::allocator<QString>::destroy<QString>(QString *)
FUNC 144f0 11 0 std::allocator_traits<std::allocator<QString> >::destroy<QString>(std::allocator<QString> &,QString *)
FUNC 14510 18 0 std::_Vector_alloc<0,std::_Vec_base_types<ServerMessage *,std::allocator<ServerMessage *> > >::_Vector_alloc<0,std::_Vec_base_types<ServerMessage *,std::allocator<ServerMessage *> > >(std::allocator<ServerMessage *> const &)
FUNC 14530 2b 0 std::_Vector_val<std::_Simple_types<Machine *> >::_Vector_val<std::_Simple_types<Machine *> >()
FUNC 14560 1c 0 std::_Wrap_alloc<std::allocator<Machine *> >::_Wrap_alloc<std::allocator<Machine *> >(std::allocator<Machine *> const &)
FUNC 14580 e 0 std::allocator<ServerMessage *>::allocator<ServerMessage *>()
FUNC 14590 10 0 std::allocator<QString>::allocator<QString>(std::allocator<QString> const &)
FUNC 145a0 e6 0 std::vector<ServerMessage *,std::allocator<ServerMessage *> >::vector<ServerMessage *,std::allocator<ServerMessage *> >(std::vector<ServerMessage *,std::allocator<ServerMessage *> > const &)
FUNC 14690 e6 0 std::vector<QString,std::allocator<QString> >::vector<QString,std::allocator<QString> >(std::vector<QString,std::allocator<QString> > const &)
FUNC 14780 13 0 std::vector<QString,std::allocator<QString> >::~vector<QString,std::allocator<QString> >()
FUNC 147a0 23d 0 std::vector<Machine *,std::allocator<Machine *> >::operator=(std::vector<Machine *,std::allocator<Machine *> > const &)
FUNC 149e0 6f 0 QString::operator=(QString::Null const &)
FUNC 14a50 9c 0 rapidjson::GenericValue<rapidjson::UTF8<char>,rapidjson::MemoryPoolAllocator<rapidjson::CrtAllocator> >::operator[](char const *)
FUNC 14af0 19 0 rapidjson::GenericValue<rapidjson::UTF8<char>,rapidjson::MemoryPoolAllocator<rapidjson::CrtAllocator> >::operator[](char const *)
FUNC 14b10 78 0 rapidjson::GenericValue<rapidjson::UTF8<char>,rapidjson::MemoryPoolAllocator<rapidjson::CrtAllocator> >::FindMember(char const *)
FUNC 14b90 19 0 rapidjson::GenericValue<rapidjson::UTF8<char>,rapidjson::MemoryPoolAllocator<rapidjson::CrtAllocator> >::FindMember(char const *)
FUNC 14bb0 13 0 rapidjson::GenericValue<rapidjson::UTF8<char>,rapidjson::MemoryPoolAllocator<rapidjson::CrtAllocator> >::GetUint64()
FUNC 14bd0 32 0 rapidjson::GenericValue<rapidjson::UTF8<char>,rapidjson::MemoryPoolAllocator<rapidjson::CrtAllocator> >::HasMember(char const *)
FUNC 14c10 2e 0 rapidjson::GenericValue<rapidjson::UTF8<char>,rapidjson::MemoryPoolAllocator<rapidjson::CrtAllocator> >::IsString()
FUNC 14c40 19 0 rapidjson::GenericValue<rapidjson::UTF8<char>,rapidjson::MemoryPoolAllocator<rapidjson::CrtAllocator> >::MemberEnd()
FUNC 14c60 89 0 std::vector<Machine *,std::allocator<Machine *> >::_Buy(unsigned int)
FUNC 14cf0 2f 0 std::vector<QString,std::allocator<QString> >::_Destroy(QString *,QString *)
FUNC 14d20 138 0 std::vector<QString,std::allocator<QString> >::_Reallocate(unsigned int)
FUNC 14e60 5a 0 std::vector<ServerMessage *,std::allocator<ServerMessage *> >::_Reserve(unsigned int)
FUNC 14ec0 5a 0 std::vector<QString,std::allocator<QString> >::_Reserve(unsigned int)
FUNC 14f20 78 0 std::vector<QString,std::allocator<QString> >::_Tidy()
FUNC 14fa0 1a 0 std::vector<Machine *,std::allocator<Machine *> >::_Unused_capacity()
FUNC 14fc0 22 0 std::vector<QString,std::allocator<QString> >::begin()
FUNC 14ff0 19 0 std::vector<Machine *,std::allocator<Machine *> >::capacity()
FUNC 15010 34 0 std::vector<Machine *,std::allocator<Machine *> >::clear()
FUNC 15050 3f 0 std::allocator<Machine *>::construct(Machine * *,Machine * const &)
FUNC 15090 7c 0 std::allocator<QString>::construct(QString *,QString const &)
FUNC 15110 23 0 std::vector<Machine *,std::allocator<Machine *> >::end()
FUNC 15140 d 0 std::allocator_traits<std::allocator<Machine *> >::max_size(std::allocator<Machine *> const &)
FUNC 15150 20 0 std::vector<ServerMessage *,std::allocator<ServerMessage *> >::max_size()
FUNC 15170 102 0 std::vector<ServerMessage *,std::allocator<ServerMessage *> >::push_back(ServerMessage * const &)
FUNC 15280 118 0 std::vector<QString,std::allocator<QString> >::push_back(QString &&)
FUNC 153a0 2b 0 std::_Wrap_alloc<std::allocator<ServerMessage *> >::select_on_container_copy_construction()
FUNC 153d0 1c 0 std::allocator<ServerMessage *>::select_on_container_copy_construction()
FUNC 153f0 14 0 std::allocator_traits<std::allocator<Machine *> >::select_on_container_copy_construction(std::allocator<Machine *> const &)
FUNC 15410 19 0 std::vector<QString,std::allocator<QString> >::size()
FUNC 15430 86 0 EventAggregator::getInstance()
FUNC 154c0 13 0 EventAggregator::raiseStateChangeEvent()
FUNC 154e0 13 0 EventAggregator::raiseAuthSucceededEvent()
FUNC 15500 19 0 EventAggregator::raiseAuthFailedEvent(int)
FUNC 15520 13 0 EventAggregator::raiseLogOffRequestedEvent()
FUNC 15540 1a 0 EventAggregator::raiseMainWinDisabledEvent(bool)
FUNC 15560 13 0 EventAggregator::raiseReconnectAllEvent()
FUNC 15580 13 0 EventAggregator::raiseSecondaryDialogs()
FUNC 155a0 69 0 EventAggregator::raiseUpdateAvailable(QString)
FUNC 15610 19 0 EventAggregator::raiseClientRemotelyDisconnected(int)
FUNC 15630 21 0 EventAggregator::EventAggregator()
FUNC 15660 2c 0 EventAggregator::`scalar deleting destructor'(unsigned int)
FUNC 15690 101 0 Machine::Machine(QString,QString,QString,int)
FUNC 157a0 31 0 Machine::getName()
FUNC 157e0 11 0 Machine::getVpnStatus()
FUNC 15800 11 0 Machine::getClientId()
FUNC 15820 31 0 Machine::getVirtualIp()
FUNC 15860 16 0 Machine::setRequestedStatus(int)
FUNC 15880 11 0 Machine::getRequestedStatus()
FUNC 158a0 37 0 Machine::isStable()
FUNC 158e0 20f 0 Machine::toString()
FUNC 15af0 19e 0 Machine::toVpnStatus(QString)
FUNC 15c90 65 0 Machine::~Machine()
FUNC 15d00 2c 0 Machine::`scalar deleting destructor'(unsigned int)
FUNC 15d30 a0 0 ServerMessage::ServerMessage(int,QString,std::vector<QString,std::allocator<QString> >)
FUNC 15dd0 21 0 ServerMessage::~ServerMessage()
FUNC 15e00 3e 0 ServerMessage::IsDisconnectionMessage()
FUNC 15e40 28 0 ServerMessage::IsFinalDeconnection()
FUNC 15e70 8a 0 ServerMessage::GetStringKey()
FUNC 15f00 31 0 ServerMessage::GetArgs()
FUNC 15f40 34 0 std::_Copy_impl<QString *,QString *>(QString *,QString *,QString *)
FUNC 15f80 32 0 std::_Copy_impl<QString *,QString *>(QString *,QString *,QString *,std::_Nonscalar_ptr_iterator_tag)
FUNC 15fc0 33 0 std::vector<QString,std::allocator<QString> >::_Ucopy<QString *>(QString *,QString *,QString *)
FUNC 16000 38 0 std::_Uninit_copy<QString *,QString *,std::_Wrap_alloc<std::allocator<QString> > >(QString *,QString *,QString *,std::_Wrap_alloc<std::allocator<QString> > &)
FUNC 16040 bc 0 std::_Uninit_copy<QString *,QString *,std::allocator<QString> >(QString *,QString *,QString *,std::_Wrap_alloc<std::allocator<QString> > &,std::_Nonscalar_ptr_iterator_tag)
FUNC 16100 47 0 std::_Uninitialized_copy<QString *,QString *,std::_Wrap_alloc<std::allocator<QString> > >(QString *,QString *,QString *,std::_Wrap_alloc<std::allocator<QString> > &)
FUNC 16150 2a 0 std::_Wrap_alloc<std::allocator<QString> >::construct<QString,QString &>(QString *,QString &)
FUNC 16180 85 0 std::allocator<QString>::construct<QString,QString &>(QString *,QString &)
FUNC 16210 1e 0 std::allocator_traits<std::allocator<QString> >::construct<QString,QString &>(std::allocator<QString> &,QString *,QString &)
FUNC 16230 23d 0 std::vector<QString,std::allocator<QString> >::operator=(std::vector<QString,std::allocator<QString> > const &)
FUNC 16470 34 0 std::vector<QString,std::allocator<QString> >::clear()
FUNC 164b0 2d 0 std::vector<QString,std::allocator<QString> >::empty()
FUNC 164e0 3f 0 EventAggregator::metaObject()
FUNC 16520 3d 0 EventAggregator::qt_metacast(char const *)
FUNC 16560 8a 0 EventAggregator::qt_metacall(QMetaObject::Call,int,void * *)
FUNC 165f0 1ec 0 EventAggregator::qt_static_metacall(QObject *,QMetaObject::Call,int,void * *)
FUNC 167e0 20 0 EventAggregator::sig_stateChangedEvent()
FUNC 16800 20 0 EventAggregator::sig_authSucceededEvent()
FUNC 16820 33 0 EventAggregator::sig_authFailedEvent(int)
FUNC 16860 20 0 EventAggregator::sig_logOffRequestedEvent()
FUNC 16880 33 0 EventAggregator::sig_mainWinDisabledEvent(bool)
FUNC 168c0 20 0 EventAggregator::sig_raiseDialogs()
FUNC 168e0 73 0 EventAggregator::sig_updateAvailable(QString)
FUNC 16960 20 0 EventAggregator::sig_reconnectAllEvent()
FUNC 16980 33 0 EventAggregator::sig_clientRemotelyDisconnected(int)
FUNC 169c0 3f 0 Machine::metaObject()
FUNC 16a00 3d 0 Machine::qt_metacast(char const *)
FUNC 16a40 32 0 Machine::qt_metacall(QMetaObject::Call,int,void * *)
FUNC 16a80 5 0 Machine::qt_static_metacall(QObject *,QMetaObject::Call,int,void * *)
PUBLIC 16a90 0 QWeakPointer<QObject>::assign<QObject>(QObject *)
PUBLIC 16b00 0 QLatin1String::QLatin1String(char const *)
PUBLIC 16b40 0 QGenericEnginePlugin::`vector deleting destructor'(unsigned int)
PUBLIC 16b70 0 QGenericEnginePlugin::create(QString const &)
PUBLIC 16bb0 0 QGenericEnginePlugin::metaObject()
PUBLIC 16bd0 0 QGenericEnginePlugin::qt_metacast(char const *)
PUBLIC 16ce0 0 qt_static_plugin_QGenericEnginePlugin()
PUBLIC 16cf0 0 QGenericEngine::QGenericEngine(QObject *)
PUBLIC 16d30 0 QNetworkConfigurationPrivate::QNetworkConfigurationPrivate()
PUBLIC 16d90 0 QNetworkSessionPrivateImpl::QNetworkSessionPrivateImpl()
PUBLIC 16e10 0 QList<QNetworkAddressEntry>::~QList<QNetworkAddressEntry>()
PUBLIC 16e70 0 QList<QNetworkInterface>::~QList<QNetworkInterface>()
PUBLIC 16ed0 0 QGenericEngine::~QGenericEngine()
PUBLIC 16f30 0 QMutexLocker::~QMutexLocker()
PUBLIC 16f50 0 QNetworkConfigurationPrivate::~QNetworkConfigurationPrivate()
PUBLIC 17040 0 operator!=(QString const &,QString const &)
PUBLIC 17060 0 QBearerEngineImpl::`vector deleting destructor'(unsigned int)
PUBLIC 17090 0 QGenericEngine::`vector deleting destructor'(unsigned int)
PUBLIC 170b0 0 QNetworkConfigurationPrivate::`vector deleting destructor'(unsigned int)
PUBLIC 170d0 0 QNetworkSessionPrivate::`vector deleting destructor'(unsigned int)
PUBLIC 17120 0 QList<QString>::append(QString const &)
PUBLIC 17190 0 QBearerEngineImpl::bytesReceived(QString const &)
PUBLIC 171a0 0 QGenericEngine::capabilities()
PUBLIC 171b0 0 QGenericEngine::connectToId(QString const &)
PUBLIC 171c0 0 QMapNode<QByteArray,QByteArray>::copy(QMapData<QByteArray,QByteArray> *)
PUBLIC 17280 0 QHash<QString,QExplicitlySharedDataPointer<QNetworkConfigurationPrivate> >::createNode(unsigned int,QString const &,QExplicitlySharedDataPointer<QNetworkConfigurationPrivate> const &,QHashNode<QString,QExplicitlySharedDataPointer<QNetworkConfigurationPrivate> > * *)
PUBLIC 17300 0 QMapData<QByteArray,QByteArray>::createNode(QByteArray const &,QByteArray const &,QMapNode<QByteArray,QByteArray> *,bool)
PUBLIC 17360 0 QGenericEngine::createSessionBackend()
PUBLIC 17380 0 QGenericEngine::defaultConfiguration()
PUBLIC 17390 0 QHash<QString,QExplicitlySharedDataPointer<QNetworkConfigurationPrivate> >::deleteNode2(QHashData::Node *)
PUBLIC 173f0 0 QHash<QString,QExplicitlySharedDataPointer<QNetworkConfigurationPrivate> >::deleteNode(QHashNode<QString,QExplicitlySharedDataPointer<QNetworkConfigurationPrivate> > *)
PUBLIC 17460 0 QMapNode<unsigned int,QExplicitlySharedDataPointer<QNetworkConfigurationPrivate> >::destroySubTree()
PUBLIC 174a0 0 QMapNode<QString,QString>::destroySubTree()
PUBLIC 17510 0 QHash<QString,QExplicitlySharedDataPointer<QNetworkConfigurationPrivate> >::detach()
PUBLIC 17570 0 QList<QNetworkInterface>::detach_helper(int)
PUBLIC 17610 0 QMap<QString,QString>::detach_helper()
PUBLIC 17690 0 QList<QString>::detach_helper_grow(int,int)
PUBLIC 17760 0 QGenericEngine::doRequestUpdate()
PUBLIC 181c0 0 QHash<QString,QExplicitlySharedDataPointer<QNetworkConfigurationPrivate> >::duplicateNode(QHashData::Node *,void *)
PUBLIC 18210 0 QList<QString>::erase(QList<QString>::iterator)
PUBLIC 182b0 0 QList<QString>::first()
PUBLIC 182e0 0 QString::fromLatin1(char const *,int)
PUBLIC 18320 0 QGenericEngine::getInterfaceFromId(QString const &)
PUBLIC 183f0 0 QGenericEngine::hasIdentifier(QString const &)
PUBLIC 18460 0 QHashData::hasShrunk()
PUBLIC 184b0 0 QList<QString>::indexOf(QString const &,int)
PUBLIC 18550 0 QHash<QString,QExplicitlySharedDataPointer<QNetworkConfigurationPrivate> >::insert(QString const &,QExplicitlySharedDataPointer<QNetworkConfigurationPrivate> const &)
PUBLIC 18650 0 QMap<QString,QString>::insert(QString const &,QString const &)
PUBLIC 18710 0 QHash<QString,QExplicitlySharedDataPointer<QNetworkConfigurationPrivate> >::keys()
PUBLIC 18800 0 QMapNode<QString,QLibraryPrivate *>::lowerBound(QString const &)
PUBLIC 18840 0 QList<QNetworkCookie>::node_copy(QList<QNetworkCookie>::Node *,QList<QNetworkCookie>::Node *,QList<QNetworkCookie>::Node *)
PUBLIC 18880 0 QList<QNetworkAddressEntry>::node_destruct(QList<QNetworkAddressEntry>::Node *,QList<QNetworkAddressEntry>::Node *)
PUBLIC 188b0 0 QList<QNetworkInterface>::node_destruct(QList<QNetworkInterface>::Node *,QList<QNetworkInterface>::Node *)
PUBLIC 18a70 0 QMap<QString,QString>::remove(QString const &)
PUBLIC 18b60 0 QList<QString>::removeAll(QString const &)
PUBLIC 18c90 0 QGenericEngine::initialize()
PUBLIC 18ca0 0 QGenericEngine::sessionStateForId(QString const &)
PUBLIC 18d70 0 QHash<QString,QExplicitlySharedDataPointer<QNetworkConfigurationPrivate> >::take(QString const &)
PUBLIC 18e50 0 QHash<QString,QExplicitlySharedDataPointer<QNetworkConfigurationPrivate> >::value(QString const &)
PUBLIC 18ef0 0 QBearerEngineImpl::qt_static_metacall(QObject *,QMetaObject::Call,int,void * *)
PUBLIC 18fd0 0 QBearerEngineImpl::connectionError(QString const &,QBearerEngineImpl::ConnectionError)
PUBLIC 19020 0 QBearerEngineImpl::metaObject()
PUBLIC 19040 0 QBearerEngineImpl::qt_metacall(QMetaObject::Call,int,void * *)
PUBLIC 190a0 0 QBearerEngineImpl::qt_metacast(char const *)
PUBLIC 19100 0 QMetaTypeId<QBearerEngineImpl::ConnectionError>::qt_metatype_id()
PUBLIC 19190 0 QGenericEngine::qt_static_metacall(QObject *,QMetaObject::Call,int,void * *)
PUBLIC 191d0 0 QGenericEngine::metaObject()
PUBLIC 191f0 0 QGenericEngine::qt_metacall(QMetaObject::Call,int,void * *)
PUBLIC 19280 0 QGenericEngine::qt_metacast(char const *)
PUBLIC 192e0 0 QNetworkSessionPrivateImpl::qt_static_metacall(QObject *,QMetaObject::Call,int,void * *)
PUBLIC 193e0 0 QtMetaTypePrivate::QMetaTypeFunctionHelper<QExplicitlySharedDataPointer<QNetworkConfigurationPrivate>,1>::Construct(void *,void const *)
PUBLIC 19420 0 QtMetaTypePrivate::QMetaTypeFunctionHelper<QNetworkConfiguration,1>::Construct(void *,void const *)
PUBLIC 19450 0 QtMetaTypePrivate::QMetaTypeFunctionHelper<QExplicitlySharedDataPointer<QNetworkConfigurationPrivate>,1>::Create(void const *)
PUBLIC 194a0 0 QtMetaTypePrivate::QMetaTypeFunctionHelper<QNetworkConfiguration,1>::Create(void const *)
PUBLIC 194d0 0 QtMetaTypePrivate::QMetaTypeFunctionHelper<QExplicitlySharedDataPointer<QNetworkConfigurationPrivate>,1>::Delete(void *)
PUBLIC 19510 0 QtMetaTypePrivate::QMetaTypeFunctionHelper<QNetworkConfiguration,1>::Delete(void *)
PUBLIC 19530 0 QtMetaTypePrivate::QMetaTypeFunctionHelper<QExplicitlySharedDataPointer<QNetworkConfigurationPrivate>,1>::Destruct(void *)
PUBLIC 19560 0 QtMetaTypePrivate::QMetaTypeFunctionHelper<QNetworkConfiguration,1>::Destruct(void *)
PUBLIC 19570 0 QNetworkSessionPrivateImpl::metaObject()
PUBLIC 19590 0 QNetworkSessionPrivateImpl::qt_metacall(QMetaObject::Call,int,void * *)
PUBLIC 195e0 0 QNetworkSessionPrivateImpl::qt_metacast(char const *)
PUBLIC 19640 0 QMetaTypeId<QExplicitlySharedDataPointer<QNetworkConfigurationPrivate> >::qt_metatype_id()
PUBLIC 196d0 0 QMetaTypeId<QNetworkConfiguration>::qt_metatype_id()
PUBLIC 19760 0 QNetworkSessionManagerPrivate::qt_static_metacall(QObject *,QMetaObject::Call,int,void * *)
PUBLIC 19800 0 QForeachContainer<QList<QNetworkConfiguration> >::QForeachContainer<QList<QNetworkConfiguration> >(QList<QNetworkConfiguration> const &)
PUBLIC 19880 0 QList<QBearerEngine *>::QList<QBearerEngine *>(QList<QBearerEngine *> const &)
PUBLIC 19900 0 QList<QNetworkConfiguration>::~QList<QNetworkConfiguration>()
PUBLIC 19960 0 QNetworkSessionManagerPrivate::`vector deleting destructor'(unsigned int)
PUBLIC 19990 0 QNetworkSessionPrivateImpl::activeTime()
PUBLIC 199e0 0 QNetworkSessionPrivateImpl::bytesReceived()
PUBLIC 19a50 0 QNetworkSessionPrivateImpl::bytesWritten()
PUBLIC 19ac0 0 QNetworkSessionPrivateImpl::close()
PUBLIC 19b00 0 QNetworkSessionPrivateImpl::configurationChanged(QExplicitlySharedDataPointer<QNetworkConfigurationPrivate>)
PUBLIC 19c70 0 QNetworkSessionPrivateImpl::connectionError(QString const &,QBearerEngineImpl::ConnectionError)
PUBLIC 19d00 0 QNetworkSessionPrivateImpl::currentInterface()
PUBLIC 19de0 0 QNetworkSessionPrivateImpl::decrementTimeout()
PUBLIC 19e20 0 QNetworkSessionPrivateImpl::error()
PUBLIC 19e30 0 QNetworkSessionPrivateImpl::errorString()
PUBLIC 19f00 0 QNetworkSessionManagerPrivate::forcedSessionClose(QNetworkConfiguration const &)
PUBLIC 19f30 0 QNetworkSessionPrivateImpl::forcedSessionClose(QNetworkConfiguration const &)
PUBLIC 1a0a0 0 `anonymous namespace'::Q_QGS_sessionManager::innerFunction()
PUBLIC 1a140 0 QNetworkSessionManagerPrivate::metaObject()
PUBLIC 1a160 0 QNetworkSessionPrivateImpl::networkConfigurationsChanged()
PUBLIC 1a1e0 0 QList<QNetworkConfiguration>::node_copy(QList<QNetworkConfiguration>::Node *,QList<QNetworkConfiguration>::Node *,QList<QNetworkConfiguration>::Node *)
PUBLIC 1a220 0 QList<QNetworkConfiguration>::node_destruct(QList<QNetworkConfiguration>::Node *,QList<QNetworkConfiguration>::Node *)
PUBLIC 1a250 0 QNetworkSessionPrivateImpl::open()
PUBLIC 1a350 0 QNetworkSessionManagerPrivate::qt_metacall(QMetaObject::Call,int,void * *)
PUBLIC 1a3b0 0 QNetworkSessionManagerPrivate::qt_metacast(char const *)
PUBLIC 1a410 0 QNetworkSessionPrivateImpl::sessionProperty(QString const &)
PUBLIC 1a4a0 0 QNetworkSessionPrivateImpl::setSessionProperty(QString const &,QVariant const &)
PUBLIC 1a560 0 QNetworkSessionPrivateImpl::setUsagePolicies(QFlags<QNetworkSession::UsagePolicy>)
PUBLIC 1a580 0 QNetworkSessionPrivateImpl::stop()
PUBLIC 1a670 0 QNetworkSessionPrivateImpl::syncStateWithInterface()
PUBLIC 1a7b0 0 QNetworkSessionPrivateImpl::updateStateFromActiveConfig()
PUBLIC 1a850 0 QNetworkSessionPrivateImpl::updateStateFromServiceNetwork()
PUBLIC 1aaf0 0 QNetworkSessionPrivateImpl::usagePolicies()
PUBLIC 1ab00 0 QNativeWifiEnginePlugin::`vector deleting destructor'(unsigned int)
PUBLIC 1ab30 0 QNativeWifiEnginePlugin::create(QString const &)
PUBLIC 1aba0 0 QNativeWifiEnginePlugin::metaObject()
PUBLIC 1abc0 0 QGenericEnginePlugin::qt_metacall(QMetaObject::Call,int,void * *)
PUBLIC 1abd0 0 QNativeWifiEnginePlugin::qt_metacast(char const *)
PUBLIC 1ace0 0 qt_static_plugin_QNativeWifiEnginePlugin()
PUBLIC 1b0a0 0 QNativeWifiEngine::QNativeWifiEngine(QObject *)
PUBLIC 1b0f0 0 QNativeWifiEngine::`vector deleting destructor'(unsigned int)
PUBLIC 1b140 0 QString::arg(int,int,int,QChar)
PUBLIC 1b170 0 QNativeWifiEngine::available()
PUBLIC 1b1d0 0 QNativeWifiEngine::capabilities()
PUBLIC 1b1e0 0 QString::clear()
PUBLIC 1b220 0 QNativeWifiEngine::closeHandle()
PUBLIC 1b240 0 QNativeWifiEngine::connectToId(QString const &)
PUBLIC 1b690 0 QNativeWifiEngine::disconnectFromId(QString const &)
PUBLIC 1ba10 0 QNativeWifiEngine::getInterfaceFromId(QString const &)
PUBLIC 1be30 0 QNativeWifiEngine::hasIdentifier(QString const &)
PUBLIC 1c210 0 QNativeWifiEngine::initialize()
PUBLIC 1c220 0 QMetaObject::invokeMethod(QObject *,char const *,Qt::ConnectionType,QGenericArgument,QGenericArgument,QGenericArgument,QGenericArgument,QGenericArgument,QGenericArgument,QGenericArgument,QGenericArgument,QGenericArgument,QGenericArgument)
PUBLIC 1c290 0 qNotificationCallback(WLAN_NOTIFICATION_DATA *,QNativeWifiEngine *)
PUBLIC 1c310 0 QNativeWifiEngine::requestUpdate()
PUBLIC 1c420 0 QNativeWifiEngine::scanComplete()
PUBLIC 1cdd0 0 QNativeWifiEngine::sessionStateForId(QString const &)
PUBLIC 1ce80 0 QNativeWifiEngine::qt_static_metacall(QObject *,QMetaObject::Call,int,void * *)
PUBLIC 1ced0 0 QNativeWifiEngine::metaObject()
PUBLIC 1cef0 0 QNativeWifiEngine::qt_metacall(QMetaObject::Call,int,void * *)
PUBLIC 1cf50 0 QNativeWifiEngine::qt_metacast(char const *)
PUBLIC 1cfb0 0 QNetworkAccessManager::qt_static_metacall(QObject *,QMetaObject::Call,int,void * *)
PUBLIC 1d1f0 0 QtMetaTypePrivate::QSequentialIterableImpl::QSequentialIterableImpl<QList<QPair<QByteArray,QByteArray> > >(QList<QPair<QByteArray,QByteArray> > const *)
PUBLIC 1d260 0 QtMetaTypePrivate::QSequentialIterableImpl::QSequentialIterableImpl<QList<QNetworkCookie> >(QList<QNetworkCookie> const *)
PUBLIC 1d2d0 0 QtMetaTypePrivate::QSequentialIterableImpl::atImpl<QList<QPair<QByteArray,QByteArray> > >(void const *,int)
PUBLIC 1d2f0 0 QtMetaTypePrivate::QSequentialIterableImpl::atImpl<QList<QNetworkCookie> >(void const *,int)
PUBLIC 1d310 0 QSharedPointer<QNetworkAccessAuthenticationManager>::create<>()
PUBLIC 1d370 0 QVariant::fromValue<QList<QNetworkCookie> >(QList<QNetworkCookie> const &)
PUBLIC 1d390 0 QtMetaTypePrivate::QSequentialIterableImpl::getImpl<QList<QPair<QByteArray,QByteArray> > >(void * const *,int,unsigned int)
PUBLIC 1d3b0 0 QtMetaTypePrivate::QSequentialIterableImpl::getImpl<QList<QNetworkCookie> >(void * const *,int,unsigned int)
PUBLIC 1d3d0 0 QtMetaTypePrivate::QPairVariantInterfaceImpl::getSecondImpl<QPair<QByteArray,QByteArray> >(void const * const *,int,unsigned int)
PUBLIC 1d3f0 0 QtMetaTypePrivate::QSequentialIterableImpl::moveToBeginImpl<QList<QPair<QByteArray,QByteArray> > >(void const *,void * *)
PUBLIC 1d430 0 QtMetaTypePrivate::QSequentialIterableImpl::moveToEndImpl<QList<QPair<QByteArray,QByteArray> > >(void const *,void * *)
PUBLIC 1d470 0 qDeleteAll<QList<QBearerEngine *>::const_iterator>(QList<QBearerEngine *>::const_iterator,QList<QBearerEngine *>::const_iterator)
PUBLIC 1d4b0 0 qMetaTypeId<QtMetaTypePrivate::QSequentialIterableImpl>()
PUBLIC 1d4c0 0 qRegisterMetaType<QtMetaTypePrivate::QPairVariantInterfaceImpl>(char const *,QtMetaTypePrivate::QPairVariantInterfaceImpl *,QtPrivate::MetaTypeDefinedHelper<QtMetaTypePrivate::QPairVariantInterfaceImpl,1>::DefinedType)
PUBLIC 1d570 0 qRegisterMetaType<QtMetaTypePrivate::QSequentialIterableImpl>(char const *,QtMetaTypePrivate::QSequentialIterableImpl *,QtPrivate::MetaTypeDefinedHelper<QtMetaTypePrivate::QSequentialIterableImpl,1>::DefinedType)
PUBLIC 1d620 0 QtMetaTypePrivate::QSequentialIterableImpl::sizeImpl<QList<QPair<QByteArray,QByteArray> > >(void const *)
PUBLIC 1d630 0 QList<QPair<QByteArray,QByteArray> >::QList<QPair<QByteArray,QByteArray> >(QList<QPair<QByteArray,QByteArray> > const &)
PUBLIC 1d6a0 0 QList<QNetworkCookie>::QList<QNetworkCookie>(QList<QNetworkCookie> const &)
PUBLIC 1d710 0 QList<QSslError>::QList<QSslError>(QList<QSslError> const &)
PUBLIC 1d780 0 QSharedPointer<char>::QSharedPointer<char>(QSharedPointer<char> const &)
PUBLIC 1d7c0 0 QByteArray::QByteArray(QByteArray const &)
PUBLIC 1d7f0 0 QNetworkAccessManager::QNetworkAccessManager(QObject *)
PUBLIC 1d8c0 0 QNetworkAccessManagerPrivate::QNetworkAccessManagerPrivate()
PUBLIC 1d990 0 QtMetaTypePrivate::QSequentialIterableImpl::QSequentialIterableImpl()
PUBLIC 1da00 0 QStringList::QStringList(QStringList const &)
PUBLIC 1da70 0 QList<QPair<QByteArray,QByteArray> >::~QList<QPair<QByteArray,QByteArray> >()
PUBLIC 1dac0 0 QForeachContainer<QList<QByteArray> >::~QForeachContainer<QList<QByteArray> >()
PUBLIC 1db10 0 QList<QNetworkCookie>::~QList<QNetworkCookie>()
PUBLIC 1db70 0 QList<QNetworkProxy>::~QList<QNetworkProxy>()
PUBLIC 1dbd0 0 QList<QSslError>::~QList<QSslError>()
PUBLIC 1dc30 0 QPair<QByteArray,QByteArray>::~QPair<QByteArray,QByteArray>()
PUBLIC 1dc90 0 QSharedPointer<char>::~QSharedPointer<char>()
PUBLIC 1dcd0 0 QNetworkAccessManager::~QNetworkAccessManager()
PUBLIC 1ddb0 0 QNetworkAccessManagerPrivate::~QNetworkAccessManagerPrivate()
PUBLIC 1ded0 0 QNetworkAuthenticationCredential::~QNetworkAuthenticationCredential()
PUBLIC 1df60 0 QList<QNetworkProxy>::operator<<(QNetworkProxy const &)
PUBLIC 1dfc0 0 operator==(QByteArray const &,QByteArray const &)
PUBLIC 1e040 0 QNetworkAccessBackendFactory::`vector deleting destructor'(unsigned int)
PUBLIC 1e060 0 QNetworkAccessManager::`vector deleting destructor'(unsigned int)
PUBLIC 1e080 0 QNetworkAccessManagerPrivate::`vector deleting destructor'(unsigned int)
PUBLIC 1e0a0 0 QtMetaTypePrivate::QMetaTypeFunctionHelper<QPair<QByteArray,QByteArray>,1>::Construct(void *,void const *)
PUBLIC 1e110 0 QtMetaTypePrivate::QMetaTypeFunctionHelper<QList<QPair<QByteArray,QByteArray> >,1>::Construct(void *,void const *)
PUBLIC 1e140 0 QtMetaTypePrivate::QMetaTypeFunctionHelper<QList<QNetworkCookie>,1>::Construct(void *,void const *)
PUBLIC 1e170 0 QtMetaTypePrivate::QMetaTypeFunctionHelper<QList<QSslError>,1>::Construct(void *,void const *)
PUBLIC 1e1a0 0 QtMetaTypePrivate::QMetaTypeFunctionHelper<QSharedPointer<char>,1>::Construct(void *,void const *)
PUBLIC 1e200 0 QtMetaTypePrivate::QMetaTypeFunctionHelper<QHttpNetworkRequest,1>::Construct(void *,void const *)
PUBLIC 1e270 0 QtMetaTypePrivate::QMetaTypeFunctionHelper<QNetworkCookie,1>::Construct(void *,void const *)
PUBLIC 1e340 0 QtMetaTypePrivate::QMetaTypeFunctionHelper<QNetworkProxy,1>::Construct(void *,void const *)
PUBLIC 1e370 0 QtMetaTypePrivate::QMetaTypeFunctionHelper<QtMetaTypePrivate::QPairVariantInterfaceImpl,1>::Construct(void *,void const *)
PUBLIC 1e3c0 0 QtMetaTypePrivate::QMetaTypeFunctionHelper<QtMetaTypePrivate::QSequentialIterableImpl,1>::Construct(void *,void const *)
PUBLIC 1e410 0 QtMetaTypePrivate::QMetaTypeFunctionHelper<QSslConfiguration,1>::Construct(void *,void const *)
PUBLIC 1e440 0 QtMetaTypePrivate::QMetaTypeFunctionHelper<QPair<QByteArray,QByteArray>,1>::Create(void const *)
PUBLIC 1e4b0 0 QtMetaTypePrivate::QMetaTypeFunctionHelper<QList<QPair<QByteArray,QByteArray> >,1>::Create(void const *)
PUBLIC 1e4e0 0 QtMetaTypePrivate::QMetaTypeFunctionHelper<QList<QNetworkCookie>,1>::Create(void const *)
PUBLIC 1e510 0 QtMetaTypePrivate::QMetaTypeFunctionHelper<QList<QSslError>,1>::Create(void const *)
PUBLIC 1e540 0 QtMetaTypePrivate::QMetaTypeFunctionHelper<QSharedPointer<char>,1>::Create(void const *)
PUBLIC 1e5a0 0 QtMetaTypePrivate::QMetaTypeFunctionHelper<QHttpNetworkRequest,1>::Create(void const *)
PUBLIC 1e610 0 QtMetaTypePrivate::QMetaTypeFunctionHelper<QNetworkCookie,1>::Create(void const *)
PUBLIC 1e6f0 0 QtMetaTypePrivate::QMetaTypeFunctionHelper<QNetworkProxy,1>::Create(void const *)
PUBLIC 1e720 0 QtMetaTypePrivate::QMetaTypeFunctionHelper<QtMetaTypePrivate::QPairVariantInterfaceImpl,1>::Create(void const *)
PUBLIC 1e770 0 QtMetaTypePrivate::QMetaTypeFunctionHelper<QtMetaTypePrivate::QSequentialIterableImpl,1>::Create(void const *)
PUBLIC 1e7c0 0 QtMetaTypePrivate::QMetaTypeFunctionHelper<QSslConfiguration,1>::Create(void const *)
PUBLIC 1e7f0 0 QtMetaTypePrivate::QMetaTypeFunctionHelper<QPair<QByteArray,QByteArray>,1>::Delete(void *)
PUBLIC 1e810 0 QtMetaTypePrivate::QMetaTypeFunctionHelper<QList<QPair<QByteArray,QByteArray> >,1>::Delete(void *)
PUBLIC 1e870 0 QtMetaTypePrivate::QMetaTypeFunctionHelper<QList<QNetworkCookie>,1>::Delete(void *)
PUBLIC 1e890 0 QtMetaTypePrivate::QMetaTypeFunctionHelper<QList<QSslError>,1>::Delete(void *)
PUBLIC 1e8b0 0 QtMetaTypePrivate::QMetaTypeFunctionHelper<QHttpNetworkRequest,1>::Delete(void *)
PUBLIC 1e8c0 0 QtMetaTypePrivate::QMetaTypeFunctionHelper<QNetworkCookie,1>::Delete(void *)
PUBLIC 1e8e0 0 QtMetaTypePrivate::QMetaTypeFunctionHelper<QNetworkProxy,1>::Delete(void *)
PUBLIC 1e900 0 QtMetaTypePrivate::QMetaTypeFunctionHelper<QSslConfiguration,1>::Delete(void *)
PUBLIC 1e920 0 QtMetaTypePrivate::QMetaTypeFunctionHelper<QPair<QByteArray,QByteArray>,1>::Destruct(void *)
PUBLIC 1e930 0 QtMetaTypePrivate::QMetaTypeFunctionHelper<QList<QPair<QByteArray,QByteArray> >,1>::Destruct(void *)
PUBLIC 1e980 0 QtMetaTypePrivate::QMetaTypeFunctionHelper<QList<QNetworkCookie>,1>::Destruct(void *)
PUBLIC 1e990 0 QtMetaTypePrivate::QMetaTypeFunctionHelper<QList<QSslError>,1>::Destruct(void *)
PUBLIC 1e9a0 0 QtMetaTypePrivate::QMetaTypeFunctionHelper<QHttpNetworkRequest,1>::Destruct(void *)
PUBLIC 1e9b0 0 QtMetaTypePrivate::QMetaTypeFunctionHelper<QNetworkCookie,1>::Destruct(void *)
PUBLIC 1e9c0 0 QtMetaTypePrivate::QMetaTypeFunctionHelper<QNetworkProxy,1>::Destruct(void *)
PUBLIC 1e9d0 0 QtMetaTypePrivate::QMetaTypeFunctionHelper<QSslConfiguration,1>::Destruct(void *)
PUBLIC 1e9e0 0 QNetworkAccessManagerPrivate::_q_networkSessionClosed()
PUBLIC 1eb40 0 QNetworkAccessManagerPrivate::_q_networkSessionStateChanged(QNetworkSession::State)
PUBLIC 1ebe0 0 QNetworkAccessManagerPrivate::_q_onlineStateChanged(bool)
PUBLIC 1ec40 0 QNetworkAccessManagerPrivate::_q_replyEncrypted()
PUBLIC 1ec90 0 QNetworkAccessManagerPrivate::_q_replyFinished()
PUBLIC 1ed00 0 QNetworkAccessManagerPrivate::_q_replySslErrors(QList<QSslError> const &)
PUBLIC 1ed70 0 QtMetaTypePrivate::IteratorOwnerCommon<QList<QPair<QByteArray,QByteArray> >::const_iterator>::advance(void * *,int)
PUBLIC 1ed80 0 QtMetaTypePrivate::IteratorOwnerCommon<QList<QPair<QByteArray,QByteArray> >::const_iterator>::assign(void * *,void * const *)
PUBLIC 1edb0 0 QNetworkAccessManager::authenticationRequired(QNetworkReply *,QAuthenticator *)
PUBLIC 1ee10 0 QNetworkAccessManagerPrivate::authenticationRequired(QAuthenticator *,QNetworkReply *,bool,QUrl &,QUrl *,bool)
PUBLIC 1f0f0 0 QWeakPointer<QNetworkSession>::clear()
PUBLIC 1f120 0 QObject::connect(QObject const *,char const *,char const *,Qt::ConnectionType)
PUBLIC 1f150 0 QList<QByteArray>::contains(QByteArray const &)
PUBLIC 1f1f0 0 QtPrivate::ConverterFunctor<QPair<QByteArray,QByteArray>,QtMetaTypePrivate::QPairVariantInterfaceImpl,QtMetaTypePrivate::QPairVariantInterfaceConvertFunctor<QPair<QByteArray,QByteArray> > >::convert(QtPrivate::AbstractConverterFunction const *,void const *,void *)
PUBLIC 1f250 0 QtPrivate::ConverterFunctor<QList<QPair<QByteArray,QByteArray> >,QtMetaTypePrivate::QSequentialIterableImpl,QtMetaTypePrivate::QSequentialIterableConvertFunctor<QList<QPair<QByteArray,QByteArray> > > >::convert(QtPrivate::AbstractConverterFunction const *,void const *,void *)
PUBLIC 1f2a0 0 QtPrivate::ConverterFunctor<QList<QNetworkCookie>,QtMetaTypePrivate::QSequentialIterableImpl,QtMetaTypePrivate::QSequentialIterableConvertFunctor<QList<QNetworkCookie> > >::convert(QtPrivate::AbstractConverterFunction const *,void const *,void *)
PUBLIC 1f2f0 0 QNetworkAccessManager::cookieJar()
PUBLIC 1f340 0 QNetworkAccessManager::createRequest(QNetworkAccessManager::Operation,QNetworkRequest const &,QIODevice *)
PUBLIC 1f9d0 0 QNetworkAccessManagerPrivate::createSession(QNetworkConfiguration const &)
PUBLIC 1fce0 0 QByteArray::data()
PUBLIC 1fd20 0 QtSharedPointer::ExternalRefCountWithContiguousData<QNetworkAccessAuthenticationManager>::deleter(QtSharedPointer::ExternalRefCountData *)
PUBLIC 1fd40 0 QtMetaTypePrivate::IteratorOwnerCommon<QList<QPair<QByteArray,QByteArray> >::const_iterator>::destroy(void * *)
PUBLIC 1fd50 0 QList<QNetworkProxy>::detach_helper_grow(int,int)
PUBLIC 1fe60 0 QNetworkAccessManager::encrypted(QNetworkReply *)
PUBLIC 1fe90 0 QtMetaTypePrivate::IteratorOwnerCommon<QList<QPair<QByteArray,QByteArray> >::const_iterator>::equal(void * const *,void * const *)
PUBLIC 1feb0 0 QNetworkAccessManager::finished(QNetworkReply *)
PUBLIC 1fee0 0 QNetworkAccessManagerPrivate::getNetworkSession()
PUBLIC 1ff40 0 `anonymous namespace'::Q_QGS_fileBackend::innerFunction()
PUBLIC 1ffe0 0 `anonymous namespace'::Q_QGS_ftpBackend::innerFunction()
PUBLIC 20080 0 QSharedPointer<QNetworkSession>::internalSet(QtSharedPointer::ExternalRefCountData *,QNetworkSession *)
PUBLIC 20120 0 QNetworkAccessManager::metaObject()
PUBLIC 20140 0 QNetworkAccessManager::networkAccessible()
PUBLIC 20210 0 QNetworkAccessManager::networkAccessibleChanged(QNetworkAccessManager::NetworkAccessibility)
PUBLIC 20240 0 QNetworkAccessManager::networkSessionConnected()
PUBLIC 20260 0 QList<QPair<QByteArray,QByteArray> >::node_copy(QList<QPair<QByteArray,QByteArray> >::Node *,QList<QPair<QByteArray,QByteArray> >::Node *,QList<QPair<QByteArray,QByteArray> >::Node *)
PUBLIC 202d0 0 QList<QSslError>::node_copy(QList<QSslError>::Node *,QList<QSslError>::Node *,QList<QSslError>::Node *)
PUBLIC 20310 0 QList<QPair<QByteArray,QByteArray> >::node_destruct(QList<QPair<QByteArray,QByteArray> >::Node *,QList<QPair<QByteArray,QByteArray> >::Node *)
PUBLIC 203a0 0 QList<QByteArray>::node_destruct(QList<QByteArray>::Node *,QList<QByteArray>::Node *)
PUBLIC 203f0 0 QList<QNetworkCookie>::node_destruct(QList<QNetworkCookie>::Node *,QList<QNetworkCookie>::Node *)
PUBLIC 20420 0 QList<QNetworkProxy>::node_destruct(QList<QNetworkProxy>::Node *,QList<QNetworkProxy>::Node *)
PUBLIC 20450 0 QNetworkAccessManager::post(QNetworkRequest const &,QByteArray const &)
PUBLIC 204c0 0 QNetworkAccessManagerPrivate::postProcess(QNetworkReply *)
PUBLIC 20560 0 QNetworkAccessManager::proxyAuthenticationRequired(QNetworkProxy const &,QAuthenticator *)
PUBLIC 205c0 0 QNetworkAccessManagerPrivate::proxyAuthenticationRequired(QUrl const &,QNetworkProxy const &,bool,QAuthenticator *,QNetworkProxy *)
PUBLIC 206e0 0 QNetworkAccessManager::qt_metacall(QMetaObject::Call,int,void * *)
PUBLIC 207c0 0 QNetworkAccessManager::qt_metacast(char const *)
PUBLIC 20820 0 QMetaTypeId<QPair<QByteArray,QByteArray> >::qt_metatype_id()
PUBLIC 20970 0 QMetaTypeId<QList<QPair<QByteArray,QByteArray> > >::qt_metatype_id()
PUBLIC 20a90 0 QMetaTypeId<QList<QNetworkCookie> >::qt_metatype_id()
PUBLIC 20bb0 0 QMetaTypeId<QList<QSslError> >::qt_metatype_id()
PUBLIC 20c40 0 QMetaTypeId<QSharedPointer<char> >::qt_metatype_id()
PUBLIC 20cd0 0 QMetaTypeId<QHttpNetworkRequest>::qt_metatype_id()
PUBLIC 20d60 0 QMetaTypeId<QNetworkCookie>::qt_metatype_id()
PUBLIC 20df0 0 QMetaTypeId<QNetworkProxy>::qt_metatype_id()
PUBLIC 20e80 0 QMetaTypeId<QtMetaTypePrivate::QPairVariantInterfaceImpl>::qt_metatype_id()
PUBLIC 20f10 0 QMetaTypeId<QtMetaTypePrivate::QSequentialIterableImpl>::qt_metatype_id()
PUBLIC 20fa0 0 QMetaTypeId<QSslConfiguration>::qt_metatype_id()
PUBLIC 21030 0 QMetaTypeId<QNetworkReply::NetworkError>::qt_metatype_id()
PUBLIC 210c0 0 QNetworkAccessManagerPrivate::queryProxy(QNetworkProxyQuery const &)
PUBLIC 21270 0 QtPrivate::IsMetaTypePair<QPair<QByteArray,QByteArray>,1>::registerConverter(int)
PUBLIC 212d0 0 QtPrivate::ValueTypeIsMetaType<QList<QPair<QByteArray,QByteArray> >,1>::registerConverter(int)
PUBLIC 21330 0 QtPrivate::ValueTypeIsMetaType<QList<QNetworkCookie>,1>::registerConverter(int)
PUBLIC 21390 0 QByteArray::reserve(int)
PUBLIC 21410 0 QNetworkAccessManager::setNetworkAccessible(QNetworkAccessManager::NetworkAccessibility)
PUBLIC 21470 0 QNetworkAccessManager::sslErrors(QNetworkReply *,QList<QSslError> const &)
PUBLIC 214d0 0 QNetworkAccessManager::supportedSchemesImplementation()
PUBLIC 21530 0 QForeachContainer<QList<QByteArray> >::QForeachContainer<QList<QByteArray> >(QList<QByteArray> const &)
PUBLIC 215b0 0 QList<QByteArray>::QList<QByteArray>(QList<QByteArray> const &)
PUBLIC 21620 0 QNetworkHeadersPrivate::QNetworkHeadersPrivate(QNetworkHeadersPrivate const &)
PUBLIC 216f0 0 QNetworkHeadersPrivate::QNetworkHeadersPrivate()
PUBLIC 21720 0 QNetworkRequest::QNetworkRequest(QUrl const &)
PUBLIC 217c0 0 QNetworkRequestPrivate::QNetworkRequestPrivate(QNetworkRequestPrivate const &)
PUBLIC 21840 0 QNetworkHeadersPrivate::~QNetworkHeadersPrivate()
PUBLIC 21900 0 QNetworkRequest::~QNetworkRequest()
PUBLIC 219a0 0 QList<QPair<QByteArray,QByteArray> >::operator=(QList<QPair<QByteArray,QByteArray> > const &)
PUBLIC 21a20 0 QList<QNetworkCookie>::operator=(QList<QNetworkCookie> const &)
PUBLIC 21a60 0 QSharedDataPointer<QNetworkRequestPrivate>::operator=(QSharedDataPointer<QNetworkRequestPrivate> const &)
PUBLIC 21ae0 0 QNetworkRequest::operator=(QNetworkRequest const &)
PUBLIC 21b00 0 QList<QNetworkCookie>::operator<<(QNetworkCookie const &)
PUBLIC 21b60 0 QList<QPair<QByteArray,QByteArray> >::operator==(QList<QPair<QByteArray,QByteArray> > const &)
PUBLIC 21c00 0 QList<QNetworkCookie>::operator+=(QList<QNetworkCookie> const &)
PUBLIC 21ca0 0 QtMetaTypePrivate::QMetaTypeFunctionHelper<QNetworkRequest,1>::Construct(void *,void const *)
PUBLIC 21d10 0 QtMetaTypePrivate::QMetaTypeFunctionHelper<QNetworkRequest,1>::Create(void const *)
PUBLIC 21d90 0 QtMetaTypePrivate::QMetaTypeFunctionHelper<QNetworkRequest,1>::Delete(void *)
PUBLIC 21db0 0 QtMetaTypePrivate::QMetaTypeFunctionHelper<QNetworkRequest,1>::Destruct(void *)
PUBLIC 21dc0 0 QList<QPair<QByteArray,QByteArray> >::append(QPair<QByteArray,QByteArray> const &)
PUBLIC 21e10 0 QList<QByteArray>::append(QByteArray const &)
PUBLIC 21e80 0 QList<QNetworkCookie>::append(QNetworkCookie const &)
PUBLIC 21ed0 0 QNetworkRequest::attribute(QNetworkRequest::Attribute,QVariant const &)
PUBLIC 21ef0 0 QLocale::c()
PUBLIC 21f10 0 QHash<QNetworkRequest::KnownHeaders,QVariant>::clear()
PUBLIC 21f50 0 QHash<QNetworkRequest::Attribute,QVariant>::deleteNode2(QHashData::Node *)
PUBLIC 21f60 0 QHash<QNetworkRequest::Attribute,QVariant>::detach()
PUBLIC 21fc0 0 QHash<QNetworkRequest::Attribute,QVariant>::detach_helper()
PUBLIC 22010 0 QList<QPair<QByteArray,QByteArray> >::detach_helper(int)
PUBLIC 22090 0 QSharedDataPointer<QNetworkRequestPrivate>::detach_helper()
PUBLIC 22110 0 QList<QPair<QByteArray,QByteArray> >::detach_helper_grow(int,int)
PUBLIC 221e0 0 QList<QByteArray>::detach_helper_grow(int,int)
PUBLIC 222b0 0 QList<QNetworkCookie>::detach_helper_grow(int,int)
PUBLIC 223c0 0 QHash<QNetworkRequest::Attribute,QVariant>::duplicateNode(QHashData::Node *,void *)
PUBLIC 223f0 0 QList<QPair<QByteArray,QByteArray> >::erase(QList<QPair<QByteArray,QByteArray> >::iterator)
PUBLIC 22470 0 QHash<int,QSockNot *>::findNode(int const &,unsigned int *)
PUBLIC 224e0 0 QNetworkHeadersPrivate::findRawHeader(QByteArray const &)
PUBLIC 22540 0 QNetworkHeadersPrivate::fromHttpDate(QByteArray const &)
PUBLIC 22770 0 QString::fromLatin1(QByteArray const &)
PUBLIC 227d0 0 QNetworkRequest::hasRawHeader(QByteArray const &)
PUBLIC 22800 0 QNetworkRequest::header(QNetworkRequest::KnownHeaders)
PUBLIC 22c90 0 QHash<QNetworkRequest::Attribute,QVariant>::insert(QNetworkRequest::Attribute const &,QVariant const &)
PUBLIC 22da0 0 QtPrivate::QVariantValueHelper<QList<QNetworkCookie> >::metaType(QVariant const &)
PUBLIC 22e20 0 QtPrivate::QVariantValueHelper<QNetworkCookie>::metaType(QVariant const &)
PUBLIC 23080 0 QList<QPair<QByteArray,QByteArray> >::node_construct(QList<QPair<QByteArray,QByteArray> >::Node *,QPair<QByteArray,QByteArray> const &)
PUBLIC 230e0 0 QList<QByteArray>::node_copy(QList<QByteArray>::Node *,QList<QByteArray>::Node *,QList<QByteArray>::Node *)
PUBLIC 23120 0 QNetworkHeadersPrivate::parseAndSetHeader(QByteArray const &,QByteArray const &)
PUBLIC 23960 0 QMetaTypeId<QNetworkRequest>::qt_metatype_id()
PUBLIC 239f0 0 QNetworkRequest::rawHeader(QByteArray const &)
PUBLIC 23a50 0 QNetworkRequest::rawHeaderList()
PUBLIC 23a70 0 QNetworkHeadersPrivate::rawHeadersKeys()
PUBLIC 23b10 0 QHash<QNetworkRequest::Attribute,QVariant>::remove(QNetworkRequest::Attribute const &)
PUBLIC 23be0 0 QNetworkHeadersPrivate::setAllRawHeaders(QList<QPair<QByteArray,QByteArray> > const &)
PUBLIC 23c60 0 QNetworkHeadersPrivate::setCookedHeader(QNetworkRequest::KnownHeaders,QVariant const &)
PUBLIC 23e00 0 QNetworkRequest::setHeader(QNetworkRequest::KnownHeaders,QVariant const &)
PUBLIC 23e30 0 QNetworkHeadersPrivate::setRawHeader(QByteArray const &,QByteArray const &)
PUBLIC 23e60 0 QNetworkHeadersPrivate::setRawHeaderInternal(QByteArray const &,QByteArray const &)
PUBLIC 24010 0 QNetworkRequest::sslConfiguration()
PUBLIC 24060 0 QNetworkHeadersPrivate::toHttpDate(QDateTime const &)
PUBLIC 24120 0 QNetworkRequest::url()
PUBLIC 24140 0 QHash<QNetworkRequest::Attribute,QVariant>::value(QNetworkRequest::Attribute const &,QVariant const &)
PUBLIC 241c0 0 QNetworkReply::QNetworkReply(QNetworkReplyPrivate &,QObject *)
PUBLIC 241e0 0 QNetworkReply::QNetworkReply(QObject *)
PUBLIC 24220 0 QNetworkReplyPrivate::QNetworkReplyPrivate()
PUBLIC 24360 0 QNetworkReply::~QNetworkReply()
PUBLIC 24370 0 QNetworkReply::`vector deleting destructor'(unsigned int)
PUBLIC 243a0 0 QNetworkReplyPrivate::`vector deleting destructor'(unsigned int)
PUBLIC 24410 0 QNetworkReply::attribute(QNetworkRequest::Attribute)
PUBLIC 24430 0 QNetworkReply::error()
PUBLIC 24440 0 QNetworkReply::hasRawHeader(QByteArray const &)
PUBLIC 24470 0 QNetworkReply::rawHeader(QByteArray const &)
PUBLIC 244d0 0 QNetworkReply::rawHeaderList()
PUBLIC 244f0 0 QNetworkReply::readBufferSize()
PUBLIC 24500 0 QNetworkReply::setAttribute(QNetworkRequest::Attribute,QVariant const &)
PUBLIC 24540 0 QNetworkReply::setError(QNetworkReply::NetworkError,QString const &)
PUBLIC 24560 0 QNetworkReply::setFinished(bool)
PUBLIC 24570 0 QNetworkReply::setHeader(QNetworkRequest::KnownHeaders,QVariant const &)
PUBLIC 24580 0 QNetworkReply::setOperation(QNetworkAccessManager::Operation)
PUBLIC 24590 0 QNetworkReply::setRawHeader(QByteArray const &,QByteArray const &)
PUBLIC 245a0 0 QNetworkReply::setReadBufferSize(__int64)
PUBLIC 245c0 0 QNetworkReply::setRequest(QNetworkRequest const &)
PUBLIC 245d0 0 QNetworkReply::setSslConfiguration(QSslConfiguration const &)
PUBLIC 245e0 0 QSocks5SocketEnginePrivate::_q_controlSocketStateChanged(QAbstractSocket::SocketState)
PUBLIC 245f0 0 QNetworkReply::setUrl(QUrl const &)
PUBLIC 24600 0 QNetworkReply::url()
PUBLIC 24620 0 QHash<QNetworkRequest::Attribute,QVariant>::value(QNetworkRequest::Attribute const &)
PUBLIC 246a0 0 QBearerEnginePlugin::metaObject()
PUBLIC 246c0 0 QBearerEnginePlugin::qt_metacast(char const *)
PUBLIC 24720 0 QBearerEnginePlugin::QBearerEnginePlugin(QObject *)
PUBLIC 24740 0 QBearerEnginePlugin::~QBearerEnginePlugin()
PUBLIC 24750 0 QBearerEnginePlugin::`vector deleting destructor'(unsigned int)
PUBLIC 24780 0 QMutableMapIterator<unsigned int,QExplicitlySharedDataPointer<QNetworkConfigurationPrivate> >::QMutableMapIterator<unsigned int,QExplicitlySharedDataPointer<QNetworkConfigurationPrivate> >(QMap<unsigned int,QExplicitlySharedDataPointer<QNetworkConfigurationPrivate> > &)
PUBLIC 247f0 0 QExplicitlySharedDataPointer<QNetworkConfigurationPrivate>::QExplicitlySharedDataPointer<QNetworkConfigurationPrivate>(QExplicitlySharedDataPointer<QNetworkConfigurationPrivate> const &)
PUBLIC 24810 0 QNetworkConfiguration::operator=(QNetworkConfiguration const &)
PUBLIC 24850 0 QDebug::operator<<(char const *)
PUBLIC 248d0 0 QNetworkConfiguration::operator==(QNetworkConfiguration const &)
PUBLIC 248e0 0 QList<QNetworkConfiguration>::append(QNetworkConfiguration const &)
PUBLIC 24950 0 QNetworkConfiguration::bearerType()
PUBLIC 249c0 0 QNetworkConfiguration::children()
PUBLIC 24c00 0 QMapNode<unsigned int,QExplicitlySharedDataPointer<QNetworkConfigurationPrivate> >::copy(QMapData<unsigned int,QExplicitlySharedDataPointer<QNetworkConfigurationPrivate> > *)
PUBLIC 24cb0 0 QMap<unsigned int,QExplicitlySharedDataPointer<QNetworkConfigurationPrivate> >::detach_helper()
PUBLIC 24d30 0 QList<QNetworkConfiguration>::detach_helper_grow(int,int)
PUBLIC 24e00 0 QMap<unsigned int,QExplicitlySharedDataPointer<QNetworkConfigurationPrivate> >::erase(QMap<unsigned int,QExplicitlySharedDataPointer<QNetworkConfigurationPrivate> >::iterator)
PUBLIC 24ed0 0 QMap<unsigned int,QExplicitlySharedDataPointer<QNetworkConfigurationPrivate> >::find(unsigned int const &)
PUBLIC 24f30 0 QNetworkConfiguration::identifier()
PUBLIC 24fa0 0 QNetworkConfiguration::isValid()
PUBLIC 24fe0 0 QNetworkConfiguration::purpose()
PUBLIC 25020 0 QNetworkConfiguration::state()
PUBLIC 25070 0 QNetworkConfiguration::type()
PUBLIC 250b0 0 QForeachContainer<QList<QSharedDataPointer<QNetworkInterfacePrivate> > >::QForeachContainer<QList<QSharedDataPointer<QNetworkInterfacePrivate> > >(QList<QSharedDataPointer<QNetworkInterfacePrivate> > const &)
PUBLIC 25130 0 QList<QNetworkAddressEntry>::QList<QNetworkAddressEntry>(QList<QNetworkAddressEntry> const &)
PUBLIC 251a0 0 QNetmaskAddress::QNetmaskAddress()
PUBLIC 251c0 0 QNetworkAddressEntry::QNetworkAddressEntry(QNetworkAddressEntry const &)
PUBLIC 25220 0 QNetworkAddressEntry::QNetworkAddressEntry()
PUBLIC 25270 0 QList<QHostAddress>::~QList<QHostAddress>()
PUBLIC 252a0 0 QNetmaskAddress::~QNetmaskAddress()
PUBLIC 252b0 0 QNetworkAddressEntry::~QNetworkAddressEntry()
PUBLIC 252e0 0 QNetworkInterface::~QNetworkInterface()
PUBLIC 25310 0 QNetworkInterfacePrivate::~QNetworkInterfacePrivate()
PUBLIC 253e0 0 QDebug::operator<<(QString const &)
PUBLIC 25440 0 QNetworkInterface::addressEntries()
PUBLIC 25530 0 QNetworkInterface::allInterfaces()
PUBLIC 25740 0 QNetworkInterfaceManager::allInterfaces()
PUBLIC 258b0 0 QList<QHostAddress>::append(QHostAddress const &)
PUBLIC 25920 0 QList<QHostAddress>::dealloc(QListData::Data *)
PUBLIC 25970 0 QList<QNetworkAddressEntry>::detach_helper(int)
PUBLIC 25a10 0 QList<QSharedDataPointer<QNetworkInterfacePrivate> >::detach_helper_grow(int,int)
PUBLIC 25b20 0 QList<QHostAddress>::detach_helper_grow(int,int)
PUBLIC 25bd0 0 QList<QNetworkInterface>::detach_helper_grow(int,int)
PUBLIC 25ce0 0 QNetworkInterface::flags()
PUBLIC 25d10 0 QNetworkInterface::humanReadableName()
PUBLIC 25e70 0 QNetworkInterface::index()
PUBLIC 25e80 0 `anonymous namespace'::Q_QGS_manager::innerFunction()
PUBLIC 25f10 0 QNetworkInterface::interfaceFromIndex(int)
PUBLIC 25f80 0 QNetworkInterfaceManager::interfaceFromIndex(int)
PUBLIC 260c0 0 QNetworkInterface::interfaceFromName(QString const &)
PUBLIC 26130 0 QNetworkInterfaceManager::interfaceFromName(QString const &)
PUBLIC 26290 0 QNetworkAddressEntry::ip()
PUBLIC 262b0 0 QNetworkInterface::isValid()
PUBLIC 26300 0 QNetworkInterfacePrivate::makeHwAddress(int,unsigned char *)
PUBLIC 263d0 0 QNetworkInterface::name()
PUBLIC 264a0 0 QList<QSharedDataPointer<QNetworkInterfacePrivate> >::node_copy(QList<QSharedDataPointer<QNetworkInterfacePrivate> >::Node *,QList<QSharedDataPointer<QNetworkInterfacePrivate> >::Node *,QList<QSharedDataPointer<QNetworkInterfacePrivate> >::Node *)
PUBLIC 264e0 0 QList<QHostAddress>::node_copy(QList<QHostAddress>::Node *,QList<QHostAddress>::Node *,QList<QHostAddress>::Node *)
PUBLIC 26520 0 QList<QNetworkAddressEntry>::node_copy(QList<QNetworkAddressEntry>::Node *,QList<QNetworkAddressEntry>::Node *,QList<QNetworkAddressEntry>::Node *)
PUBLIC 26560 0 QList<QSharedDataPointer<QNetworkInterfacePrivate> >::node_destruct(QList<QSharedDataPointer<QNetworkInterfacePrivate> >::Node *,QList<QSharedDataPointer<QNetworkInterfacePrivate> >::Node *)
PUBLIC 26800 0 QNetworkAddressEntry::prefixLength()
PUBLIC 26810 0 QNetworkAddressEntry::setIp(QHostAddress const &)
PUBLIC 26820 0 QNetworkAddressEntry::setNetmask(QHostAddress const &)
PUBLIC 268b0 0 QNetworkAddressEntry::setPrefixLength(int)
PUBLIC 268d0 0 QBearerEngine::qt_static_metacall(QObject *,QMetaObject::Call,int,void * *)
PUBLIC 26a30 0 QBearerEngine::QBearerEngine(QObject *)
PUBLIC 26a70 0 QBearerEngine::~QBearerEngine()
PUBLIC 26db0 0 QBearerEngine::`vector deleting destructor'(unsigned int)
PUBLIC 26dd0 0 QHash<QString,QExplicitlySharedDataPointer<QNetworkConfigurationPrivate> >::begin()
PUBLIC 26e60 0 QBearerEngine::configurationAdded(QExplicitlySharedDataPointer<QNetworkConfigurationPrivate>)
PUBLIC 26eb0 0 QBearerEngine::configurationChanged(QExplicitlySharedDataPointer<QNetworkConfigurationPrivate>)
PUBLIC 26f00 0 QBearerEngine::configurationRemoved(QExplicitlySharedDataPointer<QNetworkConfigurationPrivate>)
PUBLIC 26f50 0 QBearerEngine::configurationsInUse()
PUBLIC 27060 0 QHash<QString,QExplicitlySharedDataPointer<QNetworkConfigurationPrivate> >::end()
PUBLIC 270c0 0 QBearerEngine::metaObject()
PUBLIC 270e0 0 QBearerEngine::qt_metacall(QMetaObject::Call,int,void * *)
PUBLIC 27130 0 QBearerEngine::qt_metacast(char const *)
PUBLIC 27190 0 QBearerEngine::updateCompleted()
PUBLIC 271b0 0 QNetworkSessionPrivate::qt_static_metacall(QObject *,QMetaObject::Call,int,void * *)
PUBLIC 273b0 0 QtMetaTypePrivate::QMetaTypeFunctionHelper<QFlags<QNetworkSession::UsagePolicy>,1>::Construct(void *,void const *)
PUBLIC 273e0 0 QNetworkSessionPrivate::closed()
PUBLIC 27400 0 QNetworkSessionPrivate::error(QNetworkSession::SessionError)
PUBLIC 27430 0 QNetworkSessionPrivate::metaObject()
PUBLIC 27450 0 QNetworkSessionPrivate::newConfigurationActivated()
PUBLIC 27470 0 QNetworkSessionPrivate::preferredConfigurationChanged(QNetworkConfiguration const &,bool)
PUBLIC 274c0 0 QNetworkSessionPrivate::qt_metacall(QMetaObject::Call,int,void * *)
PUBLIC 27510 0 QNetworkSessionPrivate::qt_metacast(char const *)
PUBLIC 27570 0 QMetaTypeId<QFlags<QNetworkSession::UsagePolicy> >::qt_metatype_id()
PUBLIC 27600 0 QMetaTypeId<QNetworkSession::SessionError>::qt_metatype_id()
PUBLIC 27690 0 QMetaTypeId<QNetworkSession::State>::qt_metatype_id()
PUBLIC 27720 0 QNetworkSessionPrivate::quitPendingWaitsForOpened()
PUBLIC 27740 0 QNetworkSessionPrivate::stateChanged(QNetworkSession::State)
PUBLIC 27770 0 QNetworkSessionPrivate::usagePoliciesChanged(QFlags<QNetworkSession::UsagePolicy>)
PUBLIC 277a0 0 QNetworkConfigurationManagerPrivate::QNetworkConfigurationManagerPrivate()
PUBLIC 27800 0 QMultiMap<int,QString>::~QMultiMap<int,QString>()
PUBLIC 27850 0 QHash<QRegExpEngineKey,QCache<QRegExpEngineKey,QRegExpEngine>::Node>::~QHash<QRegExpEngineKey,QCache<QRegExpEngineKey,QRegExpEngine>::Node>()
PUBLIC 27880 0 QNetworkConfigurationManagerPrivate::~QNetworkConfigurationManagerPrivate()
PUBLIC 279b0 0 QHash<QString,QExplicitlySharedDataPointer<QNetworkConfigurationPrivate> >::operator[](QString const &)
PUBLIC 27a70 0 QNetworkConfigurationManagerPrivate::`vector deleting destructor'(unsigned int)
PUBLIC 27a90 0 QNetworkConfigurationManagerPrivate::capabilities()
PUBLIC 27b70 0 QNetworkConfigurationManagerPrivate::cleanup()
PUBLIC 27ba0 0 QNetworkConfigurationManagerPrivate::configurationAdded(QExplicitlySharedDataPointer<QNetworkConfigurationPrivate>)
PUBLIC 27cc0 0 QNetworkConfigurationManagerPrivate::configurationChanged(QExplicitlySharedDataPointer<QNetworkConfigurationPrivate>)
PUBLIC 27e00 0 QNetworkConfigurationManagerPrivate::configurationFromIdentifier(QString const &)
PUBLIC 28000 0 QNetworkConfigurationManagerPrivate::configurationRemoved(QExplicitlySharedDataPointer<QNetworkConfigurationPrivate>)
PUBLIC 28110 0 QNetworkConfigurationManagerPrivate::defaultConfiguration()
PUBLIC 28930 0 QHash<QString,QHashDummyValue>::detach()
PUBLIC 28990 0 QNetworkConfigurationManagerPrivate::disablePolling()
PUBLIC 289c0 0 QHash<QByteArray,QHashDummyValue>::duplicateNode(QHashData::Node *,void *)
PUBLIC 28a00 0 QNetworkConfigurationManagerPrivate::enablePolling()
PUBLIC 28a80 0 QNetworkConfigurationManagerPrivate::engines()
PUBLIC 28ad0 0 QHash<QString,QCache<QString,QHostInfoCache::QHostInfoCacheElement>::Node>::findNode(QString const &,unsigned int *)
PUBLIC 28b50 0 QNetworkConfigurationManagerPrivate::initialize()
PUBLIC 28bf0 0 `anonymous namespace'::Q_QGS_loader::innerFunction()
PUBLIC 28cf0 0 QHash<QString,QHashDummyValue>::insert(QString const &,QHashDummyValue const &)
PUBLIC 28db0 0 QMetaObject::invokeMethod(QObject *,char const *,QGenericArgument,QGenericArgument,QGenericArgument,QGenericArgument,QGenericArgument,QGenericArgument,QGenericArgument,QGenericArgument,QGenericArgument,QGenericArgument)
PUBLIC 28e20 0 QNetworkConfigurationManagerPrivate::performAsyncConfigurationUpdate()
PUBLIC 28f60 0 QNetworkConfigurationManagerPrivate::pollEngines()
PUBLIC 290a0 0 QHash<QBearerEngine *,QHashDummyValue>::remove(QBearerEngine * const &)
PUBLIC 29160 0 QHash<QString,QHashDummyValue>::remove(QString const &)
PUBLIC 29270 0 QNetworkConfigurationManagerPrivate::startPolling()
PUBLIC 293d0 0 QNetworkConfigurationManagerPrivate::updateConfigurations()
PUBLIC 29840 0 QNetworkConfigurationManager::qt_static_metacall(QObject *,QMetaObject::Call,int,void * *)
PUBLIC 29990 0 QNetworkConfigurationManager::QNetworkConfigurationManager(QObject *)
PUBLIC 29a70 0 QNetworkConfigurationManager::~QNetworkConfigurationManager()
PUBLIC 29aa0 0 QNetworkConfigurationManager::`vector deleting destructor'(unsigned int)
PUBLIC 29ae0 0 QNetworkConfigurationManagerPrivate::addPreAndPostRoutine()
PUBLIC 29b00 0 QNetworkConfigurationManager::capabilities()
PUBLIC 29b30 0 QNetworkConfigurationManager::configurationAdded(QNetworkConfiguration const &)
PUBLIC 29b60 0 QNetworkConfigurationManager::configurationChanged(QNetworkConfiguration const &)
PUBLIC 29b90 0 QNetworkConfigurationManager::configurationFromIdentifier(QString const &)
PUBLIC 29bd0 0 QNetworkConfigurationManager::configurationRemoved(QNetworkConfiguration const &)
PUBLIC 29c30 0 QNetworkConfigurationManager::defaultConfiguration()
PUBLIC 29c60 0 QNetworkConfigurationManager::metaObject()
PUBLIC 29c80 0 QNetworkConfigurationManager::onlineStateChanged(bool)
PUBLIC 29cb0 0 qNetworkConfigurationManagerPrivate()
PUBLIC 29dc0 0 QNetworkConfigurationManager::qt_metacall(QMetaObject::Call,int,void * *)
PUBLIC 29e10 0 QNetworkConfigurationManager::qt_metacast(char const *)
PUBLIC 29e70 0 QNetworkConfigurationManager::updateCompleted()
PUBLIC 29e90 0 QSslError::QSslError(QSslError const &)
PUBLIC 29f10 0 QSslError::QSslError(QSslError::SslError)
PUBLIC 29ff0 0 QSslError::QSslError(QSslError::SslError,QSslCertificate const &)
PUBLIC 2a070 0 QSslError::QSslError()
PUBLIC 2a140 0 QSslError::~QSslError()
PUBLIC 2a160 0 QSslError::operator=(QSslError const &)
PUBLIC 2a190 0 QSslError::operator==(QSslError const &)
PUBLIC 2a1c0 0 QSslError::certificate()
PUBLIC 2a1e0 0 QSslError::error()
PUBLIC 2a1f0 0 QSslError::errorString()
PUBLIC 2a7b0 0 QSslSocket::qt_static_metacall(QObject *,QMetaObject::Call,int,void * *)
PUBLIC 2aad0 0 QForeachContainer<QStringList const >::QForeachContainer<QStringList const >(QStringList const &)
PUBLIC 2ab50 0 QList<QSslCertificate>::QList<QSslCertificate>(QList<QSslCertificate> const &)
PUBLIC 2abc0 0 QList<QSslCipher>::QList<QSslCipher>(QList<QSslCipher> const &)
PUBLIC 2ac30 0 QSslConfigurationPrivate::QSslConfigurationPrivate(QSslConfigurationPrivate const &)
PUBLIC 2ae70 0 QSslConfigurationPrivate::QSslConfigurationPrivate()
PUBLIC 2af40 0 QSslSocket::QSslSocket(QObject *)
PUBLIC 2af90 0 QSslSocketGlobalData::QSslSocketGlobalData()
PUBLIC 2afd0 0 QSslSocketPrivate::QSslSocketPrivate()
PUBLIC 2b080 0 QForeachContainer<QStringList>::~QForeachContainer<QStringList>()
PUBLIC 2b0d0 0 QList<QSslCertificate>::~QList<QSslCertificate>()
PUBLIC 2b130 0 QList<QSslCipher>::~QList<QSslCipher>()
PUBLIC 2b190 0 QSslConfigurationPrivate::~QSslConfigurationPrivate()
PUBLIC 2b270 0 QSslSocketPrivate::~QSslSocketPrivate()
PUBLIC 2b310 0 QList<QSslCipher>::operator<<(QSslCipher const &)
PUBLIC 2b370 0 operator!=(QStringRef const &,QStringRef const &)
PUBLIC 2b390 0 QStringBuilder<QByteArray,QByteArray>::operator QByteArray()
PUBLIC 2b3c3 0 [thunk]:QSslSocketPrivate::`vector deleting destructor'`adjustor{136}' (unsigned int)
PUBLIC 2b3d0 0 QSslSocket::`vector deleting destructor'(unsigned int)
PUBLIC 2b420 0 QSslSocketPrivate::`vector deleting destructor'(unsigned int)
PUBLIC 2b440 0 QtMetaTypePrivate::QMetaTypeFunctionHelper<QSslCertificate,1>::Construct(void *,void const *)
PUBLIC 2b4d0 0 QtMetaTypePrivate::QMetaTypeFunctionHelper<QSslCertificate,1>::Create(void const *)
PUBLIC 2b560 0 QtMetaTypePrivate::QMetaTypeFunctionHelper<QSslCertificate,1>::Delete(void *)
PUBLIC 2b580 0 QtMetaTypePrivate::QMetaTypeFunctionHelper<QSslCertificate,1>::Destruct(void *)
PUBLIC 2b590 0 QSslSocketPrivate::_q_bytesWrittenSlot(__int64)
PUBLIC 2b620 0 QSslSocketPrivate::_q_connectedSlot()
PUBLIC 2b730 0 QSslSocketPrivate::_q_errorSlot(QAbstractSocket::SocketError)
PUBLIC 2b7b0 0 QSslSocketPrivate::_q_flushWriteBuffer()
PUBLIC 2b7f0 0 QSslSocketPrivate::_q_readyReadSlot()
PUBLIC 2b820 0 QSslSocketPrivate::_q_resumeImplementation()
PUBLIC 2b900 0 QSslSocketPrivate::_q_stateChangedSlot(QAbstractSocket::SocketState)
PUBLIC 2b920 0 QSslSocket::abort()
PUBLIC 2b940 0 QSslSocket::addCaCertificate(QSslCertificate const &)
PUBLIC 2b9a0 0 QSslSocket::addDefaultCaCertificate(QSslCertificate const &)
PUBLIC 2b9b0 0 QSslSocketPrivate::addDefaultCaCertificate(QSslCertificate const &)
PUBLIC 2ba80 0 QSslSocket::atEnd()
PUBLIC 2bac0 0 QSslSocket::bytesAvailable()
PUBLIC 2bb30 0 QSslSocket::bytesToWrite()
PUBLIC 2bb80 0 QSslSocket::canReadLine()
PUBLIC 2bbc0 0 QSslSocketPrivate::checkSettingSslContext(QSslSocket *,QSharedPointer<QSslContext>)
PUBLIC 2bc10 0 QIODevicePrivateLinearBuffer::clear()
PUBLIC 2bc50 0 QRingBuffer::clear()
PUBLIC 2bd00 0 QSslSocket::close()
PUBLIC 2bda0 0 QAbstractSocketPrivate::closeNotification()
PUBLIC 2bdb0 0 QSslSocket::connectToHost(QString const &,unsigned short,QFlags<QIODevice::OpenModeFlag>,QAbstractSocket::NetworkLayerProtocol)
PUBLIC 2be50 0 QSslSocket::connectToHostEncrypted(QString const &,unsigned short,QFlags<QIODevice::OpenModeFlag>,QAbstractSocket::NetworkLayerProtocol)
PUBLIC 2bed0 0 QSslSocketPrivate::createPlainSocket(QFlags<QIODevice::OpenModeFlag>)
PUBLIC 2c1a0 0 QSslConfigurationPrivate::deepCopyDefaultConfiguration(QSslConfigurationPrivate *)
PUBLIC 2c300 0 QSslSocketPrivate::defaultCiphers()
PUBLIC 2c3b0 0 QSslConfigurationPrivate::defaultConfiguration()
PUBLIC 2c420 0 QMapNode<int,QString>::destroySubTree()
PUBLIC 2c470 0 QExplicitlySharedDataPointer<QSslConfigurationPrivate>::detach_helper()
PUBLIC 2c4d0 0 QList<QByteArray>::detach_helper(int)
PUBLIC 2c550 0 QList<QSslError>::detach_helper(int)
PUBLIC 2c5f0 0 QList<QSslCertificate>::detach_helper_grow(int,int)
PUBLIC 2c700 0 QList<QSslCipher>::detach_helper_grow(int,int)
PUBLIC 2c810 0 QSslSocket::disconnectFromHost()
PUBLIC 2c8a0 0 QSslSocket::encrypted()
PUBLIC 2c8c0 0 QSslSocket::encryptedBytesAvailable()
PUBLIC 2c8e0 0 QSslSocket::encryptedBytesToWrite()
PUBLIC 2c900 0 QSslSocket::encryptedBytesWritten(__int64)
PUBLIC 2c930 0 QList<QByteArray>::erase(QList<QByteArray>::iterator,QList<QByteArray>::iterator)
PUBLIC 2ca50 0 QList<QSslError>::first()
PUBLIC 2ca80 0 QSslSocket::flush()
PUBLIC 2cab0 0 QSslSocket::ignoreSslErrors(QList<QSslError> const &)
PUBLIC 2caf0 0 QSslSocket::ignoreSslErrors()
PUBLIC 2cb00 0 QSslSocketPrivate::init()
PUBLIC 2cb80 0 `anonymous namespace'::Q_QGS_globalData::innerFunction()
PUBLIC 2cc10 0 QSslSocketPrivate::isMatchingHostname(QSslCertificate const &,QString const &)
PUBLIC 2d170 0 QSslSocketPrivate::isMatchingHostname(QString const &,QString const &)
PUBLIC 2d2d0 0 QSslSocket::metaObject()
PUBLIC 2d2f0 0 QSslSocket::modeChanged(QSslSocket::SslMode)
PUBLIC 2d320 0 QList<QSslCertificate>::node_copy(QList<QSslCertificate>::Node *,QList<QSslCertificate>::Node *,QList<QSslCertificate>::Node *)
PUBLIC 2d360 0 QList<QSslCipher>::node_copy(QList<QSslCipher>::Node *,QList<QSslCipher>::Node *,QList<QSslCipher>::Node *)
PUBLIC 2d3a0 0 QSslSocketPrivate::pauseSocketNotifiers(QSslSocket *)
PUBLIC 2d3c0 0 QSslSocketPrivate::peek(__int64)
PUBLIC 2d590 0 QSslSocketPrivate::peek(char *,__int64)
PUBLIC 2d670 0 QSslSocket::peerVerifyError(QSslError const &)
PUBLIC 2d6a0 0 QAbstractSocketPrivate::proxyAuthenticationRequired(QNetworkProxy const &,QAuthenticator *)
PUBLIC 2d6b0 0 QSslSocket::qt_metacall(QMetaObject::Call,int,void * *)
PUBLIC 2d700 0 QSslSocket::qt_metacast(char const *)
PUBLIC 2d760 0 QMetaTypeId<QSslCertificate>::qt_metatype_id()
PUBLIC 2d7f0 0 QMetaTypeId<QAbstractSocket::SocketError>::qt_metatype_id()
PUBLIC 2d880 0 QMetaTypeId<QAbstractSocket::SocketState>::qt_metatype_id()
PUBLIC 2d910 0 QSslSocket::readData(char *,__int64)
PUBLIC 2d9b0 0 QAbstractSocketPrivate::readNotification()
PUBLIC 2d9c0 0 QRingBuffer::reserve(int)
PUBLIC 2db30 0 QSslSocket::resume()
PUBLIC 2db70 0 QSslSocketPrivate::resumeSocketNotifiers(QSslSocket *)
PUBLIC 2db90 0 QSslSocketPrivate::setDefaultCaCertificates(QList<QSslCertificate> const &)
PUBLIC 2dc40 0 QSslSocketPrivate::setDefaultCiphers(QList<QSslCipher> const &)
PUBLIC 2dcf0 0 QSslSocketPrivate::setDefaultSupportedCiphers(QList<QSslCipher> const &)
PUBLIC 2dda0 0 QSslSocket::setReadBufferSize(__int64)
PUBLIC 2ddd0 0 QSslSocket::setSocketDescriptor(int,QAbstractSocket::SocketState,QFlags<QIODevice::OpenModeFlag>)
PUBLIC 2df10 0 QSslSocket::setSocketOption(QAbstractSocket::SocketOption,QVariant const &)
PUBLIC 2df30 0 QSslSocket::setSslConfiguration(QSslConfiguration const &)
PUBLIC 2e130 0 QSslSocket::socketOption(QAbstractSocket::SocketOption)
PUBLIC 2e170 0 QSslSocket::sslConfiguration()
PUBLIC 2e1e0 0 QSslSocketPrivate::sslContext(QSslSocket *)
PUBLIC 2e2e0 0 QSslSocket::sslErrors(QList<QSslError> const &)
PUBLIC 2e310 0 QSslSocket::startClientEncryption()
PUBLIC 2e3d0 0 QSslSocket::startServerEncryption()
PUBLIC 2e450 0 QSslSocket::supportsSsl()
PUBLIC 2e460 0 QSslSocketPrivate::unixRootCertDirectories()
PUBLIC 2e7c0 0 QMap<QSsl::AlternativeNameEntryType,QString>::values(QSsl::AlternativeNameEntryType const &)
PUBLIC 2e8a0 0 QSslSocketPrivate::verifyErrorsHaveBeenIgnored()
PUBLIC 2e980 0 QSslSocket::waitForBytesWritten(int)
PUBLIC 2ea60 0 QSslSocket::waitForConnected(int)
PUBLIC 2eb10 0 QSslSocket::waitForDisconnected(int)
PUBLIC 2ec60 0 QSslSocket::waitForEncrypted(int)
PUBLIC 2ed60 0 QSslSocket::waitForReadyRead(int)
PUBLIC 2ee70 0 QSslSocket::writeData(char const *,__int64)
PUBLIC 2ef10 0 QAbstractSocketPrivate::writeNotification()
PUBLIC 2ef20 0 QSslConfiguration::QSslConfiguration()
PUBLIC 2ef60 0 QSslConfiguration::~QSslConfiguration()
PUBLIC 2ef90 0 QList<QByteArray>::operator=(QList<QByteArray> const &)
PUBLIC 2f010 0 QSslConfiguration::operator=(QSslConfiguration const &)
PUBLIC 2f060 0 QList<QByteArray>::operator==(QList<QByteArray> const &)
PUBLIC 2f0d0 0 QList<QSslCertificate>::operator==(QList<QSslCertificate> const &)
PUBLIC 2f140 0 QList<QSslCipher>::operator==(QList<QSslCipher> const &)
PUBLIC 2f1b0 0 QSslConfiguration::operator==(QSslConfiguration const &)
PUBLIC 2f300 0 QSslConfiguration::allowedNextProtocols()
PUBLIC 2f370 0 QSslConfiguration::caCertificates()
PUBLIC 2f3e0 0 QSslConfiguration::ciphers()
PUBLIC 2f450 0 QSslConfiguration::defaultConfiguration()
PUBLIC 2f470 0 QSslConfiguration::isNull()
PUBLIC 2f530 0 QSslConfiguration::localCertificate()
PUBLIC 2f5b0 0 QSslConfiguration::localCertificateChain()
PUBLIC 2f620 0 QSslConfiguration::nextNegotiatedProtocol()
PUBLIC 2f650 0 QSslConfiguration::nextProtocolNegotiationStatus()
PUBLIC 2f660 0 QSslConfiguration::peerVerifyDepth()
PUBLIC 2f670 0 QSslConfiguration::peerVerifyMode()
PUBLIC 2f680 0 QSslConfiguration::privateKey()
PUBLIC 2f6a0 0 QSslConfiguration::protocol()
PUBLIC 2f6b0 0 QSslConfiguration::sessionTicket()
PUBLIC 2f6e0 0 QSslConfiguration::sessionTicketLifeTimeHint()
PUBLIC 2f6f0 0 QSslConfiguration::setAllowedNextProtocols(QList<QByteArray>)
PUBLIC 2f760 0 QSslConfiguration::testSslOption(QSsl::SslOption)
PUBLIC 2f770 0 QNetworkAccessCache::CacheableObject::CacheableObject()
PUBLIC 2f780 0 QNetworkAccessCache::Node::Node(QNetworkAccessCache::Node const &)
PUBLIC 2f820 0 QNetworkAccessCache::QNetworkAccessCache()
PUBLIC 2f850 0 QNetworkAccessCache::CacheableObject::~CacheableObject()
PUBLIC 2f890 0 QNetworkAccessCache::Node::~Node()
PUBLIC 2f910 0 QNetworkAccessCache::~QNetworkAccessCache()
PUBLIC 2f960 0 QHash<QByteArray,QNetworkAccessCache::Node>::operator[](QByteArray const &)
PUBLIC 2fa50 0 QNetworkAccessCache::CacheableObject::`vector deleting destructor'(unsigned int)
PUBLIC 2faa0 0 QNetworkAccessCache::`vector deleting destructor'(unsigned int)
PUBLIC 2fb10 0 QNetworkAccessCache::addEntry(QByteArray const &,QNetworkAccessCache::CacheableObject *)
PUBLIC 2fbb0 0 QHash<QByteArray,QNetworkAccessCache::Node>::begin()
PUBLIC 2fc40 0 QNetworkAccessCache::clear()
PUBLIC 2fdb0 0 QHash<QByteArray,QNetworkAccessCache::Node>::contains(QByteArray const &)
PUBLIC 2fe30 0 QHash<QByteArray,QNetworkAccessCache::Node>::createNode(unsigned int,QByteArray const &,QNetworkAccessCache::Node const &,QHashNode<QByteArray,QNetworkAccessCache::Node> * *)
PUBLIC 2fea0 0 QHash<QByteArray,QNetworkAccessCache::Node>::deleteNode2(QHashData::Node *)
PUBLIC 2fee0 0 QHash<QByteArray,QNetworkAccessCache::Node>::detach()
PUBLIC 2ff40 0 QList<`anonymous namespace'::Receiver>::detach_helper(int)
PUBLIC 2ffc0 0 QList<`anonymous namespace'::Receiver>::detach_helper_grow(int,int)
PUBLIC 30090 0 QHash<QByteArray,QNetworkAccessCache::Node>::duplicateNode(QHashData::Node *,void *)
PUBLIC 300e0 0 QNetworkAccessCache::emitEntryReady(QNetworkAccessCache::Node *,QObject *,char const *)
PUBLIC 30150 0 QHash<QByteArray,QNetworkAccessCache::Node>::end()
PUBLIC 301b0 0 QQueue<`anonymous namespace'::Receiver>::enqueue(`anonymous namespace'::Receiver const &)
PUBLIC 30200 0 QList<`anonymous namespace'::Receiver>::erase(QList<`anonymous namespace'::Receiver>::iterator)
PUBLIC 302a0 0 QHash<QByteArray,QNetworkAccessCache::Node>::find(QByteArray const &)
PUBLIC 30370 0 QNetworkAccessCache::hasEntry(QByteArray const &)
PUBLIC 30380 0 QNetworkAccessCache::linkEntry(QByteArray const &)
PUBLIC 30410 0 QList<`anonymous namespace'::Receiver>::node_construct(QList<`anonymous namespace'::Receiver>::Node *,`anonymous namespace'::Receiver const &)
PUBLIC 30460 0 QList<`anonymous namespace'::Receiver>::node_copy(QList<`anonymous namespace'::Receiver>::Node *,QList<`anonymous namespace'::Receiver>::Node *,QList<`anonymous namespace'::Receiver>::Node *)
PUBLIC 304c0 0 QList<`anonymous namespace'::Receiver>::node_destruct(QList<`anonymous namespace'::Receiver>::Node *,QList<`anonymous namespace'::Receiver>::Node *)
PUBLIC 30510 0 QNetworkAccessCache::releaseEntry(QByteArray const &)
PUBLIC 30690 0 QHash<QByteArray,QNetworkAccessCache::Node>::remove(QByteArray const &)
PUBLIC 307b0 0 QNetworkAccessCache::removeEntry(QByteArray const &)
PUBLIC 30890 0 QNetworkAccessCache::requestEntry(QByteArray const &,QObject *,char const *)
PUBLIC 30960 0 QNetworkAccessCache::requestEntryNow(QByteArray const &)
PUBLIC 309e0 0 QNetworkAccessCache::CacheableObject::setExpires(bool)
PUBLIC 309f0 0 QNetworkAccessCache::CacheableObject::setShareable(bool)
PUBLIC 30a00 0 QList<`anonymous namespace'::Receiver>::takeFirst()
PUBLIC 30a90 0 QNetworkAccessCache::timerEvent(QTimerEvent *)
PUBLIC 30b60 0 QNetworkAccessCache::unlinkEntry(QByteArray const &)
PUBLIC 30bf0 0 QNetworkAccessCache::updateTimer()
PUBLIC 30c50 0 QGlobalNetworkProxy::QGlobalNetworkProxy()
PUBLIC 30cf0 0 QNetworkProxy::QNetworkProxy(QNetworkProxy::ProxyType,QString const &,unsigned short,QString const &,QString const &)
PUBLIC 30d50 0 QNetworkProxy::QNetworkProxy()
PUBLIC 30d70 0 QNetworkProxyPrivate::QNetworkProxyPrivate(QNetworkProxyPrivate const &)
PUBLIC 30e00 0 QNetworkProxyPrivate::QNetworkProxyPrivate(QNetworkProxy::ProxyType,QString const &,unsigned short,QString const &,QString const &)
PUBLIC 30eb0 0 QNetworkProxyQuery::QNetworkProxyQuery(QNetworkConfiguration const &,QUrl const &,QNetworkProxyQuery::QueryType)
PUBLIC 30f00 0 QNetworkProxyQuery::QNetworkProxyQuery(QString const &,int,QString const &,QNetworkProxyQuery::QueryType)
PUBLIC 30f60 0 QNetworkProxyQuery::QNetworkProxyQuery(QUrl const &,QNetworkProxyQuery::QueryType)
PUBLIC 30fa0 0 QNetworkProxyQuery::QNetworkProxyQuery(unsigned short,QString const &,QNetworkProxyQuery::QueryType)
PUBLIC 30ff0 0 QGlobalNetworkProxy::~QGlobalNetworkProxy()
PUBLIC 31060 0 QNetworkProxy::~QNetworkProxy()
PUBLIC 31090 0 QNetworkProxyPrivate::~QNetworkProxyPrivate()
PUBLIC 31120 0 QNetworkProxyQuery::~QNetworkProxyQuery()
PUBLIC 31160 0 QNetworkProxy::operator=(QNetworkProxy const &)
PUBLIC 311b0 0 QNetworkProxy::operator==(QNetworkProxy const &)
PUBLIC 311e0 0 QNetworkProxyPrivate::operator==(QNetworkProxyPrivate const &)
PUBLIC 31250 0 QHttpSocketEngineHandler::`vector deleting destructor'(unsigned int)
PUBLIC 31270 0 QNetworkProxyFactory::`vector deleting destructor'(unsigned int)
PUBLIC 31290 0 QGlobalNetworkProxy::applicationProxy()
PUBLIC 31370 0 QNetworkProxy::applicationProxy()
PUBLIC 313d0 0 QNetworkProxy::capabilities()
PUBLIC 31400 0 QSharedDataPointer<QNetworkProxyPrivate>::detach()
PUBLIC 31560 0 QSharedDataPointer<QNetworkProxyQueryPrivate>::detach()
PUBLIC 31630 0 QList<QNetworkProxy>::detach_helper(int)
PUBLIC 316d0 0 QNetworkProxy::hasRawHeader(QByteArray const &)
PUBLIC 31710 0 QNetworkProxy::hostName()
PUBLIC 317e0 0 `anonymous namespace'::Q_QGS_globalNetworkProxy::innerFunction()
PUBLIC 31870 0 QNetworkProxy::isTransparentProxy()
PUBLIC 318a0 0 QNetworkProxyQuery::peerHostName()
PUBLIC 31970 0 QNetworkProxy::port()
PUBLIC 31980 0 QNetworkProxyQuery::protocolTag()
PUBLIC 31a40 0 QGlobalNetworkProxy::proxyForQuery(QNetworkProxyQuery const &)
PUBLIC 32030 0 QNetworkProxyFactory::proxyForQuery(QNetworkProxyQuery const &)
PUBLIC 32290 0 QSystemConfigurationProxyFactory::queryProxy(QNetworkProxyQuery const &)
PUBLIC 32460 0 QNetworkProxyQuery::queryType()
PUBLIC 32470 0 QNetworkProxy::rawHeader(QByteArray const &)
PUBLIC 324e0 0 QNetworkProxy::rawHeaderList()
PUBLIC 32510 0 QGlobalNetworkProxy::setApplicationProxyFactory(QNetworkProxyFactory *)
PUBLIC 325a0 0 QNetworkProxy::setPassword(QString const &)
PUBLIC 325c0 0 QNetworkProxy::setRawHeader(QByteArray const &,QByteArray const &)
PUBLIC 32600 0 QNetworkProxy::setType(QNetworkProxy::ProxyType)
PUBLIC 32650 0 QNetworkProxy::setUser(QString const &)
PUBLIC 32670 0 QNetworkProxy::type()
PUBLIC 32680 0 QNetworkProxyQuery::url()
PUBLIC 32700 0 QAuthenticator::password()
PUBLIC 327d0 0 QNetworkSession::qt_static_metacall(QObject *,QMetaObject::Call,int,void * *)
PUBLIC 32a30 0 QNetworkSession::QNetworkSession(QNetworkConfiguration const &,QObject *)
PUBLIC 32d20 0 QNetworkSession::`vector deleting destructor'(unsigned int)
PUBLIC 32d60 0 QNetworkSession::closed()
PUBLIC 32d80 0 QNetworkSession::configuration()
PUBLIC 32df0 0 QNetworkSession::connectNotify(QMetaMethod const &)
PUBLIC 32e60 0 QNetworkSession::disconnectNotify(QMetaMethod const &)
PUBLIC 32ed0 0 QNetworkSession::error(QNetworkSession::SessionError)
PUBLIC 32f00 0 QNetworkSession::errorString()
PUBLIC 32fd0 0 QNetworkSession::isOpen()
PUBLIC 32fe0 0 QNetworkSession::metaObject()
PUBLIC 33000 0 QNetworkSession::newConfigurationActivated()
PUBLIC 33020 0 QNetworkSession::open()
PUBLIC 33060 0 QNetworkSession::opened()
PUBLIC 33080 0 QNetworkSession::preferredConfigurationChanged(QNetworkConfiguration const &,bool)
PUBLIC 330d0 0 QNetworkSession::qt_metacall(QMetaObject::Call,int,void * *)
PUBLIC 33120 0 QNetworkSession::qt_metacast(char const *)
PUBLIC 33180 0 QNetworkSession::sessionProperty(QString const &)
PUBLIC 332e0 0 QNetworkSession::setSessionProperty(QString const &,QVariant const &)
PUBLIC 33330 0 QNetworkSession::state()
PUBLIC 33340 0 QNetworkSession::stateChanged(QNetworkSession::State)
PUBLIC 33370 0 QNetworkSession::usagePolicies()
PUBLIC 333b0 0 QNetworkSession::usagePoliciesChanged(QFlags<QNetworkSession::UsagePolicy>)
PUBLIC 333e0 0 QNetworkSession::waitForOpened(int)
PUBLIC 334b0 0 QNetworkReplyImpl::qt_static_metacall(QObject *,QMetaObject::Call,int,void * *)
PUBLIC 335a0 0 QSharedPointer<char>::QSharedPointer<char><void (*)(char *)>(char *,void (*)(char *))
PUBLIC 33610 0 QSharedPointer<QRingBuffer>::create<>()
PUBLIC 33660 0 QQueue<QNetworkReplyImplPrivate::InternalNotifications>::QQueue<QNetworkReplyImplPrivate::InternalNotifications>(QQueue<QNetworkReplyImplPrivate::InternalNotifications> const &)
PUBLIC 336d0 0 QByteDataBuffer::QByteDataBuffer()
PUBLIC 33700 0 QDisabledNetworkReply::QDisabledNetworkReply(QObject *,QNetworkRequest const &,QNetworkAccessManager::Operation)
PUBLIC 33840 0 QNetworkReplyImpl::QNetworkReplyImpl(QObject *)
PUBLIC 33880 0 QNetworkReplyImplPrivate::QNetworkReplyImplPrivate()
PUBLIC 33a00 0 QRingBuffer::QRingBuffer(int)
PUBLIC 33a80 0 QByteDataBuffer::~QByteDataBuffer()
PUBLIC 33ad0 0 QNetworkReplyImpl::~QNetworkReplyImpl()
PUBLIC 33b40 0 QNetworkReplyImplPrivate::~QNetworkReplyImplPrivate()
PUBLIC 33cb0 0 QSharedPointer<char>::operator=(QSharedPointer<char> const &)
PUBLIC 33d10 0 QVariant::operator=(QVariant &&)
PUBLIC 33d50 0 QDisabledNetworkReply::`vector deleting destructor'(unsigned int)
PUBLIC 33d80 0 QNetworkReplyImpl::`vector deleting destructor'(unsigned int)
PUBLIC 33da0 0 QNetworkReplyImplPrivate::`vector deleting destructor'(unsigned int)
PUBLIC 33dc0 0 QNetworkReplyImplPrivate::_q_bufferOutgoingData()
PUBLIC 33f20 0 QNetworkReplyImplPrivate::_q_bufferOutgoingDataFinished()
PUBLIC 33fa0 0 QNetworkReplyImplPrivate::_q_copyReadyRead()
PUBLIC 342c0 0 QNetworkReplyImplPrivate::_q_networkSessionConnected()
PUBLIC 343d0 0 QNetworkReplyImplPrivate::_q_networkSessionFailed()
PUBLIC 34550 0 QNetworkReplyImplPrivate::_q_networkSessionUsagePoliciesChanged(QFlags<QNetworkSession::UsagePolicy>)
PUBLIC 34640 0 QNetworkReplyImplPrivate::_q_startOperation()
PUBLIC 349f0 0 QNetworkReplyImpl::abort()
PUBLIC 34af0 0 QList<QNetworkReplyImplPrivate::InternalNotifications>::append(QNetworkReplyImplPrivate::InternalNotifications const &)
PUBLIC 34b60 0 QByteDataBuffer::append(QByteArray const &)
PUBLIC 34b90 0 QRingBuffer::append(QByteArray const &)
PUBLIC 34c20 0 QNetworkReplyImplPrivate::appendDownstreamData(QByteDataBuffer &)
PUBLIC 34e20 0 QNetworkReplyImplPrivate::appendDownstreamData(QIODevice *)
PUBLIC 34ee0 0 QNetworkReplyImplPrivate::appendDownstreamDataSignalEmissions()
PUBLIC 35090 0 QNetworkReplyImplPrivate::backendNotify(QNetworkReplyImplPrivate::InternalNotifications)
PUBLIC 35120 0 QNetworkReplyImpl::bytesAvailable()
PUBLIC 35170 0 QByteDataBuffer::canReadLine()
PUBLIC 351e0 0 QNetworkReplyImpl::canReadLine()
PUBLIC 35210 0 QRingBuffer::chop(int)
PUBLIC 352c0 0 QList<QPair<QByteArray,QByteArray> >::clear()
PUBLIC 35310 0 QByteDataBuffer::clear()
PUBLIC 35380 0 QNetworkReplyImpl::close()
PUBLIC 35440 0 QNetworkReplyImplPrivate::completeCacheSave()
PUBLIC 354f0 0 QNetworkReplyImplPrivate::createCache()
PUBLIC 35580 0 QtSharedPointer::ExternalRefCountWithContiguousData<QRingBuffer>::deleter(QtSharedPointer::ExternalRefCountData *)
PUBLIC 355d0 0 QtSharedPointer::ExternalRefCountWithCustomDeleter<char,void (*)(char *)>::deleter(QtSharedPointer::ExternalRefCountData *)
PUBLIC 355e0 0 QList<QNetworkReplyImplPrivate::InternalNotifications>::detach_helper(int)
PUBLIC 35680 0 QList<QNetworkReplyImplPrivate::InternalNotifications>::detach_helper_grow(int,int)
PUBLIC 35770 0 QNetworkReplyImplPrivate::emitUploadProgress(__int64,__int64)
PUBLIC 35870 0 QNetworkReplyImplPrivate::encrypted()
PUBLIC 35880 0 QList<QByteArray>::erase(QList<QByteArray>::iterator)
PUBLIC 35920 0 QNetworkReplyImpl::event(QEvent *)
PUBLIC 35950 0 QNetworkReplyImplPrivate::finished()
PUBLIC 35d00 0 QNetworkReplyImplPrivate::handleNotifications()
PUBLIC 35e60 0 QNetworkReplyImpl::ignoreSslErrors()
PUBLIC 35e80 0 QNetworkReplyImpl::ignoreSslErrorsImplementation(QList<QSslError> const &)
PUBLIC 35ea0 0 QNetworkReplyImplPrivate::initCacheSaveDevice()
PUBLIC 36090 0 QNetworkReplyImplPrivate::metaDataChanged()
PUBLIC 361c0 0 QDisabledNetworkReply::metaObject()
PUBLIC 361e0 0 QNetworkReplyImpl::metaObject()
PUBLIC 36200 0 QNetworkReplyImplPrivate::migrateBackend()
PUBLIC 36340 0 QNetworkReplyImplPrivate::nextDownstreamBlockSize()
PUBLIC 363b0 0 QList<QNetworkReplyImplPrivate::InternalNotifications>::node_copy(QList<QNetworkReplyImplPrivate::InternalNotifications>::Node *,QList<QNetworkReplyImplPrivate::InternalNotifications>::Node *,QList<QNetworkReplyImplPrivate::InternalNotifications>::Node *)
PUBLIC 363f0 0 QByteDataBuffer::popFront(QByteArray &,__int64)
PUBLIC 36450 0 QNetworkReplyImpl::qt_metacall(QMetaObject::Call,int,void * *)
PUBLIC 364a0 0 QDisabledNetworkReply::qt_metacast(char const *)
PUBLIC 36500 0 QNetworkReplyImpl::qt_metacast(char const *)
PUBLIC 36560 0 QByteDataBuffer::read(char *,__int64)
PUBLIC 36700 0 QNetworkReplyImpl::readData(char *,__int64)
PUBLIC 36850 0 QNetworkReplyImplPrivate::redirectionRequested(QUrl const &)
PUBLIC 368a0 0 QNetworkReplyImplPrivate::resumeNotificationHandling()
PUBLIC 36900 0 QNetworkReplyImplPrivate::setCachingEnabled(bool)
PUBLIC 369f0 0 QNetworkReplyImpl::setReadBufferSize(__int64)
PUBLIC 36a80 0 QNetworkReplyImpl::setSslConfigurationImplementation(QSslConfiguration const &)
PUBLIC 36ab0 0 QNetworkReplyImplPrivate::setup(QNetworkAccessManager::Operation,QNetworkRequest const &,QIODevice *)
PUBLIC 36e80 0 QByteDataBuffer::squeezeFirst()
PUBLIC 36ee0 0 QNetworkReplyImpl::sslConfigurationImplementation(QSslConfiguration &)
PUBLIC 36f00 0 QNetworkReplyImplPrivate::sslErrors(QList<QSslError> const &)
PUBLIC 36f10 0 QList<QByteArray>::takeFirst()
PUBLIC 36f90 0 QNetworkAccessBackend::QNetworkAccessBackend()
PUBLIC 36fd0 0 QNetworkAccessBackendFactory::QNetworkAccessBackendFactory()
PUBLIC 37050 0 QNetworkAccessBackend::~QNetworkAccessBackend()
PUBLIC 370a0 0 QNetworkAccessBackendFactory::~QNetworkAccessBackendFactory()
PUBLIC 37120 0 QNetworkAccessBackendFactoryData::~QNetworkAccessBackendFactoryData()
PUBLIC 37190 0 QList<QString>::operator+=(QList<QString> const &)
PUBLIC 37210 0 QNetworkAccessBackend::`vector deleting destructor'(unsigned int)
PUBLIC 37270 0 QtMetaTypePrivate::QMetaTypeFunctionHelper<QSharedPointer<char>,1>::Delete(void *)
PUBLIC 372c0 0 QtMetaTypePrivate::QMetaTypeFunctionHelper<QSharedPointer<char>,1>::Destruct(void *)
PUBLIC 37300 0 QNetworkAccessBackend::authenticationRequired(QAuthenticator *)
PUBLIC 37330 0 QNetworkAccessManagerPrivate::backendSupportedSchemes()
PUBLIC 37530 0 QtPrivate::ConverterFunctor<QSharedPointer<QNetworkSession>,QObject *,QtPrivate::QSmartPointerConvertFunctor<QSharedPointer<QNetworkSession> > >::convert(QtPrivate::AbstractConverterFunction const *,void const *,void *)
PUBLIC 37540 0 QNetworkAccessBackend::createUploadByteDevice()
PUBLIC 376a0 0 QNetworkAccessBackend::emitReplyUploadProgress(__int64,__int64)
PUBLIC 376d0 0 QNetworkAccessBackend::encrypted()
PUBLIC 376e0 0 QNetworkAccessBackend::error(QNetworkReply::NetworkError,QString const &)
PUBLIC 376f0 0 QNetworkAccessBackend::fetchCacheMetaData(QNetworkCacheMetaData const &)
PUBLIC 37700 0 QNetworkAccessManagerPrivate::findBackend(QNetworkAccessManager::Operation,QNetworkRequest const &)
PUBLIC 377e0 0 QNetworkAccessBackend::finished()
PUBLIC 377f0 0 `anonymous namespace'::Q_QGS_factoryData::innerFunction()
PUBLIC 378a0 0 QNetworkAccessBackend::metaDataChanged()
PUBLIC 378b0 0 QtPrivate::QVariantValueHelper<QString>::metaType(QVariant const &)
PUBLIC 37970 0 QNetworkAccessBackend::networkCache()
PUBLIC 37980 0 QNetworkAccessBackend::nextDownstreamBlockSize()
PUBLIC 37990 0 QNetworkAccessBackend::operation()
PUBLIC 379a0 0 QNetworkAccessBackend::proxyAuthenticationRequired(QNetworkProxy const &,QAuthenticator *)
PUBLIC 379e0 0 QNetworkAccessBackend::proxyList()
PUBLIC 37a50 0 QtPrivate::SharedPointerMetaTypeIdHelper<QSharedPointer<QNetworkSession>,1>::qt_metatype_id()
PUBLIC 37b40 0 QNetworkAccessBackend::redirectionRequested(QUrl const &)
PUBLIC 37b50 0 QtPrivate::MetaTypeSmartPointerHelper<QSharedPointer<QNetworkSession>,void>::registerConverter(int)
PUBLIC 37bb0 0 QNetworkAccessBackend::request()
PUBLIC 37bd0 0 QNetworkAccessBackend::setAttribute(QNetworkRequest::Attribute,QVariant const &)
PUBLIC 37c10 0 QNetworkAccessBackend::setCachingEnabled(bool)
PUBLIC 37c20 0 QNetworkAccessBackend::setHeader(QNetworkRequest::KnownHeaders,QVariant const &)
PUBLIC 37c30 0 QNetworkAccessBackend::setRawHeader(QByteArray const &,QByteArray const &)
PUBLIC 37c40 0 QNetworkAccessBackend::setUrl(QUrl const &)
PUBLIC 37c50 0 QNetworkAccessBackend::sslErrors(QList<QSslError> const &)
PUBLIC 37c60 0 QNetworkAccessBackend::start()
PUBLIC 37fb0 0 QNetworkAccessBackend::url()
PUBLIC 37fd0 0 QNetworkAccessBackend::writeDownstreamData(QByteDataBuffer &)
PUBLIC 37fe0 0 QNetworkAccessBackend::writeDownstreamData(QIODevice *)
PUBLIC 37ff0 0 std::_Lower_bound<QNetworkAuthenticationCredential *,QString,int,std::less<void> >(QNetworkAuthenticationCredential *,QNetworkAuthenticationCredential *,QString const &,std::less<void>,int *)
PUBLIC 38050 0 QNetworkAuthenticationCache::QNetworkAuthenticationCache()
PUBLIC 380c0 0 QNetworkAuthenticationCredential::QNetworkAuthenticationCredential(QNetworkAuthenticationCredential const &)
PUBLIC 38120 0 QVector<QNetworkAuthenticationCredential>::~QVector<QNetworkAuthenticationCredential>()
PUBLIC 38180 0 QStringBuilder<char const [6],QByteArray>::operator QByteArray()
PUBLIC 381e0 0 QNetworkAuthenticationCache::`vector deleting destructor'(unsigned int)
PUBLIC 38320 0 QNetworkAccessAuthenticationManager::cacheCredentials(QUrl const &,QAuthenticator const *)
PUBLIC 386d0 0 QNetworkAccessAuthenticationManager::cacheProxyCredentials(QNetworkProxy const &,QAuthenticator const *)
PUBLIC 38ad0 0 QVector<QNetworkAuthenticationCredential>::defaultConstruct(QNetworkAuthenticationCredential *,QNetworkAuthenticationCredential *)
PUBLIC 38b10 0 QVector<QNetworkAuthenticationCredential>::destruct(QNetworkAuthenticationCredential *,QNetworkAuthenticationCredential *)
PUBLIC 38b40 0 QNetworkAuthenticationCache::dispose()
PUBLIC 38b50 0 QVector<QNetworkAuthenticationCredential>::end()
PUBLIC 38bc0 0 QNetworkAccessAuthenticationManager::fetchCachedCredentials(QUrl const &,QAuthenticator const *)
PUBLIC 38e30 0 QNetworkAccessAuthenticationManager::fetchCachedProxyCredentials(QNetworkProxy const &,QAuthenticator const *)
PUBLIC 390c0 0 QNetworkAuthenticationCache::findClosestMatch(QString const &)
PUBLIC 39180 0 QVector<QNetworkAuthenticationCredential>::freeData(QTypedArrayData<QNetworkAuthenticationCredential> *)
PUBLIC 391d0 0 QVector<QNetworkAuthenticationCredential>::insert(QNetworkAuthenticationCredential *,int,QNetworkAuthenticationCredential const &)
PUBLIC 39360 0 QNetworkAuthenticationCache::insert(QString const &,QString const &,QString const &)
PUBLIC 396f0 0 QVector<QNetworkAuthenticationCredential>::reallocData(int,int,QFlags<QArrayData::AllocationOption>)
PUBLIC 39900 0 QLatin1String::QLatin1String(QByteArray const &)
PUBLIC 39950 0 QNetworkCookie::QNetworkCookie(QByteArray const &,QByteArray const &)
PUBLIC 39a00 0 QNetworkCookiePrivate::QNetworkCookiePrivate(QNetworkCookiePrivate const &)
PUBLIC 39ab0 0 QNetworkCookie::~QNetworkCookie()
PUBLIC 39b10 0 QNetworkCookiePrivate::~QNetworkCookiePrivate()
PUBLIC 39c00 0 operator==(QByteArray const &,char const *)
PUBLIC 39c30 0 QStringBuilder<QString,QString>::operator QString()
PUBLIC 39c70 0 QList<QNetworkCookie>::operator+=(QNetworkCookie const &)
PUBLIC 39d50 0 QSharedDataPointer<QNetworkCookiePrivate>::detach_helper()
PUBLIC 39db0 0 QNetworkCookie::domain()
PUBLIC 39de0 0 QNetworkCookie::expirationDate()
PUBLIC 39e00 0 QNetworkCookie::hasSameIdentifier(QNetworkCookie const &)
PUBLIC 39e60 0 QNetworkCookie::isSecure()
PUBLIC 39e70 0 QNetworkCookie::isSessionCookie()
PUBLIC 39e90 0 QDate::isValid()
PUBLIC 3a160 0 QNetworkCookie::normalize(QUrl const &)
PUBLIC 3a390 0 QNetworkCookie::parseCookies(QByteArray const &)
PUBLIC 3b0d0 0 QNetworkCookiePrivate::parseSetCookieHeaderLine(QByteArray const &)
PUBLIC 3bc90 0 QHostInfo::hostName()
PUBLIC 3bcc0 0 QNetworkCookie::toRawForm(QNetworkCookie::RawForm)
PUBLIC 3c040 0 QNetworkCookieJar::QNetworkCookieJar(QObject *)
PUBLIC 3c090 0 QNetworkCookieJar::`vector deleting destructor'(unsigned int)
PUBLIC 3c0c0 0 QNetworkCookieJarPrivate::`vector deleting destructor'(unsigned int)
PUBLIC 3c0f0 0 QNetworkCookieJar::cookiesForUrl(QUrl const &)
PUBLIC 3c3f0 0 QNetworkCookieJar::deleteCookie(QNetworkCookie const &)
PUBLIC 3c4c0 0 QList<QNetworkCookie>::detach_helper(int)
PUBLIC 3c560 0 QList<QNetworkCookie>::insert(QList<QNetworkCookie>::iterator,QNetworkCookie const &)
PUBLIC 3c5b0 0 QNetworkCookieJar::insertCookie(QNetworkCookie const &)
PUBLIC 3c8a0 0 QNetworkCookieJar::setCookiesFromUrl(QList<QNetworkCookie> const &,QUrl const &)
PUBLIC 3c9a0 0 QNetworkCookieJar::updateCookie(QNetworkCookie const &)
PUBLIC 3c9d0 0 QNetworkCookieJar::validateCookie(QNetworkCookie const &,QUrl const &)
PUBLIC 3cae0 0 QSharedPointer<QNetworkSession>::QSharedPointer<QNetworkSession><void (*)(QObject *)>(QNetworkSession *,void (*)(QObject *))
PUBLIC 3cb50 0 QHash<QNetworkConfiguration,QWeakPointer<QNetworkSession> >::operator[](QNetworkConfiguration const &)
PUBLIC 3cc20 0 QHash<QNetworkConfiguration,QWeakPointer<QNetworkSession> >::createNode(unsigned int,QNetworkConfiguration const &,QWeakPointer<QNetworkSession> const &,QHashNode<QNetworkConfiguration,QWeakPointer<QNetworkSession> > * *)
PUBLIC 3cc90 0 QThreadStorage<QSharedNetworkSessionManager *>::deleteData(void *)
PUBLIC 3ccd0 0 QHash<QNetworkConfiguration,QWeakPointer<QNetworkSession> >::deleteNode2(QHashData::Node *)
PUBLIC 3cd10 0 QHash<QNetworkConfiguration,QWeakPointer<QNetworkSession> >::duplicateNode(QHashData::Node *,void *)
PUBLIC 3cd60 0 QHash<QNetworkConfiguration,QWeakPointer<QNetworkSession> >::findNode(QNetworkConfiguration const &,unsigned int *)
PUBLIC 3ce20 0 QSharedNetworkSessionManager::getSession(QNetworkConfiguration)
PUBLIC 3cfa0 0 sharedNetworkSessionManager()
PUBLIC 3d000 0 QNetworkAccessFtpBackend::QNetworkAccessFtpBackend()
PUBLIC 3d060 0 QStringList::QStringList(QString const &)
PUBLIC 3d080 0 QNetworkAccessFtpBackend::~QNetworkAccessFtpBackend()
PUBLIC 3d0e9 0 [thunk]:QNetworkAccessCachedFtpConnection::`vector deleting destructor'`adjustor{8}' (unsigned int)
PUBLIC 3d100 0 QNetworkAccessCachedFtpConnection::`vector deleting destructor'(unsigned int)
PUBLIC 3d130 0 QNetworkAccessFtpBackend::`vector deleting destructor'(unsigned int)
PUBLIC 3d150 0 QNetworkAccessFtpBackend::closeDownstreamChannel()
PUBLIC 3d190 0 QString::contains(QLatin1String,Qt::CaseSensitivity)
PUBLIC 3d1b0 0 QNetworkAccessFtpBackendFactory::create(QNetworkAccessManager::Operation,QNetworkRequest const &)
PUBLIC 3d270 0 QNetworkAccessFtpBackend::disconnectFromFtp(QNetworkAccessFtpBackend::CacheCleanupMode)
PUBLIC 3d390 0 QNetworkAccessCachedFtpConnection::dispose()
PUBLIC 3d3d0 0 QNetworkAccessFtpBackend::downstreamReadyWrite()
PUBLIC 3d410 0 QNetworkAccessFtpBackend::ftpConnectionReady(QNetworkAccessCache::CacheableObject *)
PUBLIC 3d500 0 QNetworkAccessFtpBackend::ftpDone()
PUBLIC 3ddd0 0 QNetworkAccessFtpBackend::ftpRawCommandReply(int,QString const &)
PUBLIC 3df00 0 QNetworkAccessFtpBackend::ftpReadyRead()
PUBLIC 3e110 0 QNetworkAccessFtpBackend::open()
PUBLIC 3e780 0 QNetworkAccessFtpBackendFactory::supportedSchemes()
PUBLIC 3e7b0 0 QNetworkAccessFileBackend::QNetworkAccessFileBackend()
PUBLIC 3e7f0 0 QStringBuilder<QLatin1Char,QString>::operator QString()
PUBLIC 3e840 0 QNetworkAccessFileBackend::`vector deleting destructor'(unsigned int)
PUBLIC 3e870 0 QNetworkAccessFileBackend::closeDownstreamChannel()
PUBLIC 3e890 0 QNetworkAccessFileBackendFactory::create(QNetworkAccessManager::Operation,QNetworkRequest const &)
PUBLIC 3eae0 0 QNetworkAccessFileBackend::downstreamReadyWrite()
PUBLIC 3eaf0 0 QNetworkAccessFileBackend::loadFileInfo()
PUBLIC 3eca0 0 QNetworkAccessFileBackend::open()
PUBLIC 3f190 0 QNetworkAccessFileBackend::readMoreFromFile()
PUBLIC 3f660 0 QNetworkAccessFileBackendFactory::supportedSchemes()
PUBLIC 3f6a0 0 QNetworkAccessFileBackend::uploadReadyReadSlot()
PUBLIC 3f8a0 0 QNetworkAccessCacheBackend::QNetworkAccessCacheBackend()
PUBLIC 3f8c0 0 QNetworkAccessCacheBackend::`vector deleting destructor'(unsigned int)
PUBLIC 3f8f0 0 QNetworkAccessCacheBackend::open()
PUBLIC 3fa40 0 QNetworkAccessCacheBackend::sendCacheContents()
PUBLIC 3fd80 0 QNetworkReplyDataImpl::QNetworkReplyDataImpl(QObject *,QNetworkRequest const &,QNetworkAccessManager::Operation)
PUBLIC 401c0 0 QNetworkReplyDataImplPrivate::~QNetworkReplyDataImplPrivate()
PUBLIC 40230 0 QNetworkReplyDataImpl::`vector deleting destructor'(unsigned int)
PUBLIC 40260 0 QNetworkReplyDataImplPrivate::`vector deleting destructor'(unsigned int)
PUBLIC 40280 0 QNetworkReplyDataImpl::bytesAvailable()
PUBLIC 402b0 0 QNetworkReplyDataImpl::abort()
PUBLIC 402c0 0 QNetworkReplyDataImpl::metaObject()
PUBLIC 402e0 0 QDisabledNetworkReply::qt_metacall(QMetaObject::Call,int,void * *)
PUBLIC 402f0 0 QNetworkReplyDataImpl::qt_metacast(char const *)
PUBLIC 40350 0 QNetworkReplyDataImpl::readData(char *,__int64)
PUBLIC 40370 0 QNetworkReplyDataImpl::size()
PUBLIC 40380 0 QNetworkReplyFileImpl::QNetworkReplyFileImpl(QObject *,QNetworkRequest const &,QNetworkAccessManager::Operation)
PUBLIC 40be0 0 QNetworkReplyFileImplPrivate::~QNetworkReplyFileImplPrivate()
PUBLIC 40c40 0 QNetworkReplyFileImpl::`vector deleting destructor'(unsigned int)
PUBLIC 40c70 0 QNetworkReplyFileImplPrivate::`vector deleting destructor'(unsigned int)
PUBLIC 40c90 0 QNetworkReplyFileImpl::bytesAvailable()
PUBLIC 40cd0 0 QNetworkReplyFileImpl::abort()
PUBLIC 40cf0 0 QNetworkReplyFileImpl::metaObject()
PUBLIC 40d10 0 QNetworkReplyFileImpl::qt_metacast(char const *)
PUBLIC 40d70 0 QNetworkReplyFileImpl::readData(char *,__int64)
PUBLIC 40e00 0 QNetworkReplyFileImpl::size()
PUBLIC 40e10 0 QConcatenable<QStringBuilder<QStringBuilder<char,QByteArray>,char> >::appendTo<char>(QStringBuilder<QStringBuilder<char,QByteArray>,char> const &,char * &)
PUBLIC 40e70 0 QConcatenable<QStringBuilder<QStringBuilder<QStringBuilder<char,QByteArray>,char>,QByteArray> >::appendTo<char>(QStringBuilder<QStringBuilder<QStringBuilder<char,QByteArray>,char>,QByteArray> const &,char * &)
PUBLIC 40ed0 0 QConcatenable<QStringBuilder<QStringBuilder<QByteArray,char>,QByteArray> >::appendTo<char>(QStringBuilder<QStringBuilder<QByteArray,char>,QByteArray> const &,char * &)
PUBLIC 40f30 0 QConcatenable<QStringBuilder<QByteArray,char> >::appendTo<char>(QStringBuilder<QByteArray,char> const &,char * &)
PUBLIC 40f90 0 QtStringBuilder::appendToByteArray<char const [13],QByteArray>(QByteArray &,QStringBuilder<char const [13],QByteArray> const &,char)
PUBLIC 41010 0 QtStringBuilder::appendToByteArray<QStringBuilder<char const [4],QByteArray>,char const [3]>(QByteArray &,QStringBuilder<QStringBuilder<char const [4],QByteArray>,char const [3]> const &,char)
PUBLIC 410b0 0 QtStringBuilder::appendToByteArray<QStringBuilder<char const [6],QByteArray>,char const [4]>(QByteArray &,QStringBuilder<QStringBuilder<char const [6],QByteArray>,char const [4]> const &,char)
PUBLIC 41150 0 QtStringBuilder::appendToByteArray<QStringBuilder<char const [8],QByteArray>,char const [4]>(QByteArray &,QStringBuilder<QStringBuilder<char const [8],QByteArray>,char const [4]> const &,char)
PUBLIC 411f0 0 QtStringBuilder::appendToByteArray<QStringBuilder<char const [9],QByteArray>,char const [4]>(QByteArray &,QStringBuilder<QStringBuilder<char const [9],QByteArray>,char const [4]> const &,char)
PUBLIC 41290 0 QtStringBuilder::appendToByteArray<QStringBuilder<char const [9],QByteArray>,char>(QByteArray &,QStringBuilder<QStringBuilder<char const [9],QByteArray>,char> const &,char)
PUBLIC 41320 0 QtStringBuilder::appendToByteArray<QStringBuilder<char const [11],QByteArray>,char const [4]>(QByteArray &,QStringBuilder<QStringBuilder<char const [11],QByteArray>,char const [4]> const &,char)
PUBLIC 413c0 0 QtStringBuilder::appendToByteArray<QStringBuilder<char const [11],QByteArray>,char>(QByteArray &,QStringBuilder<QStringBuilder<char const [11],QByteArray>,char> const &,char)
PUBLIC 41450 0 QAuthenticatorPrivate::QAuthenticatorPrivate()
PUBLIC 41620 0 QNtlmPhase3Block::QNtlmPhase3Block()
PUBLIC 416a0 0 QVariant::QVariant(QVariant &&)
PUBLIC 41710 0 QHash<QByteArray,QByteArray>::~QHash<QByteArray,QByteArray>()
PUBLIC 41740 0 QHashNode<QByteArray,QByteArray>::~QHashNode<QByteArray,QByteArray>()
PUBLIC 417a0 0 QAuthenticator::~QAuthenticator()
PUBLIC 417c0 0 QAuthenticatorPrivate::~QAuthenticatorPrivate()
PUBLIC 41960 0 QNtlmPhase1Block::~QNtlmPhase1Block()
PUBLIC 419c0 0 QNtlmPhase2Block::~QNtlmPhase2Block()
PUBLIC 41a50 0 QNtlmPhase3Block::~QNtlmPhase3Block()
PUBLIC 41b80 0 QHash<QString,QVariant>::operator=(QHash<QString,QVariant> const &)
PUBLIC 41bf0 0 QAuthenticator::operator=(QAuthenticator const &)
PUBLIC 41ce0 0 QByteRef::operator=(char)
PUBLIC 41f90 0 QHash<QString,QVariant>::operator==(QHash<QString,QVariant> const &)
PUBLIC 42070 0 QHash<QByteArray,QByteArray>::operator[](QByteArray const &)
PUBLIC 42170 0 QHash<QString,QVariant>::operator[](QString const &)
PUBLIC 42260 0 QAuthenticatorPrivate::calculateResponse(QByteArray const &,QByteArray const &)
PUBLIC 42800 0 QString::contains(QChar,Qt::CaseSensitivity)
PUBLIC 42820 0 QHash<QByteArray,QByteArray>::createNode(unsigned int,QByteArray const &,QByteArray const &,QHashNode<QByteArray,QByteArray> * *)
PUBLIC 428a0 0 QHash<QString,QVariant>::createNode(unsigned int,QString const &,QVariant const &,QHashNode<QString,QVariant> * *)
PUBLIC 42910 0 QHash<QByteArray,QByteArray>::deleteNode2(QHashData::Node *)
PUBLIC 42920 0 QHash<QString,QVariant>::deleteNode2(QHashData::Node *)
PUBLIC 42960 0 QHash<QString,QVariant>::detach()
PUBLIC 429c0 0 QAuthenticator::detach()
PUBLIC 42a00 0 QHash<QString,QVariant>::detach_helper()
PUBLIC 42a50 0 QAuthenticatorPrivate::digestMd5Response(QByteArray const &,QByteArray const &,QByteArray const &)
PUBLIC 43650 0 QHash<QByteArray,QByteArray>::duplicateNode(QHashData::Node *,void *)
PUBLIC 436a0 0 QHash<QString,QVariant>::duplicateNode(QHashData::Node *,void *)
PUBLIC 436f0 0 QHash<QString,QVariant>::find(QString const &)
PUBLIC 43770 0 QAuthenticatorPrivate::parseDigestAuthenticationChallenge(QByteArray const &)
PUBLIC 43af0 0 QAuthenticatorPrivate::parseHttpResponse(QList<QPair<QByteArray,QByteArray> > const &,bool)
PUBLIC 444c0 0 qEncodeHmacMd5(QByteArray &,QByteArray const &)
PUBLIC 45a40 0 QNetworkInterface::hardwareAddress()
PUBLIC 45b10 0 QAuthenticator::setPassword(QString const &)
PUBLIC 45b80 0 QAuthenticator::setUser(QString const &)
PUBLIC 45bd0 0 QAuthenticatorPrivate::updateCredentials()
PUBLIC 45da0 0 QAuthenticator::user()
PUBLIC 45e60 0 QHash<QByteArray,QByteArray>::value(QByteArray const &)
PUBLIC 45f10 0 QHttpNetworkRequest::QHttpNetworkRequest(QHttpNetworkRequest const &)
PUBLIC 45f40 0 QHttpNetworkRequest::QHttpNetworkRequest(QUrl const &,QHttpNetworkRequest::Operation,QHttpNetworkRequest::Priority)
PUBLIC 45fb0 0 QHttpNetworkRequestPrivate::QHttpNetworkRequestPrivate(QHttpNetworkRequestPrivate const &)
PUBLIC 46020 0 QHttpNetworkRequest::~QHttpNetworkRequest()
PUBLIC 46070 0 QHttpNetworkRequestPrivate::~QHttpNetworkRequestPrivate()
PUBLIC 460f0 0 QHttpNetworkRequest::operator=(QHttpNetworkRequest const &)
PUBLIC 46140 0 QHttpNetworkRequest::operator==(QHttpNetworkRequest const &)
PUBLIC 46160 0 QHttpNetworkRequestPrivate::operator==(QHttpNetworkRequestPrivate const &)
PUBLIC 461f0 0 QSharedDataPointer<QHttpNetworkRequestPrivate>::operator->()
PUBLIC 46210 0 QHttpNetworkHeader::`vector deleting destructor'(unsigned int)
PUBLIC 46230 0 QHttpNetworkRequest::`vector deleting destructor'(unsigned int)
PUBLIC 46280 0 QHttpNetworkRequest::contentLength()
PUBLIC 46290 0 QSharedDataPointer<QHttpNetworkRequestPrivate>::detach_helper()
PUBLIC 462f0 0 QHttpNetworkRequest::header()
PUBLIC 46360 0 QHttpNetworkRequestPrivate::header(QHttpNetworkRequest const &,bool)
PUBLIC 467b0 0 QHttpNetworkRequest::headerField(QByteArray const &,QByteArray const &)
PUBLIC 467d0 0 QHttpNetworkRequest::isPipeliningAllowed()
PUBLIC 467e0 0 QHttpNetworkRequest::isPreConnect()
PUBLIC 467f0 0 QHttpNetworkRequest::isSPDYAllowed()
PUBLIC 46800 0 QHttpNetworkRequest::isSsl()
PUBLIC 46810 0 QHttpNetworkRequest::methodName()
PUBLIC 46930 0 QHttpNetworkRequest::majorVersion()
PUBLIC 46940 0 QHttpNetworkRequest::operation()
PUBLIC 46950 0 QHttpNetworkRequest::priority()
PUBLIC 46960 0 QHttpNetworkRequest::setContentLength(__int64)
PUBLIC 46990 0 QHttpNetworkRequest::setCustomVerb(QByteArray const &)
PUBLIC 469c0 0 QHttpNetworkRequest::setHeaderField(QByteArray const &,QByteArray const &)
PUBLIC 469f0 0 QHttpNetworkRequest::setOperation(QHttpNetworkRequest::Operation)
PUBLIC 46a30 0 QHttpNetworkRequest::setPipeliningAllowed(bool)
PUBLIC 46a70 0 QHttpNetworkRequest::setPreConnect(bool)
PUBLIC 46ab0 0 QHttpNetworkRequest::setPriority(QHttpNetworkRequest::Priority)
PUBLIC 46af0 0 QHttpNetworkRequest::setSPDYAllowed(bool)
PUBLIC 46b30 0 QHttpNetworkRequest::setSsl(bool)
PUBLIC 46b70 0 QHttpNetworkRequest::setUploadByteDevice(QNonContiguousByteDevice *)
PUBLIC 46bb0 0 QHttpNetworkRequest::setUrl(QUrl const &)
PUBLIC 46be0 0 QHttpNetworkRequest::setWithCredentials(bool)
PUBLIC 46c20 0 QHttpNetworkRequest::uploadByteDevice()
PUBLIC 46c30 0 QHttpNetworkRequest::uri(bool)
PUBLIC 46d20 0 QHttpNetworkRequest::url()
PUBLIC 46d40 0 QHttpNetworkRequest::withCredentials()
PUBLIC 46d50 0 QConcatenable<QStringBuilder<QStringBuilder<QStringBuilder<char const [7],QByteArray>,char>,QByteArray> >::appendTo<char>(QStringBuilder<QStringBuilder<QStringBuilder<char const [7],QByteArray>,char>,QByteArray> const &,char * &)
PUBLIC 46dc0 0 QByteDataBuffer::QByteDataBuffer(QByteDataBuffer const &)
PUBLIC 46e40 0 QNetworkReplyHttpImpl::QNetworkReplyHttpImpl(QNetworkAccessManager * const,QNetworkRequest const &,QNetworkAccessManager::Operation &,QIODevice *)
PUBLIC 471c0 0 QNetworkReplyHttpImplPrivate::QNetworkReplyHttpImplPrivate()
PUBLIC 47460 0 QNetworkReplyHttpImplPrivate::~QNetworkReplyHttpImplPrivate()
PUBLIC 476d0 0 QDebug::operator<<(__int64)
PUBLIC 47700 0 QNetworkReplyHttpImpl::`vector deleting destructor'(unsigned int)
PUBLIC 47730 0 QNetworkReplyHttpImplPrivate::`vector deleting destructor'(unsigned int)
PUBLIC 47750 0 QNonContiguousByteDeviceThreadForwardImpl::`vector deleting destructor'(unsigned int)
PUBLIC 477b0 0 QNetworkReplyHttpImplPrivate::_q_bufferOutgoingData()
PUBLIC 47910 0 QNetworkReplyHttpImplPrivate::_q_bufferOutgoingDataFinished()
PUBLIC 47990 0 QNetworkReplyHttpImplPrivate::_q_cacheLoadReadyRead()
PUBLIC 47bc0 0 QNetworkReplyHttpImplPrivate::_q_cacheSaveDeviceAboutToClose()
PUBLIC 47bd0 0 QNetworkReplyHttpImplPrivate::_q_finished()
PUBLIC 47be0 0 QNetworkReplyHttpImplPrivate::_q_metaDataChanged()
PUBLIC 47cf0 0 QNetworkReplyHttpImplPrivate::_q_networkSessionConnected()
PUBLIC 47dd0 0 QNetworkReplyHttpImplPrivate::_q_networkSessionFailed()
PUBLIC 47f40 0 QNetworkReplyHttpImplPrivate::_q_networkSessionUsagePoliciesChanged(QFlags<QNetworkSession::UsagePolicy>)
PUBLIC 48020 0 QNetworkReplyHttpImplPrivate::_q_startOperation()
PUBLIC 48390 0 QNetworkReplyHttpImpl::abort()
PUBLIC 48450 0 QNonContiguousByteDeviceThreadForwardImpl::advanceReadPointer(__int64)
PUBLIC 48490 0 QNonContiguousByteDeviceThreadForwardImpl::atEnd()
PUBLIC 484b0 0 QNetworkReplyHttpImpl::bytesAvailable()
PUBLIC 48550 0 QNetworkReplyHttpImpl::canReadLine()
PUBLIC 485d0 0 QNetworkReplyHttpImplPrivate::canResume()
PUBLIC 487a0 0 QNetworkReplyHttpImplPrivate::checkForRedirect(int)
PUBLIC 48950 0 QNetworkReplyHttpImpl::close()
PUBLIC 489d0 0 QNetworkReplyHttpImplPrivate::completeCacheSave()
PUBLIC 48a40 0 QNetworkReplyHttpImplPrivate::createCache()
PUBLIC 48ad0 0 QNetworkReplyHttpImplPrivate::createUploadByteDevice()
PUBLIC 48c40 0 QNetworkReplyHttpImplPrivate::emitReplyUploadProgress(__int64,__int64)
PUBLIC 48cd0 0 QNetworkReplyHttpImplPrivate::fetchCacheMetaData(QNetworkCacheMetaData const &)
PUBLIC 497e0 0 QNetworkReplyHttpImplPrivate::finished()
PUBLIC 49b20 0 QNetworkReplyHttpImplPrivate::httpAuthenticationRequired(QHttpNetworkRequest const &,QAuthenticator *)
PUBLIC 49b60 0 QNetworkReplyHttpImplPrivate::_q_error(QNetworkReply::NetworkError,QString const &)
PUBLIC 49bd0 0 QNetworkReplyHttpImpl::ignoreSslErrors()
PUBLIC 49be0 0 QNetworkReplyHttpImpl::ignoreSslErrorsImplementation(QList<QSslError> const &)
PUBLIC 49c20 0 QList<QByteArray>::indexOf(QByteArray const &,int)
PUBLIC 49d20 0 QNetworkReplyHttpImplPrivate::initCacheSaveDevice()
PUBLIC 49f10 0 QHash<QByteArray,QByteArray>::insert(QByteArray const &,QByteArray const &)
PUBLIC 49fe0 0 QNetworkReplyHttpImplPrivate::loadFromCacheIfAllowed(QHttpNetworkRequest &)
PUBLIC 4a740 0 QNetworkReplyHttpImplPrivate::migrateBackend()
PUBLIC 4ac60 0 QNetworkReplyHttpImplPrivate::postRequest()
PUBLIC 4c670 0 QNetworkReplyHttpImplPrivate::proxyAuthenticationRequired(QNetworkProxy const &,QAuthenticator *)
PUBLIC 4c6c0 0 QNetworkReplyHttpImpl::readData(char *,__int64)
PUBLIC 4c870 0 QNonContiguousByteDeviceThreadForwardImpl::readPointer(__int64,__int64 &)
PUBLIC 4c8e0 0 QList<QByteArray>::removeAt(int)
PUBLIC 4c950 0 QNetworkReplyHttpImplPrivate::replyDownloadData(QByteArray)
PUBLIC 4ccb0 0 QNetworkReplyHttpImplPrivate::replyDownloadMetaData(QList<QPair<QByteArray,QByteArray> >,int,QString,bool,QSharedPointer<char>,__int64,bool)
PUBLIC 4d300 0 QNetworkReplyHttpImplPrivate::replyDownloadProgressSlot(__int64,__int64)
PUBLIC 4d410 0 QNetworkReplyHttpImplPrivate::replyFinished()
PUBLIC 4d420 0 QNetworkReplyHttpImplPrivate::replySslConfigurationChanged(QSslConfiguration const &)
PUBLIC 4d430 0 QNetworkReplyHttpImplPrivate::replySslErrors(QList<QSslError> const &,bool *,QList<QSslError> *)
PUBLIC 4d490 0 QNonContiguousByteDeviceThreadForwardImpl::reset()
PUBLIC 4d4c0 0 QNetworkReplyHttpImplPrivate::resetUploadDataSlot(bool *)
PUBLIC 4d4e0 0 QNetworkReplyHttpImplPrivate::sendCacheContents(QNetworkCacheMetaData const &)
PUBLIC 4d7e0 0 QNetworkReplyHttpImplPrivate::sentUploadDataSlot(__int64)
PUBLIC 4d800 0 QNetworkReplyHttpImplPrivate::setCachingEnabled(bool)
PUBLIC 4d940 0 QNetworkReplyHttpImpl::setReadBufferSize(__int64)
PUBLIC 4d970 0 QNetworkReplyHttpImpl::size()
PUBLIC 4d980 0 QNonContiguousByteDeviceThreadForwardImpl::size()
PUBLIC 4d990 0 QNetworkReplyHttpImpl::sslConfigurationImplementation(QSslConfiguration &)
PUBLIC 4d9b0 0 QNetworkReplyHttpImplPrivate::start()
PUBLIC 4db40 0 QNetworkReplyHttpImplPrivate::uploadByteDeviceReadyReadSlot()
PUBLIC 4db60 0 QNetworkReplyHttpImplPrivate::wantUploadDataSlot(__int64)
PUBLIC 4dc30 0 QNetworkReply::qt_static_metacall(QObject *,QMetaObject::Call,int,void * *)
PUBLIC 4ddd0 0 QNetworkReply::downloadProgress(__int64,__int64)
PUBLIC 4de20 0 QNetworkReply::encrypted()
PUBLIC 4de40 0 QNetworkReply::error(QNetworkReply::NetworkError)
PUBLIC 4de70 0 QNetworkReply::finished()
PUBLIC 4de90 0 QNetworkReply::metaDataChanged()
PUBLIC 4deb0 0 QNetworkReply::metaObject()
PUBLIC 4ded0 0 QNetworkReply::qt_metacall(QMetaObject::Call,int,void * *)
PUBLIC 4df20 0 QNetworkReply::qt_metacast(char const *)
PUBLIC 4df80 0 QNetworkReply::sslErrors(QList<QSslError> const &)
PUBLIC 4dfb0 0 QNetworkReply::uploadProgress(__int64,__int64)
PUBLIC 4e000 0 QHostAddress::QHostAddress(QHostAddress const &)
PUBLIC 4e080 0 QHostAddress::QHostAddress(QString const &)
PUBLIC 4e0e0 0 QHostAddress::QHostAddress(unsigned int)
PUBLIC 4e160 0 QHostAddress::QHostAddress(QHostAddress::SpecialAddress)
PUBLIC 4e2b0 0 QHostAddress::QHostAddress()
PUBLIC 4e300 0 QPair<QHostAddress,int>::~QPair<QHostAddress,int>()
PUBLIC 4e320 0 QFileSystemEntry::~QFileSystemEntry()
PUBLIC 4e380 0 QHostAddress::operator=(QHostAddress const &)
PUBLIC 4e3d0 0 QHostAddress::operator==(QHostAddress const &)
PUBLIC 4e460 0 QHostAddress::operator==(QHostAddress::SpecialAddress)
PUBLIC 4e500 0 QHostAddress::clear()
PUBLIC 4e580 0 QHostAddress::isInSubnet(QPair<QHostAddress,int> const &)
PUBLIC 4e590 0 QHostAddress::isInSubnet(QHostAddress const &,int)
PUBLIC 4e710 0 QHostAddress::isLoopback()
PUBLIC 4e890 0 QHostAddress::isNull()
PUBLIC 4e9d0 0 QList<QString>::last()
PUBLIC 4ea00 0 QHostAddressPrivate::parse()
PUBLIC 4eca0 0 QHostAddress::parseSubnet(QString const &)
PUBLIC 4f150 0 QNetmaskAddress::prefixLength()
PUBLIC 4f160 0 QHostAddress::protocol()
PUBLIC 4f2a0 0 qHash(QHostAddress const &,unsigned int)
PUBLIC 4f310 0 QList<QString>::removeLast()
PUBLIC 4f350 0 QHostAddress::scopeId()
PUBLIC 4f430 0 QHostAddress::setAddress(QIPv6Address const &)
PUBLIC 4f470 0 QHostAddress::setAddress(unsigned int)
PUBLIC 4f4b0 0 QHostAddress::setAddress(unsigned char *)
PUBLIC 4f4c0 0 QHostAddress::setAddress(QString const &)
PUBLIC 4f4e0 0 QHostAddressPrivate::setAddress(QIPv6Address const &)
PUBLIC 4f520 0 QHostAddressPrivate::setAddress(unsigned int)
PUBLIC 4f560 0 QHostAddressPrivate::setAddress(unsigned char const *)
PUBLIC 4f5f0 0 QNetmaskAddress::setAddress(QHostAddress const &)
PUBLIC 4f8d0 0 QNetmaskAddress::setAddress(QString const &)
PUBLIC 4f970 0 QNetmaskAddress::setPrefixLength(QAbstractSocket::NetworkLayerProtocol,int)
PUBLIC 4fa30 0 QHostAddress::setScopeId(QString const &)
PUBLIC 4fb80 0 QHostAddress::toIPv4Address()
PUBLIC 4fcc0 0 QHostAddress::toIPv6Address()
PUBLIC 4fe10 0 QHostAddress::toString()
PUBLIC 4ff20 0 QHash<QHostAddress,QHostAddress>::operator[](QHostAddress const &)
PUBLIC 500b0 0 QHash<QHostAddress,QHostAddress>::createNode(unsigned int,QHostAddress const &,QHostAddress const &,QHashNode<QHostAddress,QHostAddress> * *)
PUBLIC 50110 0 QHash<QHostAddress,QHostAddress>::deleteNode2(QHashData::Node *)
PUBLIC 50130 0 QList<int>::detach_helper_grow(int,int)
PUBLIC 50200 0 QList<QNetworkAddressEntry>::detach_helper_grow(int,int)
PUBLIC 50310 0 QHash<QHostAddress,QHostAddress>::duplicateNode(QHashData::Node *,void *)
PUBLIC 50350 0 QHash<QHostAddress,QHostAddress>::findNode(QHostAddress const &,unsigned int *)
PUBLIC 503d0 0 QString::fromLocal8Bit(char const *,int)
PUBLIC 51280 0 QNetworkInterfaceManager::scan()
PUBLIC 512d0 0 QHash<QHostAddress,QHostAddress>::value(QHostAddress const &)
PUBLIC 51370 0 QNetworkConfigurationManagerPrivate::qt_static_metacall(QObject *,QMetaObject::Call,int,void * *)
PUBLIC 51570 0 QNetworkConfigurationManagerPrivate::configurationAdded(QNetworkConfiguration const &)
PUBLIC 515a0 0 QNetworkConfigurationManagerPrivate::configurationChanged(QNetworkConfiguration const &)
PUBLIC 515d0 0 QNetworkConfigurationManagerPrivate::configurationRemoved(QNetworkConfiguration const &)
PUBLIC 51600 0 QNetworkConfigurationManagerPrivate::configurationUpdateComplete()
PUBLIC 51620 0 QNetworkConfigurationManagerPrivate::metaObject()
PUBLIC 51640 0 QNetworkConfigurationManagerPrivate::onlineStateChanged(bool)
PUBLIC 51670 0 QNetworkConfigurationManagerPrivate::qt_metacall(QMetaObject::Call,int,void * *)
PUBLIC 516c0 0 QNetworkConfigurationManagerPrivate::qt_metacast(char const *)
PUBLIC 51720 0 QStringBuilder<QStringBuilder<char const [29],QByteArray>,char const [27]>::convertTo<QByteArray>()
PUBLIC 51790 0 QMap<QByteArray,QString>::QMap<QByteArray,QString>(QMap<QByteArray,QString> const &)
PUBLIC 51800 0 QList<QVariant>::~QList<QVariant>()
PUBLIC 51830 0 QMap<QByteArray,QString>::~QMap<QByteArray,QString>()
PUBLIC 51880 0 QMap<QByteArray,QString>::operator=(QMap<QByteArray,QString> const &)
PUBLIC 518f0 0 QSslCertificatePrivate::operator=(QSslCertificatePrivate const &)
PUBLIC 51960 0 QSslCertificate::operator==(QSslCertificate const &)
PUBLIC 519b0 0 QSslCertificatePrivate::QByteArray_from_X509(x509_st *,QSsl::EncodingFormat)
PUBLIC 51d60 0 QSslCertificatePrivate::QSslCertificate_from_X509(x509_st *)
PUBLIC 51ff0 0 QList<QVariant>::append(QVariant const &)
PUBLIC 52060 0 QSslCertificatePrivate::certificatesFromDer(QByteArray const &,int)
PUBLIC 52160 0 QSslCertificatePrivate::certificatesFromPem(QByteArray const &,int)
PUBLIC 52390 0 QMapNode<QString,QVariant>::copy(QMapData<QString,QVariant> *)
PUBLIC 52440 0 QMapNode<QSsl::AlternativeNameEntryType,QString>::copy(QMapData<QSsl::AlternativeNameEntryType,QString> *)
PUBLIC 524f0 0 QList<QVariant>::dealloc(QListData::Data *)
PUBLIC 52540 0 QMapNode<QByteArray,QString>::destroySubTree()
PUBLIC 525b0 0 QMapNode<QString,QVariant>::destroySubTree()
PUBLIC 52600 0 QList<QSslCertificate>::detach_helper(int)
PUBLIC 526a0 0 QMap<QByteArray,QString>::detach_helper()
PUBLIC 52720 0 QMap<QSsl::AlternativeNameEntryType,QString>::detach_helper()
PUBLIC 527a0 0 QList<QVariant>::detach_helper_grow(int,int)
PUBLIC 52850 0 QSslCertificate::expiryDate()
PUBLIC 52870 0 QSslCertificate::handle()
PUBLIC 52880 0 QSslCertificatePrivate::init(QByteArray const &,QSsl::EncodingFormat)
PUBLIC 52950 0 QMap<QByteArray,QString>::insertMulti(QByteArray const &,QString const &)
PUBLIC 52a10 0 QMap<QSsl::AlternativeNameEntryType,QString>::insertMulti(QSsl::AlternativeNameEntryType const &,QString const &)
PUBLIC 52ab0 0 QSslCertificate::issuerInfo(QSslCertificate::SubjectInfo)
PUBLIC 52bd0 0 QMapNode<QByteArray,QString>::lowerBound(QByteArray const &)
PUBLIC 52c80 0 QList<QVariant>::node_copy(QList<QVariant>::Node *,QList<QVariant>::Node *,QList<QVariant>::Node *)
PUBLIC 52cc0 0 QSslCertificate::serialNumber()
PUBLIC 52e60 0 QSslCertificate::subjectAlternativeNames()
PUBLIC 530f0 0 QSslCertificate::subjectInfo(QSslCertificate::SubjectInfo)
PUBLIC 53210 0 QSslCertificate::toDer()
PUBLIC 53280 0 QMap<QByteArray,QString>::values(QByteArray const &)
PUBLIC 53370 0 operator<<<QString>(QDebug,QList<QString> const &)
PUBLIC 53490 0 QSslCertificate::QSslCertificate(QSslCertificate const &)
PUBLIC 534b0 0 QSslCertificate::QSslCertificate(QByteArray const &,QSsl::EncodingFormat)
PUBLIC 53540 0 QSslCertificatePrivate::QSslCertificatePrivate()
PUBLIC 53590 0 QSslCertificate::~QSslCertificate()
PUBLIC 535c0 0 QSslCertificatePrivate::~QSslCertificatePrivate()
PUBLIC 536c0 0 QSslCertificate::operator=(QSslCertificate const &)
PUBLIC 53720 0 QString::operator=(QLatin1String)
PUBLIC 53790 0 QSslCertificate::clear()
PUBLIC 53800 0 QSslCertificate::isBlacklisted()
PUBLIC 53810 0 QSslCertificatePrivate::isBlacklisted(QSslCertificate const &)
PUBLIC 53a50 0 QSslCertificatePrivate::subjectInfoToString(QSslCertificate::SubjectInfo)
PUBLIC 53c10 0 QTcpSocket::metaObject()
PUBLIC 53c30 0 QTcpSocket::qt_metacast(char const *)
PUBLIC 53c90 0 QAbstractSocket::qt_static_metacall(QObject *,QMetaObject::Call,int,void * *)
PUBLIC 53e40 0 QForeachContainer<QList<QHostAddress> >::QForeachContainer<QList<QHostAddress> >(QList<QHostAddress> const &)
PUBLIC 53ec0 0 QList<QHostAddress>::QList<QHostAddress>(QList<QHostAddress> const &)
PUBLIC 53f30 0 QAbstractSocket::QAbstractSocket(QAbstractSocket::SocketType,QAbstractSocketPrivate &,QObject *)
PUBLIC 53f60 0 QAbstractSocketPrivate::QAbstractSocketPrivate()
PUBLIC 540b0 0 QAbstractSocket::~QAbstractSocket()
PUBLIC 540e0 0 QAbstractSocketPrivate::~QAbstractSocketPrivate()
PUBLIC 54210 0 QList<QHostAddress>::operator=(QList<QHostAddress> const &)
PUBLIC 54260 0 operator<<(QDebug,QAbstractSocket::SocketError)
PUBLIC 54480 0 QList<QHostAddress>::operator+=(QList<QHostAddress> const &)
PUBLIC 544fd 0 [thunk]:QAbstractSocketPrivate::`vector deleting destructor'`adjustor{136}' (unsigned int)
PUBLIC 54510 0 QAbstractSocket::`vector deleting destructor'(unsigned int)
PUBLIC 54550 0 QAbstractSocketEngineReceiver::`vector deleting destructor'(unsigned int)
PUBLIC 54570 0 QAbstractSocketPrivate::`vector deleting destructor'(unsigned int)
PUBLIC 54590 0 QAbstractSocketPrivate::_q_abortConnectionAttempt()
PUBLIC 546a0 0 QAbstractSocketPrivate::_q_connectToNextAddress()
PUBLIC 54b60 0 QAbstractSocketPrivate::_q_forceDisconnect()
PUBLIC 54ba0 0 QAbstractSocketPrivate::_q_startConnecting(QHostInfo const &)
PUBLIC 54e90 0 QAbstractSocketPrivate::_q_testConnection()
PUBLIC 54f60 0 QAbstractSocket::abort()
PUBLIC 54fd0 0 QAbstractSocket::atEnd()
PUBLIC 55000 0 QAbstractSocket::bind(QHostAddress const &,unsigned short,QFlags<QAbstractSocket::BindFlag>)
PUBLIC 55240 0 QAbstractSocket::bind(unsigned short,QFlags<QAbstractSocket::BindFlag>)
PUBLIC 55280 0 QAbstractSocket::bytesAvailable()
PUBLIC 552d0 0 QAbstractSocket::bytesToWrite()
PUBLIC 552e0 0 QAbstractSocketPrivate::canCloseNotification()
PUBLIC 55380 0 QAbstractSocket::canReadLine()
PUBLIC 553b0 0 QAbstractSocketPrivate::canReadNotification()
PUBLIC 55600 0 QAbstractSocketPrivate::canWriteNotification()
PUBLIC 55670 0 QIODevicePrivateLinearBuffer::chop(__int64)
PUBLIC 556d0 0 QAbstractSocket::close()
PUBLIC 55760 0 QAbstractSocket::connectToHost(QHostAddress const &,unsigned short,QFlags<QIODevice::OpenModeFlag>)
PUBLIC 557c0 0 QAbstractSocket::connectToHost(QString const &,unsigned short,QFlags<QIODevice::OpenModeFlag>,QAbstractSocket::NetworkLayerProtocol)
PUBLIC 55b70 0 QAbstractSocket::connected()
PUBLIC 55b90 0 QAbstractSocketPrivate::connectionNotification()
PUBLIC 55bb0 0 QAbstractSocket::disconnectFromHost()
PUBLIC 55e30 0 QAbstractSocket::disconnected()
PUBLIC 55e50 0 QAbstractSocket::error(QAbstractSocket::SocketError)
PUBLIC 55e80 0 QAbstractSocket::error()
PUBLIC 55e90 0 QAbstractSocketPrivate::fetchConnectionParameters()
PUBLIC 55fa0 0 QAbstractSocket::flush()
PUBLIC 55fd0 0 QAbstractSocketPrivate::flush()
PUBLIC 561c0 0 QRingBuffer::free(int)
PUBLIC 56270 0 QAbstractSocket::hostFound()
PUBLIC 56290 0 QAbstractSocketPrivate::initSocketLayer(QAbstractSocket::NetworkLayerProtocol)
PUBLIC 563c0 0 QAbstractSocket::isValid()
PUBLIC 563e0 0 QAbstractSocket::localAddress()
PUBLIC 56400 0 QAbstractSocket::localPort()
PUBLIC 56410 0 QIODevicePrivateLinearBuffer::makeSpace(unsigned int,QIODevicePrivateLinearBuffer::FreeSpacePos)
PUBLIC 564c0 0 QAbstractSocket::metaObject()
PUBLIC 564e0 0 QtPrivate::QVariantValueHelper<QSharedPointer<QNetworkSession> >::metaType(QVariant const &)
PUBLIC 565c0 0 QAbstractSocket::pauseMode()
PUBLIC 565e0 0 QAbstractSocketPrivate::pauseSocketNotifiers(QAbstractSocket *)
PUBLIC 56660 0 QAbstractSocket::peerAddress()
PUBLIC 56680 0 QAbstractSocket::peerName()
PUBLIC 566c0 0 QAbstractSocket::peerPort()
PUBLIC 566d0 0 QAbstractSocket::proxy()
PUBLIC 566f0 0 QAbstractSocket::proxyAuthenticationRequired(QNetworkProxy const &,QAuthenticator *)
PUBLIC 56750 0 QAbstractSocket::qt_metacall(QMetaObject::Call,int,void * *)
PUBLIC 567a0 0 QAbstractSocket::qt_metacast(char const *)
PUBLIC 56800 0 QAbstractSocket::readBufferSize()
PUBLIC 56810 0 QAbstractSocket::readData(char *,__int64)
PUBLIC 56970 0 QAbstractSocketPrivate::readFromSocket()
PUBLIC 56af0 0 QAbstractSocket::readLineData(char *,__int64)
PUBLIC 56b10 0 QIODevicePrivateLinearBuffer::reserve(__int64)
PUBLIC 56b40 0 QAbstractSocketPrivate::resetSocketLayer()
PUBLIC 56bb0 0 QAbstractSocketPrivate::resolveProxy(QString const &,unsigned short)
PUBLIC 56e50 0 QAbstractSocket::resume()
PUBLIC 56ea0 0 QAbstractSocketPrivate::resumeSocketNotifiers(QAbstractSocket *)
PUBLIC 56f00 0 QAbstractSocket::setLocalAddress(QHostAddress const &)
PUBLIC 56f10 0 QAbstractSocket::setLocalPort(unsigned short)
PUBLIC 56f30 0 QAbstractSocket::setPeerAddress(QHostAddress const &)
PUBLIC 56f40 0 QAbstractSocket::setPeerName(QString const &)
PUBLIC 56f50 0 QAbstractSocket::setPeerPort(unsigned short)
PUBLIC 56f70 0 QAbstractSocket::setProxy(QNetworkProxy const &)
PUBLIC 56f80 0 QAbstractSocket::setReadBufferSize(__int64)
PUBLIC 56ff0 0 QAbstractSocket::setSocketDescriptor(int,QAbstractSocket::SocketState,QFlags<QIODevice::OpenModeFlag>)
PUBLIC 57250 0 QAbstractSocket::setSocketError(QAbstractSocket::SocketError)
PUBLIC 57260 0 QAbstractSocket::setSocketOption(QAbstractSocket::SocketOption,QVariant const &)
PUBLIC 57370 0 QAbstractSocket::setSocketState(QAbstractSocket::SocketState)
PUBLIC 57380 0 QAbstractSocket::socketDescriptor()
PUBLIC 57390 0 QAbstractSocket::socketOption(QAbstractSocket::SocketOption)
PUBLIC 57420 0 QAbstractSocketPrivate::startConnectingByName(QString const &)
PUBLIC 57580 0 QAbstractSocket::state()
PUBLIC 57590 0 QAbstractSocket::stateChanged(QAbstractSocket::SocketState)
PUBLIC 575c0 0 QAbstractSocket::waitForBytesWritten(int)
PUBLIC 577a0 0 QAbstractSocket::waitForConnected(int)
PUBLIC 57b30 0 QAbstractSocket::waitForDisconnected(int)
PUBLIC 57d60 0 QAbstractSocket::waitForReadyRead(int)
PUBLIC 57f40 0 QAbstractSocket::writeData(char const *,__int64)
PUBLIC 581d0 0 QTcpSocket::QTcpSocket(QTcpSocketPrivate &,QObject *)
PUBLIC 58200 0 QTcpSocket::QTcpSocket(QObject *)
PUBLIC 58260 0 QTcpSocket::~QTcpSocket()
PUBLIC 58270 0 QTcpSocket::`vector deleting destructor'(unsigned int)
PUBLIC 582a0 0 QForeachContainer<QList<QSslCipher> >::QForeachContainer<QList<QSslCipher> >(QList<QSslCipher> const &)
PUBLIC 58320 0 QSslCipher::QSslCipher(QSslCipher const &)
PUBLIC 583a0 0 QSslCipher::QSslCipher()
PUBLIC 58400 0 QSslCipher::~QSslCipher()
PUBLIC 58420 0 QSslCipherPrivate::~QSslCipherPrivate()
PUBLIC 58500 0 QSslCipher::operator=(QSslCipher const &)
PUBLIC 58520 0 QSslCipherPrivate::operator=(QSslCipherPrivate const &)
PUBLIC 58590 0 QSslCipher::operator==(QSslCipher const &)
PUBLIC 585d0 0 QSslCipher::name()
PUBLIC 58600 0 QSslCipher::usedBits()
PUBLIC 58610 0 QConcatenable<QStringBuilder<QStringBuilder<QByteArray,char const [3]>,QByteArray> >::appendTo<char>(QStringBuilder<QStringBuilder<QByteArray,char const [3]>,QByteArray> const &,char * &)
PUBLIC 58670 0 QConcatenable<QStringBuilder<QByteArray,char const [3]> >::appendTo<char>(QStringBuilder<QByteArray,char const [3]> const &,char * &)
PUBLIC 586e0 0 QSslKey::QSslKey(QSslKey const &)
PUBLIC 58700 0 QSslKey::QSslKey()
PUBLIC 58760 0 QMap<QByteArray,QByteArray>::~QMap<QByteArray,QByteArray>()
PUBLIC 587b0 0 QSslKey::~QSslKey()
PUBLIC 587e0 0 QSslKey::operator=(QSslKey const &)
PUBLIC 58840 0 QSslKey::operator==(QSslKey const &)
PUBLIC 58940 0 QSslKey::algorithm()
PUBLIC 58950 0 QSslKeyPrivate::derFromPem(QByteArray const &,QMap<QByteArray,QByteArray> *)
PUBLIC 58e40 0 QMapNode<QByteArray,QByteArray>::destroySubTree()
PUBLIC 58eb0 0 QMap<QByteArray,QByteArray>::detach_helper()
PUBLIC 58f30 0 QSslKey::handle()
PUBLIC 58f40 0 QMap<QByteArray,QByteArray>::insert(QByteArray const &,QByteArray const &)
PUBLIC 59000 0 QSslCertificate::isNull()
PUBLIC 59010 0 QSslKey::toDer(QByteArray const &)
PUBLIC 590b0 0 QForeachContainer<QList<QSslCertificate> >::QForeachContainer<QList<QSslCertificate> >(QList<QSslCertificate> const &)
PUBLIC 59130 0 QList<QPair<int,int> >::QList<QPair<int,int> >(QList<QPair<int,int> > const &)
PUBLIC 591a0 0 QSharedPointer<QSslContext>::QSharedPointer<QSslContext>(QSslContext *)
PUBLIC 59200 0 QOpenSslLocks::QOpenSslLocks()
PUBLIC 59280 0 QSslSocketBackendPrivate::QSslSocketBackendPrivate()
PUBLIC 592e0 0 QWindowsCaRootFetcherThread::QWindowsCaRootFetcherThread()
PUBLIC 59350 0 QOpenSslLocks::~QOpenSslLocks()
PUBLIC 593f0 0 QList<QPair<int,int> >::operator+=(QList<QPair<int,int> > const &)
PUBLIC 5948b 0 [thunk]:QSslSocketBackendPrivate::`vector deleting destructor'`adjustor{136}' (unsigned int)
PUBLIC 594a0 0 QSslSocketBackendPrivate::`vector deleting destructor'(unsigned int)
PUBLIC 594e0 0 QWindowsCaRootFetcher::`vector deleting destructor'(unsigned int)
PUBLIC 59510 0 QWindowsCaRootFetcherThread::`vector deleting destructor'(unsigned int)
PUBLIC 59550 0 QSslSocketBackendPrivate::QSslCipher_from_SSL_CIPHER(ssl_cipher_st *)
PUBLIC 599a0 0 QSslSocketBackendPrivate::STACKOFX509_to_QSslCertificates(stack_st_X509 *)
PUBLIC 59dd0 0 QSslSocketBackendPrivate::_q_caRootLoaded(QSslCertificate,QSslCertificate)
PUBLIC 59ee0 0 QList<QPair<int,int> >::append(QPair<int,int> const &)
PUBLIC 59f50 0 QSslSocketBackendPrivate::checkSslErrors()
PUBLIC 5a030 0 QSharedPointer<QNetworkSession>::clear()
PUBLIC 5a070 0 QSslSocketBackendPrivate::continueHandshake()
PUBLIC 5a260 0 QtSharedPointer::ExternalRefCountWithCustomDeleter<QSslContext,QtSharedPointer::NormalDeleter>::deleter(QtSharedPointer::ExternalRefCountData *)
PUBLIC 5a280 0 QSslSocketBackendPrivate::destroySslContext()
PUBLIC 5a2f0 0 QList<QPair<int,int> >::detach_helper_grow(int,int)
PUBLIC 5a3e0 0 QList<QSslError>::detach_helper_grow(int,int)
PUBLIC 5a4f0 0 QSslSocketBackendPrivate::disconnectFromHost()
PUBLIC 5a530 0 QSslSocketBackendPrivate::disconnected()
PUBLIC 5a560 0 QSslSocketPrivate::ensureCiphersAndCertsLoaded()
PUBLIC 5a690 0 QSslSocketPrivate::ensureInitialized()
PUBLIC 5a6a0 0 QSslSocketPrivate::ensureLibraryLoaded()
PUBLIC 5a7c0 0 QSslSocketBackendPrivate::fetchCaRootForCert(QSslCertificate const &)
PUBLIC 5a8a0 0 QSslSocketBackendPrivate::getErrorsFromOpenSsl()
PUBLIC 5a960 0 QSslSocketBackendPrivate::initSslContext()
PUBLIC 5aed0 0 `anonymous namespace'::Q_QGS__q_sslErrorList::innerFunction()
PUBLIC 5af70 0 `anonymous namespace'::Q_QGS_openssl_locks::innerFunction()
PUBLIC 5b000 0 `anonymous namespace'::Q_QGS_windowsCaRootFetcherThread::innerFunction()
PUBLIC 5b090 0 QOpenSslLocks::lock(int)
PUBLIC 5b100 0 QList<QPair<int,int> >::node_copy(QList<QPair<int,int> >::Node *,QList<QPair<int,int> >::Node *,QList<QPair<int,int> >::Node *)
PUBLIC 5b150 0 q_X509Callback(int,x509_store_ctx_st *)
PUBLIC 5b1b0 0 QVarLengthArray<char,4096>::realloc(int,int)
PUBLIC 5b240 0 QList<QSslError>::removeAt(int)
PUBLIC 5b290 0 QSslSocketPrivate::resetDefaultCiphers()
PUBLIC 5b4c0 0 QSslSocketBackendPrivate::sessionCipher()
PUBLIC 5b550 0 QSslSocketBackendPrivate::sessionProtocol()
PUBLIC 5b5a0 0 QSslSocketBackendPrivate::setupOpenSslOptions(QSsl::SslProtocol,QFlags<QSsl::SslOption>)
PUBLIC 5b600 0 QWindowsCaRootFetcher::start()
PUBLIC 5b820 0 QSslSocketBackendPrivate::startHandshake()
PUBLIC 5c470 0 QSslSocketBackendPrivate::startClientEncryption()
PUBLIC 5c590 0 QSslSocketPrivate::supportsSsl()
PUBLIC 5c5a0 0 QSslSocketPrivate::systemCaCertificates()
PUBLIC 5c6f0 0 QSslSocketBackendPrivate::transmit()
PUBLIC 5d150 0 QNetworkAccessCache::qt_static_metacall(QObject *,QMetaObject::Call,int,void * *)
PUBLIC 5d200 0 QNetworkAccessCache::entryReady(QNetworkAccessCache::CacheableObject *)
PUBLIC 5d230 0 QNetworkAccessCache::metaObject()
PUBLIC 5d250 0 QNetworkAccessCache::qt_metacall(QMetaObject::Call,int,void * *)
PUBLIC 5d2b0 0 QNetworkAccessCache::qt_metacast(char const *)
PUBLIC 5d310 0 QMetaTypeId<QNetworkAccessCache::CacheableObject *>::qt_metatype_id()
PUBLIC 5d3a0 0 QForeachContainer<QList<QNetworkCookie> const >::QForeachContainer<QList<QNetworkCookie> const >(QList<QNetworkCookie> const &)
PUBLIC 5d420 0 QSystemLibrary::QSystemLibrary(wchar_t const *)
PUBLIC 5d4c0 0 QWindowsSystemProxy::QWindowsSystemProxy()
PUBLIC 5d620 0 QWindowsSystemProxy::~QWindowsSystemProxy()
PUBLIC 5d700 0 QHash<QString,QNetworkProxy>::createNode(unsigned int,QString const &,QNetworkProxy const &,QHashNode<QString,QNetworkProxy> * *)
PUBLIC 5d940 0 QHash<QString,QNetworkProxy>::deleteNode2(QHashData::Node *)
PUBLIC 5d980 0 QHash<QString,QNetworkProxy>::duplicateNode(QHashData::Node *,void *)
PUBLIC 5db70 0 QWindowsSystemProxy::init()
PUBLIC 5df30 0 `anonymous namespace'::Q_QGS_systemProxy::innerFunction()
PUBLIC 5dfc0 0 QHash<QString,QNetworkProxy>::insert(QString const &,QNetworkProxy const &)
PUBLIC 5f180 0 QSystemLibrary::resolve(char const *)
PUBLIC 5f1c0 0 QSystemLibrary::resolve(QString const &,char const *)
PUBLIC 5f410 0 QNetworkProxyFactory::systemProxyForQuery(QNetworkProxyQuery const &)
PUBLIC 5f900 0 QHash<QString,QNetworkProxy>::value(QString const &)
PUBLIC 5f9a0 0 QAbstractSocketEngine::QAbstractSocketEngine(QAbstractSocketEnginePrivate &,QObject *)
PUBLIC 5f9c0 0 QAbstractSocketEnginePrivate::QAbstractSocketEnginePrivate()
PUBLIC 5fa30 0 QSocketEngineHandler::QSocketEngineHandler()
PUBLIC 5fac0 0 QSocketEngineHandler::~QSocketEngineHandler()
PUBLIC 5fb50 0 QAbstractSocketEnginePrivate::`vector deleting destructor'(unsigned int)
PUBLIC 5fbb0 0 QAbstractSocketEngine::closeNotification()
PUBLIC 5fbc0 0 QAbstractSocketEngine::connectionNotification()
PUBLIC 5fbd0 0 QAbstractSocketEngine::createSocketEngine(int,QObject *)
PUBLIC 5fc90 0 QAbstractSocketEngine::createSocketEngine(QAbstractSocket::SocketType,QNetworkProxy const &,QObject *)
PUBLIC 5fd70 0 QAbstractSocketEngine::error()
PUBLIC 5fd80 0 QAbstractSocketEngine::errorString()
PUBLIC 5fdb0 0 QAbstractSocketEngine::exceptionNotification()
PUBLIC 5fdc0 0 `anonymous namespace'::Q_QGS_socketHandlers::innerFunction()
PUBLIC 5fe60 0 QAbstractSocketEngine::localAddress()
PUBLIC 5fe80 0 QAbstractSocketEngine::localPort()
PUBLIC 5fe90 0 QAbstractSocketEngine::peerAddress()
PUBLIC 5feb0 0 QAbstractSocketEngine::peerPort()
PUBLIC 5fec0 0 QAbstractSocketEngine::protocol()
PUBLIC 5fed0 0 QAbstractSocketEngine::proxyAuthenticationRequired(QNetworkProxy const &,QAuthenticator *)
PUBLIC 5fef0 0 QAbstractSocketEngine::readNotification()
PUBLIC 5ff00 0 QList<int>::removeAll(int const &)
PUBLIC 5ffd0 0 QAbstractSocketEngine::setError(QAbstractSocket::SocketError,QString const &)
PUBLIC 5fff0 0 QAbstractSocketEngine::setLocalAddress(QHostAddress const &)
PUBLIC 60000 0 QAbstractSocketEngine::setLocalPort(unsigned short)
PUBLIC 60010 0 QAbstractSocketEngine::setPeerAddress(QHostAddress const &)
PUBLIC 60020 0 QAbstractSocketEngine::setPeerPort(unsigned short)
PUBLIC 60030 0 QAbstractSocketEngine::setProtocol(QAbstractSocket::NetworkLayerProtocol)
PUBLIC 60040 0 QAbstractSocketEngine::setReceiver(QAbstractSocketEngineReceiver *)
PUBLIC 60050 0 QAbstractSocketEngine::setSocketType(QAbstractSocket::SocketType)
PUBLIC 60060 0 QAbstractSocketEngine::setState(QAbstractSocket::SocketState)
PUBLIC 60070 0 QAbstractSocketEngine::socketType()
PUBLIC 60080 0 QAbstractSocketEngine::state()
PUBLIC 60090 0 QAbstractSocketEngine::writeNotification()
PUBLIC 600a0 0 QSocks5BindData::QSocks5BindData()
PUBLIC 600e0 0 QSocks5BindStore::QSocks5BindStore()
PUBLIC 60140 0 QSocks5SocketEnginePrivate::QSocks5SocketEnginePrivate()
PUBLIC 601d0 0 QSocks5PasswordAuthenticator::~QSocks5PasswordAuthenticator()
PUBLIC 60240 0 QSocks5SocketEngine::~QSocks5SocketEngine()
PUBLIC 60360 0 QSocks5SocketEnginePrivate::~QSocks5SocketEnginePrivate()
PUBLIC 60420 0 QDebug::operator<<(bool)
PUBLIC 60460 0 QSocks5Authenticator::`vector deleting destructor'(unsigned int)
PUBLIC 60480 0 QSocks5BindStore::`vector deleting destructor'(unsigned int)
PUBLIC 604e0 0 QSocks5PasswordAuthenticator::`vector deleting destructor'(unsigned int)
PUBLIC 60500 0 QSocks5SocketEngine::`vector deleting destructor'(unsigned int)
PUBLIC 60520 0 QSocks5SocketEnginePrivate::`vector deleting destructor'(unsigned int)
PUBLIC 60540 0 QSocks5SocketEnginePrivate::_q_controlSocketBytesWritten()
PUBLIC 60590 0 QSocks5SocketEnginePrivate::_q_controlSocketConnected()
PUBLIC 60700 0 QSocks5SocketEnginePrivate::_q_controlSocketError(QAbstractSocket::SocketError)
PUBLIC 60820 0 QSocks5SocketEnginePrivate::_q_controlSocketReadNotification()
PUBLIC 60920 0 QSocks5SocketEnginePrivate::_q_emitPendingConnectionNotification()
PUBLIC 60930 0 QSocks5SocketEnginePrivate::_q_emitPendingReadNotification()
PUBLIC 609c0 0 QSocks5SocketEnginePrivate::_q_emitPendingWriteNotification()
PUBLIC 609e0 0 QSocks5SocketEnginePrivate::_q_udpSocketReadNotification()
PUBLIC 60d70 0 QSocks5SocketEngine::accept()
PUBLIC 60ec0 0 QSocks5BindStore::add(int,QSocks5BindData *)
PUBLIC 60f50 0 QHash<int,QSockNot *>::begin()
PUBLIC 60fe0 0 QSocks5PasswordAuthenticator::beginAuthenticate(QTcpSocket *,bool *)
PUBLIC 611e0 0 QSocks5SocketEngine::bind(QHostAddress const &,unsigned short)
PUBLIC 616a0 0 QSocks5SocketEngine::bytesAvailable()
PUBLIC 61700 0 QSocks5SocketEngine::bytesToWrite()
PUBLIC 61720 0 QSocks5SocketEngine::close()
PUBLIC 617f0 0 QSocks5SocketEngine::connectInternal()
PUBLIC 61990 0 QSocks5SocketEngine::connectToHost(QHostAddress const &,unsigned short)
PUBLIC 61a00 0 QSocks5SocketEngine::connectToHostByName(QString const &,unsigned short)
PUBLIC 61a50 0 QSocks5Authenticator::beginAuthenticate(QTcpSocket *,bool *)
PUBLIC 61a60 0 QSocks5PasswordAuthenticator::continueAuthenticate(QTcpSocket *,bool *)
PUBLIC 61b00 0 QSocks5SocketEngineHandler::createSocketEngine(int,QObject *)
PUBLIC 61bc0 0 QSocks5SocketEngineHandler::createSocketEngine(QAbstractSocket::SocketType,QNetworkProxy const &,QObject *)
PUBLIC 61c40 0 QList<QSocks5RevivedDatagram>::detach_helper(int)
PUBLIC 61cc0 0 QList<QSocks5RevivedDatagram>::detach_helper_grow(int,int)
PUBLIC 61d90 0 QSocks5SocketEnginePrivate::emitConnectionNotification()
PUBLIC 61de0 0 QSocks5SocketEnginePrivate::emitReadNotification()
PUBLIC 61e40 0 QSocks5SocketEnginePrivate::emitWriteNotification()
PUBLIC 61ea0 0 QHash<int,QSocks5BindData *>::end()
PUBLIC 61f00 0 QList<QSocks5RevivedDatagram>::erase(QList<QSocks5RevivedDatagram>::iterator)
PUBLIC 61fb0 0 QSocks5Authenticator::errorString()
PUBLIC 61fc0 0 QSocks5PasswordAuthenticator::errorString()
PUBLIC 61fe0 0 QSocks5SocketEngine::hasPendingDatagrams()
PUBLIC 62020 0 QSocks5SocketEngine::initialize(int,QAbstractSocket::SocketState)
PUBLIC 62270 0 QSocks5SocketEngine::initialize(QAbstractSocket::SocketType,QAbstractSocket::NetworkLayerProtocol)
PUBLIC 622a0 0 QSocks5SocketEnginePrivate::initialize(QSocks5SocketEnginePrivate::Socks5Mode)
PUBLIC 628c0 0 `anonymous namespace'::Q_QGS_socks5BindStore::innerFunction()
PUBLIC 62950 0 QSocks5SocketEngine::isExceptionNotificationEnabled()
PUBLIC 62960 0 QSocks5SocketEngine::isReadNotificationEnabled()
PUBLIC 62970 0 QSocks5SocketEngine::isValid()
PUBLIC 629a0 0 QSocks5SocketEngine::isWriteNotificationEnabled()
PUBLIC 629b0 0 QSocks5SocketEngine::listen()
PUBLIC 629e0 0 QSocks5PasswordAuthenticator::methodId()
PUBLIC 629f0 0 QHttpSocketEngine::multicastInterface()
PUBLIC 62a00 0 QList<QSocks5RevivedDatagram>::node_construct(QList<QSocks5RevivedDatagram>::Node *,QSocks5RevivedDatagram const &)
PUBLIC 62a60 0 QList<QSocks5RevivedDatagram>::node_copy(QList<QSocks5RevivedDatagram>::Node *,QList<QSocks5RevivedDatagram>::Node *,QList<QSocks5RevivedDatagram>::Node *)
PUBLIC 62ae0 0 QList<QSocks5RevivedDatagram>::node_destruct(QList<QSocks5RevivedDatagram>::Node *,QList<QSocks5RevivedDatagram>::Node *)
PUBLIC 62b40 0 QSocks5SocketEngine::option(QAbstractSocketEngine::SocketOption)
PUBLIC 62bb0 0 QSocks5SocketEnginePrivate::parseAuthenticatingReply()
PUBLIC 62c00 0 QSocks5SocketEnginePrivate::parseAuthenticationMethodReply()
PUBLIC 62df0 0 QSocks5SocketEnginePrivate::parseRequestMethodReply()
PUBLIC 63150 0 QSocks5SocketEngine::pendingDatagramSize()
PUBLIC 635f0 0 QSocks5SocketEngine::read(char *,__int64)
PUBLIC 63730 0 QSocks5SocketEngine::readDatagram(char *,__int64,QHostAddress *,unsigned short *)
PUBLIC 63820 0 QSocks5SocketEnginePrivate::reauthenticate()
PUBLIC 63c90 0 QSocks5BindStore::retrieve(int)
PUBLIC 63d50 0 QSocks5SocketEnginePrivate::sendRequestMethod()
PUBLIC 63fc0 0 QSocks5SocketEnginePrivate::setErrorState(QSocks5SocketEnginePrivate::Socks5State,QString const &)
PUBLIC 64280 0 QSocks5SocketEnginePrivate::setErrorState(QSocks5SocketEnginePrivate::Socks5State,QSocks5SocketEnginePrivate::Socks5Error)
PUBLIC 64560 0 QSocks5SocketEngine::setExceptionNotificationEnabled(bool)
PUBLIC 64570 0 QHttpSocketEngine::setMulticastInterface(QNetworkInterface const &)
PUBLIC 645d0 0 QSocks5SocketEngine::setOption(QAbstractSocketEngine::SocketOption,int)
PUBLIC 64650 0 QSocks5SocketEngine::setReadNotificationEnabled(bool)
PUBLIC 646d0 0 QSocks5SocketEngine::setWriteNotificationEnabled(bool)
PUBLIC 64710 0 QSocks5SocketEngine::socketDescriptor()
PUBLIC 64720 0 QHash<int,QSocks5BindData *>::take(int const &)
PUBLIC 647c0 0 QList<QSocks5RevivedDatagram>::takeFirst()
PUBLIC 64850 0 QSocks5BindStore::timerEvent(QTimerEvent *)
PUBLIC 64950 0 QSocks5Authenticator::unSeal(QTcpSocket *,QByteArray *)
PUBLIC 64980 0 QSocks5Authenticator::seal(QByteArray,QByteArray *)
PUBLIC 649d0 0 QSocks5SocketEnginePrivate::waitForConnected(int,bool *)
PUBLIC 64c20 0 QSocks5SocketEngine::waitForRead(int,bool *)
PUBLIC 64e00 0 QSocks5SocketEngine::waitForWrite(int,bool *)
PUBLIC 64f70 0 QSocks5SocketEngine::write(char const *,__int64)
PUBLIC 65120 0 QSocks5SocketEngine::writeDatagram(char const *,__int64,QHostAddress const &,unsigned short)
PUBLIC 654d0 0 QConcatenable<QStringBuilder<char const [2],QByteArray> >::appendTo<char>(QStringBuilder<char const [2],QByteArray> const &,char * &)
PUBLIC 65530 0 QtStringBuilder::appendToByteArray<char const [22],QByteArray>(QByteArray &,QStringBuilder<char const [22],QByteArray> const &,char)
PUBLIC 655b0 0 QtStringBuilder::appendToByteArray<QStringBuilder<QStringBuilder<QByteArray,char const [3]>,QByteArray>,char const [3]>(QByteArray &,QStringBuilder<QStringBuilder<QStringBuilder<QByteArray,char const [3]>,QByteArray>,char const [3]> const &,char)
PUBLIC 65660 0 QHttpSocketEngine::QHttpSocketEngine(QObject *)
PUBLIC 656a0 0 QHttpSocketEnginePrivate::QHttpSocketEnginePrivate()
PUBLIC 65710 0 QHttpSocketEnginePrivate::~QHttpSocketEnginePrivate()
PUBLIC 657a0 0 QHttpSocketEngine::`vector deleting destructor'(unsigned int)
PUBLIC 657d0 0 QHttpSocketEnginePrivate::`vector deleting destructor'(unsigned int)
PUBLIC 657f0 0 QHttpSocketEngine::bytesAvailable()
PUBLIC 65820 0 QHttpSocketEngine::bytesToWrite()
PUBLIC 65840 0 QHttpSocketEngine::close()
PUBLIC 65870 0 QHttpSocketEngine::connectInternal()
PUBLIC 65990 0 QHttpSocketEngine::connectToHost(QHostAddress const &,unsigned short)
PUBLIC 659f0 0 QHttpSocketEngine::connectToHostByName(QString const &,unsigned short)
PUBLIC 65a40 0 QHttpSocketEngineHandler::createSocketEngine(QAbstractSocket::SocketType,QNetworkProxy const &,QObject *)
PUBLIC 65ab0 0 QHttpSocketEngine::emitConnectionNotification()
PUBLIC 65b00 0 QHttpSocketEngine::emitPendingConnectionNotification()
PUBLIC 65b10 0 QHttpSocketEngine::emitPendingReadNotification()
PUBLIC 65b30 0 QHttpSocketEngine::emitPendingWriteNotification()
PUBLIC 65b50 0 QHttpSocketEngine::emitReadNotification()
PUBLIC 65bc0 0 QHttpSocketEngine::emitWriteNotification()
PUBLIC 65c20 0 QNetworkAccessBackend::canResume()
PUBLIC 65c30 0 QHttpSocketEngine::initialize(QAbstractSocket::SocketType,QAbstractSocket::NetworkLayerProtocol)
PUBLIC 65eb0 0 QHttpSocketEngine::isExceptionNotificationEnabled()
PUBLIC 65ec0 0 QHttpSocketEngine::isReadNotificationEnabled()
PUBLIC 65ed0 0 QHttpSocketEngine::isValid()
PUBLIC 65ee0 0 QHttpSocketEngine::isWriteNotificationEnabled()
PUBLIC 65ef0 0 QHttpSocketEngine::joinMulticastGroup(QHostAddress const &,QNetworkInterface const &)
PUBLIC 65f50 0 QHttpSocketEngine::option(QAbstractSocketEngine::SocketOption)
PUBLIC 65fb0 0 QHttpSocketEngine::read(char *,__int64)
PUBLIC 66080 0 QHttpSocketEngine::readDatagram(char *,__int64,QHostAddress *,unsigned short *)
PUBLIC 66090 0 QHttpSocketEngine::readHttpHeader()
PUBLIC 66220 0 QHttpSocketEngine::setExceptionNotificationEnabled(bool)
PUBLIC 66230 0 QHttpSocketEngine::setOption(QAbstractSocketEngine::SocketOption,int)
PUBLIC 662a0 0 QHttpSocketEngine::setProxy(QNetworkProxy const &)
PUBLIC 66360 0 QHttpSocketEngine::setReadNotificationEnabled(bool)
PUBLIC 663a0 0 QHttpSocketEngine::setWriteNotificationEnabled(bool)
PUBLIC 66410 0 QHttpSocketEngine::slotSocketBytesWritten()
PUBLIC 66430 0 QHttpSocketEngine::slotSocketConnected()
PUBLIC 66a30 0 QHttpSocketEngine::slotSocketError(QAbstractSocket::SocketError)
PUBLIC 66c10 0 QHttpSocketEngine::slotSocketReadNotification()
PUBLIC 67200 0 QHttpSocketEngine::socketDescriptor()
PUBLIC 67220 0 QHttpSocketEngine::waitForRead(int,bool *)
PUBLIC 67350 0 QHttpSocketEngine::waitForReadOrWrite(bool *,bool *,bool,bool,int,bool *)
PUBLIC 67390 0 QHttpSocketEngine::waitForWrite(int,bool *)
PUBLIC 67470 0 QHttpSocketEngine::write(char const *,__int64)
PUBLIC 67490 0 QNetworkCacheMetaData::QNetworkCacheMetaData()
PUBLIC 674f0 0 QNetworkCacheMetaDataPrivate::QNetworkCacheMetaDataPrivate(QNetworkCacheMetaDataPrivate const &)
PUBLIC 675b0 0 QNetworkCacheMetaDataPrivate::QNetworkCacheMetaDataPrivate()
PUBLIC 675f0 0 QNetworkCacheMetaData::~QNetworkCacheMetaData()
PUBLIC 67620 0 QNetworkCacheMetaDataPrivate::~QNetworkCacheMetaDataPrivate()
PUBLIC 676b0 0 QHash<QNetworkRequest::Attribute,QVariant>::operator=(QHash<QNetworkRequest::Attribute,QVariant> const &)
PUBLIC 67720 0 QNetworkCacheMetaData::operator=(QNetworkCacheMetaData const &)
PUBLIC 67770 0 QNetworkCacheMetaData::operator==(QNetworkCacheMetaData const &)
PUBLIC 677a0 0 QNetworkCacheMetaDataPrivate::operator==(QNetworkCacheMetaDataPrivate const &)
PUBLIC 67800 0 QNetworkCacheMetaData::attributes()
PUBLIC 67840 0 QSharedDataPointer<QNetworkCacheMetaDataPrivate>::detach_helper()
PUBLIC 678a0 0 QNetworkCacheMetaData::expirationDate()
PUBLIC 678c0 0 `anonymous namespace'::Q_QGS_metadata_shared_invalid::innerFunction()
PUBLIC 67950 0 QNetworkCacheMetaData::isValid()
PUBLIC 679d0 0 QNetworkCacheMetaData::lastModified()
PUBLIC 679f0 0 QNetworkCacheMetaData::rawHeaders()
PUBLIC 67a60 0 QNetworkCacheMetaData::saveToDisk()
PUBLIC 67a70 0 QNetworkCacheMetaData::setAttributes(QHash<QNetworkRequest::Attribute,QVariant> const &)
PUBLIC 67aa0 0 QNetworkCacheMetaData::setExpirationDate(QDateTime const &)
PUBLIC 67ad0 0 QNetworkCacheMetaData::setLastModified(QDateTime const &)
PUBLIC 67b00 0 QNetworkCacheMetaData::setRawHeaders(QList<QPair<QByteArray,QByteArray> > const &)
PUBLIC 67b30 0 QNetworkCacheMetaData::setSaveToDisk(bool)
PUBLIC 67b60 0 QNetworkCacheMetaData::setUrl(QUrl const &)
PUBLIC 67c40 0 QNetworkAccessBackend::qt_static_metacall(QObject *,QMetaObject::Call,int,void * *)
PUBLIC 67df0 0 QtMetaTypePrivate::QMetaTypeFunctionHelper<int,1>::Construct(void *,void const *)
PUBLIC 67e20 0 QNetworkAccessBackend::metaObject()
PUBLIC 67e40 0 QNetworkAccessBackend::qt_metacall(QMetaObject::Call,int,void * *)
PUBLIC 67e90 0 QNetworkAccessBackend::qt_metacast(char const *)
PUBLIC 67ef0 0 QMetaTypeIdQObject<QIODevice *,1>::qt_metatype_id()
PUBLIC 67fc0 0 QNetworkCookieJar::metaObject()
PUBLIC 67fe0 0 QNetworkCookieJar::qt_metacast(char const *)
PUBLIC 68040 0 QFtpDTP::qt_static_metacall(QObject *,QMetaObject::Call,int,void * *)
PUBLIC 681b0 0 QFtpPI::qt_static_metacall(QObject *,QMetaObject::Call,int,void * *)
PUBLIC 68330 0 QFtp::qt_static_metacall(QObject *,QMetaObject::Call,int,void * *)
PUBLIC 68520 0 operator+=<QLatin1Char,QString>(QString &,QStringBuilder<QLatin1Char,QString> const &)
PUBLIC 685f0 0 operator+=<QStringBuilder<QStringBuilder<QLatin1Char,QString>,QLatin1Char>,QString>(QString &,QStringBuilder<QStringBuilder<QStringBuilder<QLatin1Char,QString>,QLatin1Char>,QString> const &)
PUBLIC 686c0 0 QConcatenable<QStringBuilder<QStringBuilder<QStringBuilder<QLatin1Char,QString>,QLatin1Char>,QString> >::appendTo<QChar>(QStringBuilder<QStringBuilder<QStringBuilder<QLatin1Char,QString>,QLatin1Char>,QString> const &,QChar * &)
PUBLIC 68740 0 QConcatenable<QStringBuilder<QStringBuilder<QStringBuilder<QStringBuilder<QStringBuilder<QStringBuilder<QString,QLatin1Char>,QString>,QLatin1Char>,QString>,QLatin1Char>,QString> >::appendTo<QChar>(QStringBuilder<QStringBuilder<QStringBuilder<QStringBuilder<QStringBuilder<QStringBuilder<QString,QLatin1Char>,QString>,QLatin1Char>,QString>,QLatin1Char>,QString> const &,QChar * &)
PUBLIC 687b0 0 QConcatenable<QStringBuilder<QStringBuilder<QStringBuilder<QLatin1String,QString>,QLatin1Char>,QString> >::appendTo<QChar>(QStringBuilder<QStringBuilder<QStringBuilder<QLatin1String,QString>,QLatin1Char>,QString> const &,QChar * &)
PUBLIC 68830 0 QConcatenable<QStringBuilder<QStringBuilder<QStringBuilder<QString,QLatin1Char>,QString>,QLatin1Char> >::appendTo<QChar>(QStringBuilder<QStringBuilder<QStringBuilder<QString,QLatin1Char>,QString>,QLatin1Char> const &,QChar * &)
PUBLIC 688b0 0 QStringBuilder<QStringBuilder<QLatin1String,QString>,QLatin1String>::convertTo<QString>()
PUBLIC 68950 0 QStringBuilder<QString,QLatin1String>::convertTo<QString>()
PUBLIC 689c0 0 QFtp::QFtp(QObject *)
PUBLIC 68b60 0 QFtpCommand::QFtpCommand(QFtp::Command,QStringList,QIODevice *)
PUBLIC 68c30 0 QFtpDTP::QFtpDTP(QFtpPI *,QObject *)
PUBLIC 68d00 0 QFtpPI::QFtpPI(QObject *)
PUBLIC 68e90 0 QFtpPrivate::QFtpPrivate()
PUBLIC 68f00 0 QFtp::~QFtp()
PUBLIC 68f40 0 QFtpCommand::~QFtpCommand()
PUBLIC 68fd0 0 QFtpDTP::~QFtpDTP()
PUBLIC 69040 0 QFtpPI::~QFtpPI()
PUBLIC 69120 0 QFtpPrivate::~QFtpPrivate()
PUBLIC 69370 0 QStringBuilder<QStringBuilder<QStringBuilder<QLatin1String,QString>,QLatin1Char>,QString>::operator QString()
PUBLIC 693d0 0 QStringBuilder<QString,QLatin1String>::operator QString()
PUBLIC 693e0 0 QFtp::`vector deleting destructor'(unsigned int)
PUBLIC 69430 0 QFtpDTP::`vector deleting destructor'(unsigned int)
PUBLIC 69450 0 QFtpPI::`vector deleting destructor'(unsigned int)
PUBLIC 69470 0 QFtpPrivate::`vector deleting destructor'(unsigned int)
PUBLIC 69fd0 0 QFtpPrivate::_q_piConnectState(int)
PUBLIC 6a070 0 QFtpPrivate::_q_piError(int,QString const &)
PUBLIC 6a6a0 0 QFtpPrivate::_q_piFinished(QString const &)
PUBLIC 6a800 0 QFtpPrivate::_q_piFtpReply(int,QString const &)
PUBLIC 6a890 0 QFtpPrivate::_q_startNextCommand()
PUBLIC 6ae90 0 QFtp::abort()
PUBLIC 6aec0 0 QFtpPI::abort()
PUBLIC 6afa0 0 QFtpPrivate::addCommand(QFtpCommand *)
PUBLIC 6b010 0 QFtp::bytesAvailable()
PUBLIC 6b040 0 QList<QString>::clear()
PUBLIC 6b090 0 QFtpDTP::clearError()
PUBLIC 6b0d0 0 QFtp::clearPendingCommands()
PUBLIC 6b270 0 QFtpPI::clearPendingCommands()
PUBLIC 6b320 0 QFtp::close()
PUBLIC 6b3c0 0 QFtp::commandFinished(int,bool)
PUBLIC 6b410 0 QFtp::commandStarted(int)
PUBLIC 6b440 0 QFtpDTP::connectState(int)
PUBLIC 6b470 0 QFtpPI::connectState(int)
PUBLIC 6b4a0 0 QFtp::connectToHost(QString const &,unsigned short)
PUBLIC 6b5a0 0 QFtpDTP::connectToHost(QString const &,unsigned short)
PUBLIC 6b740 0 QFtpPI::connectToHost(QString const &,unsigned short)
PUBLIC 6b7f0 0 QFtpPI::connected()
PUBLIC 6b860 0 QFtpPI::connectionClosed()
PUBLIC 6b8b0 0 QFtp::currentId()
PUBLIC 6b8d0 0 QString::data()
PUBLIC 6b900 0 QFtp::dataTransferProgress(__int64,__int64)
PUBLIC 6b950 0 QFtpDTP::dataTransferProgress(__int64,__int64)
PUBLIC 6b9a0 0 QFtpPI::delayedCloseFinished()
PUBLIC 6b9d0 0 QList<int>::detach_helper(int)
PUBLIC 6ba50 0 QFtp::done(bool)
PUBLIC 6ba80 0 QFtpPI::dtpConnectState(int)
PUBLIC 6bba0 0 QFtp::error()
PUBLIC 6bbb0 0 QFtpPI::error(QAbstractSocket::SocketError)
PUBLIC 6be70 0 QFtpPI::error(int,QString const &)
PUBLIC 6bec0 0 QFtp::errorString()
PUBLIC 6bef0 0 QFtpPI::finished(QString const &)
PUBLIC 6bf20 0 QFtp::get(QString const &,QIODevice *,QFtp::TransferType)
PUBLIC 6c1a0 0 QFtpPI::hostFound()
PUBLIC 6c1d0 0 QFtp::listInfo(QUrlInfo const &)
PUBLIC 6c200 0 QFtpDTP::listInfo(QUrlInfo const &)
PUBLIC 6c230 0 QFtp::login(QString const &,QString const &)
PUBLIC 6c540 0 QFtp::metaObject()
PUBLIC 6c560 0 QFtpDTP::metaObject()
PUBLIC 6c580 0 QFtpPI::metaObject()
PUBLIC 6c5a0 0 QFtpDTP::parseDir(QByteArray const &,QString const &,QUrlInfo *)
PUBLIC 6c780 0 QList<QString>::pop_front()
PUBLIC 6c7c0 0 QList<QString>::prepend(QString const &)
PUBLIC 6c830 0 QFtpPI::processReply()
PUBLIC 6ce90 0 QFtp::put(QIODevice *,QString const &,QFtp::TransferType)
PUBLIC 6d170 0 QFtp::qt_metacall(QMetaObject::Call,int,void * *)
PUBLIC 6d1d0 0 QFtpDTP::qt_metacall(QMetaObject::Call,int,void * *)
PUBLIC 6d220 0 QFtpPI::qt_metacall(QMetaObject::Call,int,void * *)
PUBLIC 6d270 0 QFtp::qt_metacast(char const *)
PUBLIC 6d2d0 0 QFtpDTP::qt_metacast(char const *)
PUBLIC 6d330 0 QFtpPI::qt_metacast(char const *)
PUBLIC 6d390 0 QFtp::rawCommand(QString const &)
PUBLIC 6d4d0 0 QFtp::rawCommandReply(int,QString const &)
PUBLIC 6d520 0 QFtpPI::rawFtpReply(int,QString const &)
PUBLIC 6d570 0 QFtp::readAll()
PUBLIC 6d590 0 QFtpDTP::readAll()
PUBLIC 6d620 0 QFtp::readyRead()
PUBLIC 6d640 0 QFtpDTP::readyRead()
PUBLIC 6d660 0 QFtpPI::readyRead()
PUBLIC 6dd60 0 QList<QFtpCommand *>::removeFirst()
PUBLIC 6dda0 0 QString::reserve(int)
PUBLIC 6ddf0 0 QFtpPI::sendCommands(QStringList const &)
PUBLIC 6dee0 0 QFtpDTP::setBytesTotal(__int64)
PUBLIC 6df60 0 QFtp::setProxy(QString const &,unsigned short)
PUBLIC 6e050 0 QFtpDTP::setupListener(QHostAddress const &)
PUBLIC 6e0c0 0 QFtpDTP::setupSocket()
PUBLIC 6e1f0 0 QFtpDTP::socketBytesWritten(__int64)
PUBLIC 6e280 0 QFtpDTP::socketConnected()
PUBLIC 6e2c0 0 QFtpDTP::socketConnectionClosed()
PUBLIC 6e360 0 QFtpDTP::socketError(QAbstractSocket::SocketError)
PUBLIC 6e3b0 0 QFtpDTP::socketReadyRead()
PUBLIC 6e810 0 QFtpPI::startNextCmd()
PUBLIC 6ecd0 0 QFtp::state()
PUBLIC 6ece0 0 QFtp::stateChanged(int)
PUBLIC 6ed10 0 QFtpDTP::waitForConnection()
PUBLIC 6ed30 0 QFtpDTP::writeData()
PUBLIC 6eea0 0 QNetworkAccessFtpBackend::qt_static_metacall(QObject *,QMetaObject::Call,int,void * *)
PUBLIC 6ef40 0 QNetworkAccessFtpBackend::metaObject()
PUBLIC 6ef60 0 QNetworkAccessFtpBackend::qt_metacall(QMetaObject::Call,int,void * *)
PUBLIC 6efb0 0 QNetworkAccessFtpBackend::qt_metacast(char const *)
PUBLIC 6f010 0 QNetworkAccessFileBackend::qt_static_metacall(QObject *,QMetaObject::Call,int,void * *)
PUBLIC 6f030 0 QNetworkAccessFileBackend::metaObject()
PUBLIC 6f050 0 QNetworkAccessFileBackend::qt_metacall(QMetaObject::Call,int,void * *)
PUBLIC 6f0b0 0 QNetworkAccessFileBackend::qt_metacast(char const *)
PUBLIC 6f110 0 QHttpNetworkHeaderPrivate::QHttpNetworkHeaderPrivate(QHttpNetworkHeaderPrivate const &)
PUBLIC 6f160 0 QHttpNetworkHeaderPrivate::QHttpNetworkHeaderPrivate(QUrl const &)
PUBLIC 6f190 0 QHttpNetworkHeaderPrivate::operator==(QHttpNetworkHeaderPrivate const &)
PUBLIC 6f1b0 0 QHttpNetworkHeaderPrivate::contentLength()
PUBLIC 6f270 0 QHttpNetworkHeaderPrivate::headerField(QByteArray const &,QByteArray const &)
PUBLIC 6f440 0 QHttpNetworkHeaderPrivate::headerFieldValues(QByteArray const &)
PUBLIC 6f510 0 QHttpNetworkHeaderPrivate::setContentLength(__int64)
PUBLIC 6f5b0 0 QHttpNetworkHeaderPrivate::setHeaderField(QByteArray const &,QByteArray const &)
PUBLIC 6f7a0 0 QNetworkReplyHttpImpl::qt_static_metacall(QObject *,QMetaObject::Call,int,void * *)
PUBLIC 6fca0 0 QNetworkReplyHttpImpl::abortHttpRequest()
PUBLIC 6fcc0 0 QNetworkReplyHttpImpl::haveUploadData(QByteArray,bool,__int64)
PUBLIC 6fd40 0 QNetworkReplyHttpImpl::metaObject()
PUBLIC 6fd60 0 QNetworkReplyHttpImpl::qt_metacall(QMetaObject::Call,int,void * *)
PUBLIC 6fdb0 0 QNetworkReplyHttpImpl::qt_metacast(char const *)
PUBLIC 6fe10 0 QNetworkReplyHttpImpl::readBufferFreed(__int64)
PUBLIC 6fe40 0 QNetworkReplyHttpImpl::readBufferSizeChanged(__int64)
PUBLIC 6fe70 0 QNetworkReplyHttpImpl::startHttpRequest()
PUBLIC 6fe90 0 QNetworkReplyHttpImpl::startHttpRequestSynchronously()
PUBLIC 6feb0 0 QHttpThreadDelegate::QHttpThreadDelegate(QObject *)
PUBLIC 6fff0 0 QNetworkAccessCachedHttpConnection::QNetworkAccessCachedHttpConnection(QString const &,unsigned short,bool,QHttpNetworkConnection::ConnectionType,QSharedPointer<QNetworkSession>)
PUBLIC 70090 0 QHttpThreadDelegate::~QHttpThreadDelegate()
PUBLIC 702e7 0 [thunk]:QNetworkAccessCachedHttpConnection::`vector deleting destructor'`adjustor{8}' (unsigned int)
PUBLIC 702f0 0 QHttpThreadDelegate::`vector deleting destructor'(unsigned int)
PUBLIC 70310 0 QNetworkAccessCachedHttpConnection::`vector deleting destructor'(unsigned int)
PUBLIC 70340 0 QHttpThreadDelegate::abortRequest()
PUBLIC 703c0 0 QHttpThreadDelegate::cacheCredentialsSlot(QHttpNetworkRequest const &,QAuthenticator *)
PUBLIC 703f0 0 QHttpThreadDelegate::dataReadProgressSlot(__int64,__int64)
PUBLIC 70420 0 QThreadStorage<QNetworkAccessCache *>::deleteData(void *)
PUBLIC 70430 0 QNetworkAccessCachedHttpConnection::dispose()
PUBLIC 70450 0 QHttpThreadDelegate::encryptedSlot()
PUBLIC 70460 0 QHttpThreadDelegate::finishedSlot()
PUBLIC 706f0 0 QHttpThreadDelegate::finishedWithErrorSlot(QNetworkReply::NetworkError,QString const &)
PUBLIC 707e0 0 QHttpThreadDelegate::headerChangedSlot()
PUBLIC 70ee0 0 QHttpThreadDelegate::readBufferFreed(__int64)
PUBLIC 70f40 0 QHttpThreadDelegate::readBufferSizeChanged(__int64)
PUBLIC 70f90 0 QHttpThreadDelegate::readyReadSlot()
PUBLIC 71100 0 QHttpThreadDelegate::sslErrorsSlot(QList<QSslError> const &)
PUBLIC 71180 0 QHttpThreadDelegate::startRequest()
PUBLIC 717b0 0 QHttpThreadDelegate::startRequestSynchronously()
PUBLIC 71a70 0 QHttpThreadDelegate::synchronousAuthenticationRequiredSlot(QHttpNetworkRequest const &,QAuthenticator *)
PUBLIC 71b20 0 QHttpThreadDelegate::synchronousFinishedSlot()
PUBLIC 71d80 0 QHttpThreadDelegate::synchronousFinishedWithErrorSlot(QNetworkReply::NetworkError,QString const &)
PUBLIC 71e40 0 QHttpThreadDelegate::synchronousHeaderChangedSlot()
PUBLIC 71f40 0 QHttpThreadDelegate::synchronousProxyAuthenticationRequiredSlot(QNetworkProxy const &,QAuthenticator *)
PUBLIC 71fd0 0 QHttpThreadDelegate::qt_static_metacall(QObject *,QMetaObject::Call,int,void * *)
PUBLIC 72550 0 QNonContiguousByteDeviceThreadForwardImpl::qt_static_metacall(QObject *,QMetaObject::Call,int,void * *)
PUBLIC 72620 0 QHttpThreadDelegate::authenticationRequired(QHttpNetworkRequest const &,QAuthenticator *)
PUBLIC 72680 0 QHttpThreadDelegate::downloadData(QByteArray)
PUBLIC 726e0 0 QHttpThreadDelegate::downloadFinished()
PUBLIC 72700 0 QHttpThreadDelegate::downloadMetaData(QList<QPair<QByteArray,QByteArray> >,int,QString,bool,QSharedPointer<char>,__int64,bool)
PUBLIC 72820 0 QHttpThreadDelegate::downloadProgress(__int64,__int64)
PUBLIC 72870 0 QHttpThreadDelegate::encrypted()
PUBLIC 72890 0 QHttpThreadDelegate::error(QNetworkReply::NetworkError,QString)
PUBLIC 72910 0 QNonContiguousByteDeviceThreadForwardImpl::haveDataSlot(QByteArray,bool,__int64)
PUBLIC 72990 0 QHttpThreadDelegate::metaObject()
PUBLIC 729b0 0 QNonContiguousByteDeviceThreadForwardImpl::metaObject()
PUBLIC 729d0 0 QNonContiguousByteDeviceThreadForwardImpl::processedData(__int64)
PUBLIC 72a00 0 QHttpThreadDelegate::proxyAuthenticationRequired(QNetworkProxy const &,QAuthenticator *)
PUBLIC 72a60 0 QHttpThreadDelegate::qt_metacall(QMetaObject::Call,int,void * *)
PUBLIC 72ab0 0 QNonContiguousByteDeviceThreadForwardImpl::qt_metacall(QMetaObject::Call,int,void * *)
PUBLIC 72b10 0 QHttpThreadDelegate::qt_metacast(char const *)
PUBLIC 72b70 0 QNonContiguousByteDeviceThreadForwardImpl::qt_metacast(char const *)
PUBLIC 72bd0 0 QNonContiguousByteDeviceThreadForwardImpl::resetData(bool *)
PUBLIC 72c00 0 QHttpThreadDelegate::sslConfigurationChanged(QSslConfiguration)
PUBLIC 72c40 0 QHttpThreadDelegate::sslErrors(QList<QSslError> const &,bool *,QList<QSslError> *)
PUBLIC 72cb0 0 QNonContiguousByteDeviceThreadForwardImpl::wantData(__int64)
PUBLIC 72ce0 0 QSystemLibrary::`scalar deleting destructor'(unsigned int)
PUBLIC 72db0 0 q_ASN1_STRING_data(asn1_string_st *)
PUBLIC 72e00 0 q_ASN1_STRING_length(asn1_string_st *)
PUBLIC 72e50 0 q_ASN1_STRING_to_UTF8(unsigned char * *,asn1_string_st *)
PUBLIC 72ea0 0 q_BIO_ctrl(bio_st *,int,long,void *)
PUBLIC 72ef0 0 q_BIO_free(bio_st *)
PUBLIC 72f40 0 q_BIO_new(bio_method_st *)
PUBLIC 72f90 0 q_BIO_read(bio_st *,void *,int)
PUBLIC 72ff0 0 q_BIO_s_mem()
PUBLIC 73040 0 q_BIO_write(bio_st *,void const *,int)
PUBLIC 73090 0 q_BN_bin2bn(unsigned char const *,int,bignum_st *)
PUBLIC 730e0 0 q_BN_num_bits(bignum_st const *)
PUBLIC 73130 0 q_CRYPTO_free(void *)
PUBLIC 73180 0 q_CRYPTO_num_locks()
PUBLIC 731d0 0 q_CRYPTO_set_id_callback(unsigned long (*)(void))
PUBLIC 73220 0 q_CRYPTO_set_locking_callback(void (*)(int,int,char const *,int))
PUBLIC 73270 0 q_DH_free(dh_st *)
PUBLIC 732c0 0 q_DH_new()
PUBLIC 73310 0 q_DSA_free(dsa_st *)
PUBLIC 73360 0 q_EC_KEY_free(ec_key_st *)
PUBLIC 733b0 0 q_EC_KEY_new_by_curve_name(int)
PUBLIC 73400 0 q_ERR_error_string(unsigned long,char *)
PUBLIC 73450 0 q_ERR_free_strings()
PUBLIC 734a0 0 q_ERR_get_error()
PUBLIC 734f0 0 q_EVP_PKEY_free(evp_pkey_st *)
PUBLIC 73540 0 q_EVP_PKEY_new()
PUBLIC 73590 0 q_EVP_PKEY_set1_DSA(evp_pkey_st *,dsa_st *)
PUBLIC 735e0 0 q_EVP_PKEY_set1_RSA(evp_pkey_st *,rsa_st *)
PUBLIC 73630 0 q_EVP_des_ede3_cbc()
PUBLIC 73680 0 q_OBJ_nid2sn(int)
PUBLIC 736d0 0 q_OBJ_obj2nid(asn1_object_st const *)
PUBLIC 73720 0 q_OBJ_obj2txt(char *,int,asn1_object_st *,int)
PUBLIC 73770 0 q_OPENSSL_add_all_algorithms_conf()
PUBLIC 737c0 0 q_PEM_write_bio_DSAPrivateKey(bio_st *,dsa_st *,evp_cipher_st const *,unsigned char *,int,int (*)(char *,int,int,void *),void *)
PUBLIC 73810 0 q_PEM_write_bio_DSA_PUBKEY(bio_st *,dsa_st *)
PUBLIC 73860 0 q_PEM_write_bio_RSAPrivateKey(bio_st *,rsa_st *,evp_cipher_st const *,unsigned char *,int,int (*)(char *,int,int,void *),void *)
PUBLIC 738b0 0 q_PEM_write_bio_RSA_PUBKEY(bio_st *,rsa_st *)
PUBLIC 73900 0 q_RAND_seed(void const *,int)
PUBLIC 73950 0 q_RAND_status()
PUBLIC 739a0 0 q_RSA_free(rsa_st *)
PUBLIC 739f0 0 q_SSL_CIPHER_description(ssl_cipher_st *,char *,int)
PUBLIC 73a40 0 q_SSL_CIPHER_get_bits(ssl_cipher_st *,int *)
PUBLIC 73a90 0 q_SSL_CTX_check_private_key(ssl_ctx_st const *)
PUBLIC 73ae0 0 q_SSL_CTX_ctrl(ssl_ctx_st *,int,long,void *)
PUBLIC 73b30 0 q_SSL_CTX_free(ssl_ctx_st *)
PUBLIC 73b80 0 q_SSL_CTX_load_verify_locations(ssl_ctx_st *,char const *,char const *)
PUBLIC 73bd0 0 q_SSL_CTX_new(ssl_method_st const *)
PUBLIC 73c20 0 q_SSL_CTX_set_cipher_list(ssl_ctx_st *,char const *)
PUBLIC 73c70 0 q_SSL_CTX_set_next_proto_select_cb(ssl_ctx_st *,int (*)(ssl_st *,unsigned char * *,unsigned char *,unsigned char const *,unsigned int,void *),void *)
PUBLIC 73cc0 0 q_SSL_CTX_set_verify(ssl_ctx_st *,int,int (*)(int,x509_store_ctx_st *))
PUBLIC 73d10 0 q_SSL_CTX_set_verify_depth(ssl_ctx_st *,int)
PUBLIC 73d60 0 q_SSL_CTX_use_PrivateKey(ssl_ctx_st *,evp_pkey_st *)
PUBLIC 73db0 0 q_SSL_CTX_use_certificate(ssl_ctx_st *,x509_st *)
PUBLIC 73e00 0 q_SSL_SESSION_free(ssl_session_st *)
PUBLIC 73e50 0 q_SSL_accept(ssl_st *)
PUBLIC 73ea0 0 q_SSL_clear(ssl_st *)
PUBLIC 73ef0 0 q_SSL_connect(ssl_st *)
PUBLIC 73f40 0 q_SSL_ctrl(ssl_st *,int,long,void *)
PUBLIC 73f90 0 q_SSL_free(ssl_st *)
PUBLIC 73ff0 0 q_SSL_get0_next_proto_negotiated(ssl_st const *,unsigned char const * *,unsigned int *)
PUBLIC 74040 0 q_SSL_get1_session(ssl_st *)
PUBLIC 74090 0 q_SSL_get_ciphers(ssl_st const *)
PUBLIC 740e0 0 q_SSL_get_current_cipher(ssl_st *)
PUBLIC 74130 0 q_SSL_get_error(ssl_st *,int)
PUBLIC 74180 0 q_SSL_get_peer_cert_chain(ssl_st *)
PUBLIC 741d0 0 q_SSL_get_peer_certificate(ssl_st *)
PUBLIC 74220 0 q_SSL_get_session(ssl_st const *)
PUBLIC 74270 0 q_SSL_library_init()
PUBLIC 742c0 0 q_SSL_load_error_strings()
PUBLIC 74310 0 q_SSL_new(ssl_ctx_st *)
PUBLIC 74360 0 q_SSL_read(ssl_st *,void *,int)
PUBLIC 743b0 0 q_SSL_select_next_proto(unsigned char * *,unsigned char *,unsigned char const *,unsigned int,unsigned char const *,unsigned int)
PUBLIC 74400 0 q_SSL_set_accept_state(ssl_st *)
PUBLIC 74450 0 q_SSL_set_bio(ssl_st *,bio_st *,bio_st *)
PUBLIC 744a0 0 q_SSL_set_connect_state(ssl_st *)
PUBLIC 744f0 0 q_SSL_set_session(ssl_st *,ssl_session_st *)
PUBLIC 74540 0 q_SSL_shutdown(ssl_st *)
PUBLIC 74590 0 q_SSL_version(ssl_st const *)
PUBLIC 745e0 0 q_SSL_write(ssl_st *,void const *,int)
PUBLIC 74630 0 q_SSLeay()
PUBLIC 74680 0 q_SSLv23_client_method()
PUBLIC 746d0 0 q_SSLv23_server_method()
PUBLIC 74720 0 q_SSLv2_client_method()
PUBLIC 74770 0 q_SSLv2_server_method()
PUBLIC 747c0 0 q_SSLv3_client_method()
PUBLIC 74810 0 q_SSLv3_server_method()
PUBLIC 74860 0 q_TLSv1_1_client_method()
PUBLIC 748b0 0 q_TLSv1_1_server_method()
PUBLIC 74900 0 q_TLSv1_2_client_method()
PUBLIC 74950 0 q_TLSv1_2_server_method()
PUBLIC 749a0 0 q_TLSv1_client_method()
PUBLIC 749f0 0 q_TLSv1_server_method()
PUBLIC 74a40 0 q_X509_NAME_ENTRY_get_data(X509_name_entry_st *)
PUBLIC 74a90 0 q_X509_NAME_ENTRY_get_object(X509_name_entry_st *)
PUBLIC 74ae0 0 q_X509_NAME_entry_count(X509_name_st *)
PUBLIC 74b30 0 q_X509_NAME_get_entry(X509_name_st *,int)
PUBLIC 74b80 0 q_X509_STORE_CTX_get_error(x509_store_ctx_st *)
PUBLIC 74bd0 0 q_X509_STORE_CTX_get_error_depth(x509_store_ctx_st *)
PUBLIC 74c20 0 q_X509_STORE_add_cert(x509_store_st *,x509_st *)
PUBLIC 74c70 0 q_X509_cmp(x509_st *,x509_st *)
PUBLIC 74cc0 0 q_X509_dup(x509_st *)
PUBLIC 74d10 0 q_X509_free(x509_st *)
PUBLIC 74d60 0 q_X509_get_ext_d2i(x509_st *,int,int *,int *)
PUBLIC 74db0 0 q_X509_get_issuer_name(x509_st *)
PUBLIC 74e00 0 q_X509_get_subject_name(x509_st *)
PUBLIC 74e50 0 q_d2i_SSL_SESSION(ssl_session_st * *,unsigned char const * *,long)
PUBLIC 74ea0 0 q_d2i_X509(x509_st * *,unsigned char const * *,long)
PUBLIC 74ef0 0 q_getTimeFromASN1(asn1_string_st const *)
PUBLIC 75280 0 q_i2d_SSL_SESSION(ssl_session_st *,unsigned char * *)
PUBLIC 752d0 0 q_i2d_X509(x509_st *,unsigned char * *)
PUBLIC 75320 0 q_resolveOpenSslSymbols()
PUBLIC 77630 0 q_sk_free(stack_st *)
PUBLIC 77680 0 q_sk_num(stack_st *)
PUBLIC 776d0 0 q_sk_pop_free(stack_st *,void (*)(void *))
PUBLIC 77720 0 q_sk_value(stack_st *,int)
PUBLIC 77770 0 `anonymous namespace'::qsslSocketCannotResolveSymbolWarning(char const *)
PUBLIC 779b0 0 qDeleteAll<QList<QHostInfoRunnable *>::const_iterator>(QList<QHostInfoRunnable *>::const_iterator,QList<QHostInfoRunnable *>::const_iterator)
PUBLIC 779f0 0 QMutableListIterator<QHostInfoRunnable *>::QMutableListIterator<QHostInfoRunnable *>(QList<QHostInfoRunnable *> &)
PUBLIC 77a60 0 QHostInfo::QHostInfo(QHostInfo const &)
PUBLIC 77aa0 0 QHostInfo::QHostInfo(int)
PUBLIC 77b10 0 QHostInfoLookupManager::QHostInfoLookupManager()
PUBLIC 77bf0 0 QHostInfoPrivate::QHostInfoPrivate(QHostInfoPrivate const &)
PUBLIC 77c90 0 QHostInfoRunnable::QHostInfoRunnable(QString,int)
PUBLIC 77d10 0 QHostInfo::~QHostInfo()
PUBLIC 77d30 0 QHostInfoLookupManager::~QHostInfoLookupManager()
PUBLIC 77e60 0 QHostInfoPrivate::~QHostInfoPrivate()
PUBLIC 77ef0 0 QHostInfoPrivate::operator=(QHostInfoPrivate const &)
PUBLIC 77f70 0 QAbstractHostInfoLookupManager::`vector deleting destructor'(unsigned int)
PUBLIC 77fe0 0 QHostInfoLookupManager::`vector deleting destructor'(unsigned int)
PUBLIC 78000 0 QHostInfoRunnable::`vector deleting destructor'(unsigned int)
PUBLIC 78060 0 QRunnable::`vector deleting destructor'(unsigned int)
PUBLIC 78080 0 QtMetaTypePrivate::QMetaTypeFunctionHelper<QHostInfo,1>::Construct(void *,void const *)
PUBLIC 780e0 0 QtMetaTypePrivate::QMetaTypeFunctionHelper<QHostInfo,1>::Create(void const *)
PUBLIC 78150 0 QtMetaTypePrivate::QMetaTypeFunctionHelper<QHostInfo,1>::Delete(void *)
PUBLIC 78180 0 QtMetaTypePrivate::QMetaTypeFunctionHelper<QHostInfo,1>::Destruct(void *)
PUBLIC 781a0 0 QHostInfo::abortHostLookup(int)
PUBLIC 781d0 0 QHostInfoLookupManager::abortLookup(int)
PUBLIC 78390 0 QHostInfo::addresses()
PUBLIC 78400 0 QList<int>::append(int const &)
PUBLIC 78440 0 QCache<QString,QHostInfoCache::QHostInfoCacheElement>::clear()
PUBLIC 784d0 0 QHostInfoLookupManager::clear()
PUBLIC 78650 0 QHash<QString,QCache<QString,QHostInfoCache::QHostInfoCacheElement>::Node>::createNode(unsigned int,QString const &,QCache<QString,QHostInfoCache::QHostInfoCacheElement>::Node const &,QHashNode<QString,QCache<QString,QHostInfoCache::QHostInfoCacheElement>::Node> * *)
PUBLIC 786c0 0 QHash<QRegExpEngineKey,QCache<QRegExpEngineKey,QRegExpEngine>::Node>::deleteNode2(QHashData::Node *)
PUBLIC 786f0 0 QHash<QString,QCache<QString,QHostInfoCache::QHostInfoCacheElement>::Node>::detach()
PUBLIC 78750 0 QHash<QString,QCache<QString,QHostInfoCache::QHostInfoCacheElement>::Node>::duplicateNode(QHashData::Node *,void *)
PUBLIC 787a0 0 QList<QFtpCommand *>::erase(QList<QFtpCommand *>::iterator)
PUBLIC 78820 0 QHash<QString,QCache<QString,QHostInfoCache::QHostInfoCacheElement>::Node>::find(QString const &)
PUBLIC 788f0 0 QHostInfo::fromName(QString const &)
PUBLIC 78940 0 QHostInfoPrivate::fromName(QString const &,QSharedPointer<QNetworkSession>)
PUBLIC 789f0 0 QHostInfoCache::get(QString const &,bool *)
PUBLIC 78ab0 0 `anonymous namespace'::Q_QGS_theHostInfoLookupManager::innerFunction()
PUBLIC 78b40 0 QCache<QString,QHostInfoCache::QHostInfoCacheElement>::insert(QString const &,QHostInfoCache::QHostInfoCacheElement *,int)
PUBLIC 78c30 0 QHash<QString,QCache<QString,QHostInfoCache::QHostInfoCacheElement>::Node>::insert(QString const &,QCache<QString,QHostInfoCache::QHostInfoCacheElement>::Node const &)
PUBLIC 78d10 0 QHostInfoLookupManager::lookupFinished(QHostInfoRunnable *)
PUBLIC 78d90 0 QHostInfo::lookupHost(QString const &,QObject *,char const *)
PUBLIC 79040 0 QHostInfo::lookupId()
PUBLIC 79050 0 QHostInfoCache::put(QString const &,QHostInfo const &)
PUBLIC 79120 0 QMetaTypeId<QHostInfo>::qt_metatype_id()
PUBLIC 791b0 0 qt_qhostinfo_lookup(QString const &,QObject *,char const *,bool *,int *)
PUBLIC 79270 0 QCache<QString,QHostInfoCache::QHostInfoCacheElement>::relink(QString const &)
PUBLIC 792e0 0 QHash<QString,QCache<QString,QHostInfoCache::QHostInfoCacheElement>::Node>::remove(QString const &)
PUBLIC 793f0 0 QList<QHostInfoRunnable *>::removeOne(QHostInfoRunnable * const &)
PUBLIC 79470 0 QHostInfoRunnable::run()
PUBLIC 796d0 0 QHostInfoLookupManager::scheduleLookup(QHostInfoRunnable *)
PUBLIC 79740 0 QHostInfo::setAddresses(QList<QHostAddress> const &)
PUBLIC 797a0 0 QHostInfo::setError(QHostInfo::HostInfoError)
PUBLIC 797b0 0 QHostInfo::setErrorString(QString const &)
PUBLIC 797c0 0 QHostInfo::setHostName(QString const &)
PUBLIC 797d0 0 QCache<QString,QHostInfoCache::QHostInfoCacheElement>::trim(int)
PUBLIC 79860 0 QCache<QString,QHostInfoCache::QHostInfoCacheElement>::unlink(QCache<QString,QHostInfoCache::QHostInfoCacheElement>::Node &)
PUBLIC 798d0 0 QHostInfoLookupManager::wasAborted(int)
PUBLIC 79940 0 QHostInfoLookupManager::work()
PUBLIC 79f90 0 QSslKeyPrivate::clear(bool)
PUBLIC 7a000 0 QSslKeyPrivate::handle()
PUBLIC 7a020 0 QSslKeyPrivate::length()
PUBLIC 7a060 0 QSslKeyPrivate::toPem(QByteArray const &)
PUBLIC 7a1e0 0 QSslContext::QSslContext()
PUBLIC 7a230 0 QSslContext::~QSslContext()
PUBLIC 7a2f0 0 QSslContext::cacheSession(ssl_st *)
PUBLIC 7a3d0 0 QSslContext::createSsl()
PUBLIC 7a790 0 QSslContext::error()
PUBLIC 7a7a0 0 QSslContext::errorString()
PUBLIC 7a7c0 0 QSslContext::fromConfiguration(QSslSocket::SslMode,QSslConfiguration const &,bool)
PUBLIC 7b340 0 QSslContext::npnContext()
PUBLIC 7b360 0 QSslContext::sessionASN1()
PUBLIC 7b380 0 QSslContext::sessionTicketLifeTimeHint()
PUBLIC 7b390 0 QWindowsCaRootFetcher::qt_static_metacall(QObject *,QMetaObject::Call,int,void * *)
PUBLIC 7b440 0 QWindowsCaRootFetcher::finished(QSslCertificate,QSslCertificate)
PUBLIC 7b4a0 0 QWindowsCaRootFetcher::metaObject()
PUBLIC 7b4c0 0 QWindowsCaRootFetcher::qt_metacall(QMetaObject::Call,int,void * *)
PUBLIC 7b510 0 QWindowsCaRootFetcher::qt_metacast(char const *)
PUBLIC 7b570 0 QAbstractSocketEngine::qt_static_metacall(QObject *,QMetaObject::Call,int,void * *)
PUBLIC 7b5f0 0 QAbstractSocketEngine::metaObject()
PUBLIC 7b610 0 QAbstractSocketEngine::qt_metacall(QMetaObject::Call,int,void * *)
PUBLIC 7b670 0 QAbstractSocketEngine::qt_metacast(char const *)
PUBLIC 7b6d0 0 QNativeSocketEngine::QNativeSocketEngine(QObject *)
PUBLIC 7b740 0 QNativeSocketEngine::`vector deleting destructor'(unsigned int)
PUBLIC 7b770 0 QNativeSocketEnginePrivate::`vector deleting destructor'(unsigned int)
PUBLIC 7b7e0 0 QExceptionNotifier::`vector deleting destructor'(unsigned int)
PUBLIC 7b800 0 QNativeSocketEngine::accept()
PUBLIC 7b8c0 0 QNativeSocketEngine::bind(QHostAddress const &,unsigned short)
PUBLIC 7b970 0 QNativeSocketEngine::bytesAvailable()
PUBLIC 7b9d0 0 QNativeSocketEnginePrivate::checkProxy(QHostAddress const &)
PUBLIC 7bb00 0 QNativeSocketEngine::close()
PUBLIC 7bbb0 0 QNativeSocketEngine::connectToHost(QHostAddress const &,unsigned short)
PUBLIC 7bc80 0 QNativeSocketEngine::connectToHostByName(QString const &,unsigned short)
PUBLIC 7bcd0 0 QNativeSocketEngine::connectionNotification()
PUBLIC 7bd00 0 QExceptionNotifier::event(QEvent *)
PUBLIC 7bd70 0 QReadNotifier::event(QEvent *)
PUBLIC 7bdb0 0 QWriteNotifier::event(QEvent *)
PUBLIC 7be20 0 QNativeSocketEngine::hasPendingDatagrams()
PUBLIC 7bee0 0 QNativeSocketEngine::initialize(int,QAbstractSocket::SocketState)
PUBLIC 7c000 0 QNativeSocketEngine::initialize(QAbstractSocket::SocketType,QAbstractSocket::NetworkLayerProtocol)
PUBLIC 7c160 0 QNativeSocketEngine::isExceptionNotificationEnabled()
PUBLIC 7c180 0 QNativeSocketEngine::isReadNotificationEnabled()
PUBLIC 7c1a0 0 QNativeSocketEngine::isValid()
PUBLIC 7c1b0 0 QNativeSocketEngine::isWriteNotificationEnabled()
PUBLIC 7c1d0 0 QNativeSocketEngine::joinMulticastGroup(QHostAddress const &,QNetworkInterface const &)
PUBLIC 7c310 0 QNativeSocketEngine::leaveMulticastGroup(QHostAddress const &,QNetworkInterface const &)
PUBLIC 7c3e0 0 QNativeSocketEngine::listen()
PUBLIC 7c4a0 0 QNativeSocketEngine::multicastInterface()
PUBLIC 7c550 0 QNativeSocketEngine::option(QAbstractSocketEngine::SocketOption)
PUBLIC 7c560 0 QNativeSocketEngine::pendingDatagramSize()
PUBLIC 7c5c0 0 QNativeSocketEngine::read(char *,__int64)
PUBLIC 7c6e0 0 QNativeSocketEngine::readDatagram(char *,__int64,QHostAddress *,unsigned short *)
PUBLIC 7c760 0 QNativeSocketEnginePrivate::setError(QAbstractSocket::SocketError,QNativeSocketEnginePrivate::ErrorString)
PUBLIC 7cdc0 0 QNativeSocketEngine::setExceptionNotificationEnabled(bool)
PUBLIC 7ce40 0 QNativeSocketEngine::setMulticastInterface(QNetworkInterface const &)
PUBLIC 7ced0 0 QNativeSocketEngine::setOption(QAbstractSocketEngine::SocketOption,int)
PUBLIC 7cee0 0 QNativeSocketEngine::setReadNotificationEnabled(bool)
PUBLIC 7cf60 0 QNativeSocketEngine::setWriteNotificationEnabled(bool)
PUBLIC 7cfe0 0 QNativeSocketEngine::socketDescriptor()
PUBLIC 7cff0 0 QNativeSocketEngine::waitForRead(int,bool *)
PUBLIC 7d120 0 QNativeSocketEngine::waitForReadOrWrite(bool *,bool *,bool,bool,int,bool *)
PUBLIC 7d3d0 0 QNativeSocketEngine::waitForWrite(int,bool *)
PUBLIC 7d660 0 QNativeSocketEngine::write(char const *,__int64)
PUBLIC 7d6d0 0 QNativeSocketEngine::writeDatagram(char const *,__int64,QHostAddress const &,unsigned short)
PUBLIC 7d750 0 QSocks5SocketEngine::qt_static_metacall(QObject *,QMetaObject::Call,int,void * *)
PUBLIC 7d880 0 QSocks5SocketEngine::metaObject()
PUBLIC 7d8a0 0 QSocks5SocketEngine::qt_metacall(QMetaObject::Call,int,void * *)
PUBLIC 7d8f0 0 QSocks5SocketEngine::qt_metacast(char const *)
PUBLIC 7d950 0 QUdpSocket::QUdpSocket(QObject *)
PUBLIC 7d9b0 0 QUdpSocket::~QUdpSocket()
PUBLIC 7d9c0 0 QUdpSocket::`vector deleting destructor'(unsigned int)
PUBLIC 7d9f0 0 QUdpSocketPrivate::doEnsureInitialized(QHostAddress const &,unsigned short,QHostAddress const &)
PUBLIC 7da90 0 QUdpSocket::hasPendingDatagrams()
PUBLIC 7daf0 0 QUdpSocket::pendingDatagramSize()
PUBLIC 7db50 0 QUdpSocket::readDatagram(char *,__int64,QHostAddress *,unsigned short *)
PUBLIC 7dc60 0 QUdpSocket::writeDatagram(char const *,__int64,QHostAddress const &,unsigned short)
PUBLIC 7dd90 0 QHttpSocketEngine::qt_static_metacall(QObject *,QMetaObject::Call,int,void * *)
PUBLIC 7de90 0 QHttpSocketEngine::metaObject()
PUBLIC 7deb0 0 QHttpSocketEngine::qt_metacall(QMetaObject::Call,int,void * *)
PUBLIC 7df00 0 QHttpSocketEngine::qt_metacast(char const *)
PUBLIC 7df60 0 QHttpNetworkReply::QHttpNetworkReply(QUrl const &,QObject *)
PUBLIC 7dfb0 0 QHttpNetworkReplyPrivate::QHttpNetworkReplyPrivate(QUrl const &)
PUBLIC 7e1e0 0 QHttpNetworkReply::~QHttpNetworkReply()
PUBLIC 7e270 0 QHttpNetworkReplyPrivate::~QHttpNetworkReplyPrivate()
PUBLIC 7e450 0 QPointer<QHttpNetworkConnection>::operator->()
PUBLIC 7e463 0 [thunk]:QHttpNetworkReply::`vector deleting destructor'`adjustor{8}' (unsigned int)
PUBLIC 7e470 0 QHttpNetworkReply::`vector deleting destructor'(unsigned int)
PUBLIC 7e490 0 QHttpNetworkReplyPrivate::`vector deleting destructor'(unsigned int)
PUBLIC 7e4b0 0 QHttpNetworkReplyPrivate::authenticationMethod(bool)
PUBLIC 7e670 0 QHttpNetworkReplyPrivate::clear()
PUBLIC 7e700 0 QHttpNetworkReplyPrivate::clearHttpLayerInformation()
PUBLIC 7e7f0 0 QHttpNetworkReply::contentLength()
PUBLIC 7e800 0 QHttpNetworkReplyPrivate::eraseData()
PUBLIC 7e820 0 QHttpNetworkReplyPrivate::expectContent()
PUBLIC 7e880 0 QHttpNetworkReplyPrivate::getChunkSize(QAbstractSocket *,__int64 *)
PUBLIC 7ea90 0 QHttpNetworkReply::header()
PUBLIC 7eb00 0 QHttpNetworkReply::headerField(QByteArray const &,QByteArray const &)
PUBLIC 7eb20 0 QHttpNetworkReply::ignoreSslErrors(QList<QSslError> const &)
PUBLIC 7eb70 0 QHttpNetworkReply::ignoreSslErrors()
PUBLIC 7ebb0 0 QHttpNetworkReplyPrivate::initializeInflateStream()
PUBLIC 7ec10 0 QHttpNetworkReplyPrivate::isChunked()
PUBLIC 7ec20 0 QHttpNetworkReplyPrivate::isCompressed()
PUBLIC 7ed30 0 QHttpNetworkReplyPrivate::isConnectionCloseEnabled()
PUBLIC 7ed50 0 QHttpNetworkReply::isFinished()
PUBLIC 7ed60 0 QHttpNetworkReply::isPipeliningUsed()
PUBLIC 7ed70 0 QHttpNetworkReply::isSpdyUsed()
PUBLIC 7ed80 0 QHttpNetworkReply::majorVersion()
PUBLIC 7ed90 0 QHttpNetworkReply::minorVersion()
PUBLIC 7eda0 0 QHttpNetworkReplyPrivate::parseHeader(QByteArray const &)
PUBLIC 7f1b0 0 QHttpNetworkReplyPrivate::parseStatus(QByteArray const &)
PUBLIC 7f2d0 0 QByteDataBuffer::read(__int64)
PUBLIC 7f380 0 QHttpNetworkReply::read(__int64)
PUBLIC 7f3b0 0 QHttpNetworkReply::readAll()
PUBLIC 7f3d0 0 QHttpNetworkReply::readAny()
PUBLIC 7f480 0 QHttpNetworkReply::readAnyAvailable()
PUBLIC 7f4a0 0 QHttpNetworkReplyPrivate::readBody(QAbstractSocket *,QByteDataBuffer *)
PUBLIC 7f620 0 QHttpNetworkReplyPrivate::readBodyFast(QAbstractSocket *,QByteDataBuffer *)
PUBLIC 7f7c0 0 QHttpNetworkReplyPrivate::readBodyVeryFast(QAbstractSocket *,char *)
PUBLIC 7f820 0 QHttpNetworkReplyPrivate::readHeader(QAbstractSocket *)
PUBLIC 7fe80 0 QHttpNetworkReplyPrivate::readReplyBodyChunked(QAbstractSocket *,QByteDataBuffer *)
PUBLIC 80050 0 QHttpNetworkReplyPrivate::readReplyBodyRaw(QAbstractSocket *,QByteDataBuffer *,__int64)
PUBLIC 80300 0 QHttpNetworkReplyPrivate::readStatus(QAbstractSocket *)
PUBLIC 80450 0 QHttpNetworkReply::reasonPhrase()
PUBLIC 80480 0 QHttpNetworkReplyPrivate::removeAutoDecompressHeader()
PUBLIC 80560 0 QHttpNetworkReply::request()
PUBLIC 80580 0 QHttpNetworkReply::setContentLength(__int64)
PUBLIC 805a0 0 QHttpNetworkReply::setDownstreamLimited(bool)
PUBLIC 805e0 0 QHttpNetworkReply::setHeaderField(QByteArray const &,QByteArray const &)
PUBLIC 805f0 0 QHttpNetworkReply::setReadBufferSize(__int64)
PUBLIC 80610 0 QHttpNetworkReply::setRequest(QHttpNetworkRequest const &)
PUBLIC 80630 0 QHttpNetworkReply::setSpdyWasUsed(bool)
PUBLIC 80640 0 QHttpNetworkReply::setStatusCode(int)
PUBLIC 80650 0 QHttpNetworkReply::setUrl(QUrl const &)
PUBLIC 80660 0 QHttpNetworkReply::setUserProvidedDownloadBuffer(char *)
PUBLIC 806a0 0 QHttpNetworkReplyPrivate::shouldEmitSignals()
PUBLIC 806c0 0 QHttpNetworkReply::sizeNextBlock()
PUBLIC 80700 0 QHttpNetworkReply::sslConfiguration()
PUBLIC 80770 0 QThreadPool::expiryTimeout()
PUBLIC 80780 0 QHttpNetworkReply::supportsUserProvidedDownloadBuffer()
PUBLIC 807c0 0 QHttpNetworkReplyPrivate::uncompressBodyData(QByteDataBuffer *,QByteDataBuffer *)
PUBLIC 80c70 0 QHttpNetworkReply::url()
PUBLIC 80c90 0 QAbstractNetworkCache::qt_static_metacall(QObject *,QMetaObject::Call,int,void * *)
PUBLIC 80cb0 0 QUrlInfo::QUrlInfo()
PUBLIC 80cc0 0 QUrlInfoPrivate::QUrlInfoPrivate()
PUBLIC 80d10 0 QUrlInfo::~QUrlInfo()
PUBLIC 80d30 0 QUrlInfoPrivate::~QUrlInfoPrivate()
PUBLIC 80dd0 0 QUrlInfo::`vector deleting destructor'(unsigned int)
PUBLIC 80e10 0 QUrlInfo::isFile()
PUBLIC 80e20 0 QUrlInfo::isSymLink()
PUBLIC 80e30 0 QUrlInfo::owner()
PUBLIC 80e60 0 QUrlInfo::setDir(bool)
PUBLIC 80eb0 0 QUrlInfo::setFile(bool)
PUBLIC 80f00 0 QUrlInfo::setGroup(QString const &)
PUBLIC 80f40 0 QUrlInfo::setLastModified(QDateTime const &)
PUBLIC 80f80 0 QUrlInfo::setName(QString const &)
PUBLIC 80fd0 0 QUrlInfo::setOwner(QString const &)
PUBLIC 81010 0 QUrlInfo::setPermissions(int)
PUBLIC 81060 0 QUrlInfo::setReadable(bool)
PUBLIC 810b0 0 QUrlInfo::setSize(__int64)
PUBLIC 810f0 0 QUrlInfo::setSymLink(bool)
PUBLIC 81140 0 QUrlInfo::setWritable(bool)
PUBLIC 81190 0 QTcpServer::qt_static_metacall(QObject *,QMetaObject::Call,int,void * *)
PUBLIC 81280 0 QTcpServer::QTcpServer(QObject *)
PUBLIC 812c0 0 QTcpServerPrivate::QTcpServerPrivate()
PUBLIC 81330 0 QTcpServer::~QTcpServer()
PUBLIC 81350 0 QTcpServerPrivate::~QTcpServerPrivate()
PUBLIC 813d2 0 [thunk]:QTcpServerPrivate::`vector deleting destructor'`adjustor{64}' (unsigned int)
PUBLIC 813e0 0 QTcpServer::`vector deleting destructor'(unsigned int)
PUBLIC 81410 0 QTcpServerPrivate::`vector deleting destructor'(unsigned int)
PUBLIC 81430 0 QTcpServer::acceptError(QAbstractSocket::SocketError)
PUBLIC 81460 0 QTcpServer::close()
PUBLIC 814e0 0 QTcpServer::hasPendingConnections()
PUBLIC 81500 0 QTcpServer::incomingConnection(int)
PUBLIC 81570 0 QTcpServer::isListening()
PUBLIC 81590 0 QTcpServer::listen(QHostAddress const &,unsigned short)
PUBLIC 817f0 0 QTcpServer::metaObject()
PUBLIC 81810 0 QTcpServer::newConnection()
PUBLIC 81830 0 QTcpServer::nextPendingConnection()
PUBLIC 81870 0 QTcpServer::proxy()
PUBLIC 81890 0 QTcpServerPrivate::proxyAuthenticationRequired(QNetworkProxy const &,QAuthenticator *)
PUBLIC 818a0 0 QTcpServer::qt_metacall(QMetaObject::Call,int,void * *)
PUBLIC 818f0 0 QTcpServer::qt_metacast(char const *)
PUBLIC 81950 0 QTcpServerPrivate::readNotification()
PUBLIC 81ad0 0 QTcpServerPrivate::resolveProxy(QHostAddress const &,unsigned short)
PUBLIC 81ed0 0 QTcpServer::serverPort()
PUBLIC 81ef0 0 QList<QTcpSocket *>::takeFirst()
PUBLIC 81f50 0 QTcpServer::waitForNewConnection(int,bool *)
PUBLIC 81ff0 0 QHttpNetworkConnection::qt_static_metacall(QObject *,QMetaObject::Call,int,void * *)
PUBLIC 82060 0 QStringBuilder<QStringBuilder<char const [2],QByteArray>,char const [2]>::convertTo<QByteArray>()
PUBLIC 820d0 0 QHttpNetworkConnection::QHttpNetworkConnection(QString const &,unsigned short,bool,QHttpNetworkConnection::ConnectionType,QObject *,QSharedPointer<QNetworkSession>)
PUBLIC 82180 0 QHttpNetworkConnectionPrivate::QHttpNetworkConnectionPrivate(QString const &,unsigned short,bool,QHttpNetworkConnection::ConnectionType)
PUBLIC 82360 0 QMap<int,QPair<QHttpNetworkRequest,QHttpNetworkReply *> >::~QMap<int,QPair<QHttpNetworkRequest,QHttpNetworkReply *> >()
PUBLIC 823c0 0 QHttpNetworkConnection::~QHttpNetworkConnection()
PUBLIC 823d0 0 QHttpNetworkConnectionChannel::~QHttpNetworkConnectionChannel()
PUBLIC 824d0 0 QHttpNetworkConnectionPrivate::~QHttpNetworkConnectionPrivate()
PUBLIC 826d0 0 QHttpNetworkConnectionChannel::`vector deleting destructor'(unsigned int)
PUBLIC 82740 0 QHttpNetworkConnection::`vector deleting destructor'(unsigned int)
PUBLIC 82770 0 QHttpNetworkConnectionPrivate::`vector deleting destructor'(unsigned int)
PUBLIC 82790 0 QHttpNetworkConnectionPrivate::_q_hostLookupFinished(QHostInfo)
PUBLIC 82a70 0 QHttpNetworkConnectionPrivate::_q_startNextRequest()
PUBLIC 82d10 0 QList<QPair<QHttpNetworkRequest,QHttpNetworkReply *> >::append(QPair<QHttpNetworkRequest,QHttpNetworkReply *> const &)
PUBLIC 82d80 0 QHttpNetworkConnection::cacheProxy()
PUBLIC 82da0 0 QHttpNetworkConnection::connectionType()
PUBLIC 82db0 0 QMapNode<int,QPair<QHttpNetworkRequest,QHttpNetworkReply *> >::copy(QMapData<int,QPair<QHttpNetworkRequest,QHttpNetworkReply *> > *)
PUBLIC 82e60 0 QHttpNetworkConnectionPrivate::copyCredentials(int,QAuthenticator *,bool)
PUBLIC 83090 0 QHttpNetworkConnectionPrivate::createAuthorization(QAbstractSocket *,QHttpNetworkRequest &)
PUBLIC 83300 0 QList<QPair<QHttpNetworkRequest,QHttpNetworkReply *> >::dealloc(QListData::Data *)
PUBLIC 83350 0 QHttpNetworkConnectionPrivate::dequeueRequest(QAbstractSocket *)
PUBLIC 83450 0 QMapNode<int,QPair<QHttpNetworkRequest,QHttpNetworkReply *> >::destroySubTree()
PUBLIC 83470 0 QList<QPair<QHttpNetworkRequest,QHttpNetworkReply *> >::detach_helper(int)
PUBLIC 834d0 0 QMap<int,QPair<QHttpNetworkRequest,QHttpNetworkReply *> >::detach_helper()
PUBLIC 83570 0 QList<QPair<QHttpNetworkRequest,QHttpNetworkReply *> >::detach_helper_grow(int,int)
PUBLIC 83620 0 QHttpNetworkConnectionPrivate::emitProxyAuthenticationRequired(QHttpNetworkConnectionChannel const *,QNetworkProxy const &,QAuthenticator *)
PUBLIC 836d0 0 QHttpNetworkConnectionPrivate::emitReplyError(QAbstractSocket *,QHttpNetworkReply *,QNetworkReply::NetworkError)
PUBLIC 83870 0 QList<QPair<QHttpNetworkRequest,QHttpNetworkReply *> >::erase(QList<QPair<QHttpNetworkRequest,QHttpNetworkReply *> >::iterator)
PUBLIC 838f0 0 QHttpNetworkConnectionPrivate::errorDetail(QNetworkReply::NetworkError,QAbstractSocket *,QString const &)
PUBLIC 83c60 0 QHttpNetworkConnectionPrivate::fillPipeline(QAbstractSocket *)
PUBLIC 83ef0 0 QHttpNetworkConnectionPrivate::fillPipeline(QList<QPair<QHttpNetworkRequest,QHttpNetworkReply *> > &,QHttpNetworkConnectionChannel &)
PUBLIC 84040 0 QHttpNetworkConnectionPrivate::handleAuthenticateChallenge(QAbstractSocket *,QHttpNetworkReply *,bool,bool &)
PUBLIC 84380 0 QHttpNetworkConnection::ignoreSslErrors(QList<QSslError> const &,int)
PUBLIC 843e0 0 QHttpNetworkConnection::ignoreSslErrors(int)
PUBLIC 84430 0 QHttpNetworkConnectionPrivate::indexOf(QAbstractSocket *)
PUBLIC 84490 0 QHttpNetworkConnectionPrivate::init()
PUBLIC 84580 0 QMap<int,QPair<QHttpNetworkRequest,QHttpNetworkReply *> >::insertMulti(int const &,QPair<QHttpNetworkRequest,QHttpNetworkReply *> const &)
PUBLIC 84610 0 QHttpNetworkConnection::metaObject()
PUBLIC 84630 0 QHttpNetworkConnectionPrivate::networkLayerDetected(QAbstractSocket::NetworkLayerProtocol)
PUBLIC 84670 0 QList<QPair<QHttpNetworkRequest,QHttpNetworkReply *> >::node_construct(QList<QPair<QHttpNetworkRequest,QHttpNetworkReply *> >::Node *,QPair<QHttpNetworkRequest,QHttpNetworkReply *> const &)
PUBLIC 846b0 0 QList<QPair<QHttpNetworkRequest,QHttpNetworkReply *> >::node_copy(QList<QPair<QHttpNetworkRequest,QHttpNetworkReply *> >::Node *,QList<QPair<QHttpNetworkRequest,QHttpNetworkReply *> >::Node *,QList<QPair<QHttpNetworkRequest,QHttpNetworkReply *> >::Node *)
PUBLIC 84710 0 QHttpNetworkConnectionPrivate::pauseConnection()
PUBLIC 84760 0 QHttpNetworkConnection::preConnectFinished()
PUBLIC 84770 0 QHttpNetworkConnectionPrivate::predictNextRequest()
PUBLIC 847f0 0 QHttpNetworkConnectionPrivate::prepareRequest(QPair<QHttpNetworkRequest,QHttpNetworkReply *> &)
PUBLIC 85480 0 QList<QPair<QHttpNetworkRequest,QHttpNetworkReply *> >::prepend(QPair<QHttpNetworkRequest,QHttpNetworkReply *> const &)
PUBLIC 854f0 0 QHttpNetworkConnection::qt_metacall(QMetaObject::Call,int,void * *)
PUBLIC 85550 0 QHttpNetworkConnection::qt_metacast(char const *)
PUBLIC 855b0 0 QHttpNetworkConnectionPrivate::queueRequest(QHttpNetworkRequest const &)
PUBLIC 85720 0 QHttpNetworkConnectionPrivate::readMoreLater(QHttpNetworkReply *)
PUBLIC 857a0 0 QMap<int,QPair<QHttpNetworkRequest,QHttpNetworkReply *> >::remove(int const &)
PUBLIC 85810 0 QHttpNetworkConnectionPrivate::removeReply(QHttpNetworkReply *)
PUBLIC 85d30 0 QHttpNetworkConnectionPrivate::requeueRequest(QPair<QHttpNetworkRequest,QHttpNetworkReply *> const &)
PUBLIC 85dc0 0 QHttpNetworkConnectionPrivate::resumeConnection()
PUBLIC 85e90 0 QHttpNetworkConnection::sendRequest(QHttpNetworkRequest const &)
PUBLIC 85ea0 0 QHttpNetworkConnection::setCacheProxy(QNetworkProxy const &)
PUBLIC 85fc0 0 QHttpNetworkConnection::setConnectionType(QHttpNetworkConnection::ConnectionType)
PUBLIC 85fd0 0 QHttpNetworkConnection::setSslConfiguration(QSslConfiguration const &)
PUBLIC 86010 0 QHttpNetworkConnection::setSslContext(QSharedPointer<QSslContext>)
PUBLIC 86080 0 QHttpNetworkConnection::setTransparentProxy(QNetworkProxy const &)
PUBLIC 860c0 0 QHttpNetworkConnectionPrivate::shouldEmitChannelError(QAbstractSocket *)
PUBLIC 86260 0 QHttpNetworkConnection::sslContext()
PUBLIC 862a0 0 QHttpNetworkConnectionPrivate::startHostInfoLookup()
PUBLIC 86490 0 QHttpNetworkConnectionPrivate::startNetworkLayerStateLookup()
PUBLIC 865d0 0 QList<QPair<QHttpNetworkRequest,QHttpNetworkReply *> >::takeAt(int)
PUBLIC 86640 0 QList<QPair<QHttpNetworkRequest,QHttpNetworkReply *> >::takeLast()
PUBLIC 866c0 0 QHttpNetworkConnection::transparentProxy()
PUBLIC 866e0 0 QMap<int,QPair<QHttpNetworkRequest,QHttpNetworkReply *> >::values()
PUBLIC 867c0 0 QHostInfoLookupManager::qt_static_metacall(QObject *,QMetaObject::Call,int,void * *)
PUBLIC 867e0 0 QHostInfoResult::qt_static_metacall(QObject *,QMetaObject::Call,int,void * *)
PUBLIC 86890 0 QGenericAtomicOps<QAtomicOpsBySize<4> >::acquireMemoryFence<int>(int const &)
PUBLIC 868a0 0 QAbstractHostInfoLookupManager::metaObject()
PUBLIC 868c0 0 QHostInfoLookupManager::metaObject()
PUBLIC 868e0 0 QHostInfoResult::metaObject()
PUBLIC 86900 0 QAbstractHostInfoLookupManager::qt_metacall(QMetaObject::Call,int,void * *)
PUBLIC 86910 0 QHostInfoLookupManager::qt_metacall(QMetaObject::Call,int,void * *)
PUBLIC 86970 0 QHostInfoResult::qt_metacall(QMetaObject::Call,int,void * *)
PUBLIC 869c0 0 QAbstractHostInfoLookupManager::qt_metacast(char const *)
PUBLIC 86a20 0 QHostInfoLookupManager::qt_metacast(char const *)
PUBLIC 86a80 0 QHostInfoResult::qt_metacast(char const *)
PUBLIC 86ae0 0 QHostInfoResult::resultsReady(QHostInfo const &)
PUBLIC 86b10 0 QList<QHostAddress>::contains(QHostAddress const &)
PUBLIC 86b60 0 QHostInfoAgent::fromName(QString const &)
PUBLIC 87530 0 QNativeSocketEngine::qt_static_metacall(QObject *,QMetaObject::Call,int,void * *)
PUBLIC 87550 0 QNativeSocketEngine::metaObject()
PUBLIC 87570 0 QNativeSocketEngine::qt_metacall(QMetaObject::Call,int,void * *)
PUBLIC 875d0 0 QNativeSocketEngine::qt_metacast(char const *)
PUBLIC 87630 0 QWindowsSockInit::QWindowsSockInit()
PUBLIC 876c0 0 QWindowsSockInit::~QWindowsSockInit()
PUBLIC 876d0 0 QNativeSocketEnginePrivate::createNewSocket(QAbstractSocket::SocketType,QAbstractSocket::NetworkLayerProtocol &)
PUBLIC 87830 0 QNativeSocketEnginePrivate::fetchConnectionParameters()
PUBLIC 87a00 0 QList<QNetworkAddressEntry>::first()
PUBLIC 87bd0 0 QNativeSocketEnginePrivate::nativeAccept()
PUBLIC 87d60 0 QNativeSocketEnginePrivate::nativeBind(QHostAddress const &,unsigned short)
PUBLIC 87f80 0 QNativeSocketEnginePrivate::nativeBytesAvailable()
PUBLIC 88040 0 QNativeSocketEnginePrivate::nativeClose()
PUBLIC 88050 0 QNativeSocketEnginePrivate::nativeConnect(QHostAddress const &,unsigned short)
PUBLIC 882a0 0 QNativeSocketEnginePrivate::nativeHasPendingDatagrams()
PUBLIC 883b0 0 QNativeSocketEnginePrivate::nativeJoinMulticastGroup(QHostAddress const &,QNetworkInterface const &)
PUBLIC 883d0 0 QNativeSocketEnginePrivate::nativeLeaveMulticastGroup(QHostAddress const &,QNetworkInterface const &)
PUBLIC 883f0 0 QNativeSocketEnginePrivate::nativeListen(int)
PUBLIC 88430 0 QNativeSocketEnginePrivate::nativeMulticastInterface()
PUBLIC 88600 0 QNativeSocketEnginePrivate::nativePendingDatagramSize()
PUBLIC 886d0 0 QNativeSocketEnginePrivate::nativeRead(char *,__int64)
PUBLIC 88790 0 QNativeSocketEnginePrivate::nativeReceiveDatagram(char *,__int64,QHostAddress *,unsigned short *)
PUBLIC 888b0 0 QNativeSocketEnginePrivate::nativeSelect(int,bool,bool,bool *,bool *)
PUBLIC 88a60 0 QNativeSocketEnginePrivate::nativeSelect(int,bool)
PUBLIC 88b90 0 QNativeSocketEnginePrivate::nativeSendDatagram(char const *,__int64,QHostAddress const &,unsigned short)
PUBLIC 88c90 0 QNativeSocketEnginePrivate::nativeSetMulticastInterface(QNetworkInterface const &)
PUBLIC 88e20 0 QNativeSocketEnginePrivate::nativeWrite(char const *,__int64)
PUBLIC 88f50 0 QNativeSocketEnginePrivate::option(QAbstractSocketEngine::SocketOption)
PUBLIC 89240 0 QNativeSocketEnginePrivate::setOption(QAbstractSocketEngine::SocketOption,int)
PUBLIC 89380 0 QNativeSocketEnginePrivate::setPortAndAddress(sockaddr_in *,qt_sockaddr_in6 *,unsigned short,QHostAddress const &,sockaddr * *,int *)
PUBLIC 89510 0 QUdpSocket::metaObject()
PUBLIC 89530 0 QTcpSocket::qt_metacall(QMetaObject::Call,int,void * *)
PUBLIC 89540 0 QUdpSocket::qt_metacast(char const *)
PUBLIC 895a0 0 QHttpNetworkReply::qt_static_metacall(QObject *,QMetaObject::Call,int,void * *)
PUBLIC 898d0 0 QHttpNetworkReply::authenticationRequired(QHttpNetworkRequest const &,QAuthenticator *)
PUBLIC 89930 0 QHttpNetworkReply::cacheCredentials(QHttpNetworkRequest const &,QAuthenticator *)
PUBLIC 89990 0 QHttpNetworkReply::dataReadProgress(__int64,__int64)
PUBLIC 899e0 0 QHttpNetworkReply::dataSendProgress(__int64,__int64)
PUBLIC 89a30 0 QHttpNetworkReply::encrypted()
PUBLIC 89a50 0 QHttpNetworkReply::finished()
PUBLIC 89a70 0 QHttpNetworkReply::finishedWithError(QNetworkReply::NetworkError,QString const &)
PUBLIC 89ac0 0 QHttpNetworkReply::headerChanged()
PUBLIC 89ae0 0 QHttpNetworkReply::metaObject()
PUBLIC 89b00 0 QHttpNetworkReply::proxyAuthenticationRequired(QNetworkProxy const &,QAuthenticator *)
PUBLIC 89b60 0 QHttpNetworkReply::qt_metacall(QMetaObject::Call,int,void * *)
PUBLIC 89bb0 0 QHttpNetworkReply::qt_metacast(char const *)
PUBLIC 89c50 0 QHttpNetworkReply::readyRead()
PUBLIC 89c70 0 QHttpNetworkReply::sslErrors(QList<QSslError> const &)
PUBLIC 89ca0 0 QAbstractProtocolHandler::QAbstractProtocolHandler(QHttpNetworkConnectionChannel *)
PUBLIC 89cf0 0 QAbstractProtocolHandler::~QAbstractProtocolHandler()
PUBLIC 89d00 0 QAbstractProtocolHandler::`vector deleting destructor'(unsigned int)
PUBLIC 89d20 0 QAbstractProtocolHandler::setReply(QHttpNetworkReply *)
PUBLIC 89d30 0 QHttpNetworkConnectionChannel::qt_static_metacall(QObject *,QMetaObject::Call,int,void * *)
PUBLIC 89ea0 0 QHttpNetworkConnectionChannel::QHttpNetworkConnectionChannel()
PUBLIC 89fb0 0 QHttpNetworkConnectionChannel::_q_connected()
PUBLIC 8a340 0 QHttpNetworkConnectionChannel::_q_disconnected()
PUBLIC 8a470 0 QHttpNetworkConnectionChannel::_q_encrypted()
PUBLIC 8a710 0 QHttpNetworkConnectionChannel::_q_error(QAbstractSocket::SocketError)
PUBLIC 8abc0 0 QHttpNetworkConnectionChannel::_q_proxyAuthenticationRequired(QNetworkProxy const &,QAuthenticator *)
PUBLIC 8ac60 0 QHttpNetworkConnectionChannel::_q_sslErrors(QList<QSslError> const &)
PUBLIC 8ada0 0 QHttpNetworkConnectionChannel::allDone()
PUBLIC 8b070 0 QHttpNetworkConnectionChannel::close()
PUBLIC 8b0a0 0 QHttpNetworkConnectionChannel::closeAndResendCurrentRequest()
PUBLIC 8b160 0 QHttpNetworkConnectionChannel::detectPipeliningSupport()
PUBLIC 8b340 0 QHttpNetworkConnectionChannel::emitFinishedWithError(QNetworkReply::NetworkError,char const *)
PUBLIC 8b490 0 QHttpNetworkConnectionChannel::ensureConnection()
PUBLIC 8b920 0 QHttpNetworkConnectionChannel::handleStatus()
PUBLIC 8bb70 0 QHttpNetworkConnectionChannel::handleUnexpectedEOF()
PUBLIC 8bd50 0 QHttpNetworkConnectionChannel::ignoreSslErrors(QList<QSslError> const &)
PUBLIC 8bda0 0 QHttpNetworkConnectionChannel::ignoreSslErrors()
PUBLIC 8bdc0 0 QHttpNetworkConnectionChannel::init()
PUBLIC 8c130 0 QHttpNetworkConnectionChannel::isSocketBusy()
PUBLIC 8c140 0 QHttpNetworkConnectionChannel::isSocketReading()
PUBLIC 8c150 0 QHttpNetworkConnectionChannel::isSocketWaiting()
PUBLIC 8c160 0 QHttpNetworkConnectionChannel::metaObject()
PUBLIC 8c180 0 QHttpNetworkConnectionChannel::pipelineFlush()
PUBLIC 8c1b0 0 QHttpNetworkConnectionChannel::pipelineInto(QPair<QHttpNetworkRequest,QHttpNetworkReply *> &)
PUBLIC 8c2f0 0 QHttpNetworkConnectionChannel::qt_metacall(QMetaObject::Call,int,void * *)
PUBLIC 8c340 0 QHttpNetworkConnectionChannel::qt_metacast(char const *)
PUBLIC 8c3a0 0 QHttpNetworkConnectionChannel::requeueCurrentlyPipelinedRequests()
PUBLIC 8c4f0 0 QHttpNetworkConnectionChannel::requeueSpdyRequests()
PUBLIC 8c620 0 QScopedPointer<QAbstractProtocolHandler,QScopedPointerDeleter<QAbstractProtocolHandler> >::reset(QAbstractProtocolHandler *)
PUBLIC 8c650 0 QHttpNetworkConnectionChannel::resetUploadData()
PUBLIC 8c6c0 0 QHttpNetworkConnectionChannel::sendRequest()
PUBLIC 8c6d0 0 QHttpNetworkConnectionChannel::setConnection(QHttpNetworkConnection *)
PUBLIC 8c6e0 0 QHttpNetworkConnectionChannel::setProxy(QNetworkProxy const &)
PUBLIC 8c710 0 QHttpNetworkConnectionChannel::setSslConfiguration(QSslConfiguration const &)
PUBLIC 8c740 0 QList<QPair<QHttpNetworkRequest,QHttpNetworkReply *> >::takeFirst()
PUBLIC 8c7c0 0 QHttpProtocolHandler::QHttpProtocolHandler(QHttpNetworkConnectionChannel *)
PUBLIC 8c7e0 0 QHttpProtocolHandler::`vector deleting destructor'(unsigned int)
PUBLIC 8c800 0 QHttpProtocolHandler::_q_readyRead()
PUBLIC 8c890 0 QHttpProtocolHandler::_q_receiveReply()
PUBLIC 8cc30 0 QHttpProtocolHandler::sendRequest()
PUBLIC 8d360 0 QConcatenable<QStringBuilder<QByteArray,QByteArray> >::appendTo<char>(QStringBuilder<QByteArray,QByteArray> const &,char * &)
PUBLIC 8d3e0 0 QtStringBuilder::appendToByteArray<QByteArray,QByteArray>(QByteArray &,QStringBuilder<QByteArray,QByteArray> const &,char)
PUBLIC 8d470 0 QSpdyProtocolHandler::QSpdyProtocolHandler(QHttpNetworkConnectionChannel *)
PUBLIC 8d540 0 QSpdyProtocolHandler::~QSpdyProtocolHandler()
PUBLIC 8d5f9 0 [thunk]:QSpdyProtocolHandler::`vector deleting destructor'`adjustor{8}' (unsigned int)
PUBLIC 8d610 0 QSpdyProtocolHandler::`vector deleting destructor'(unsigned int)
PUBLIC 8d630 0 QSpdyProtocolHandler::_q_receiveReply()
PUBLIC 8d750 0 QSpdyProtocolHandler::_q_replyDestroyed(QObject *)
PUBLIC 8d810 0 QSpdyProtocolHandler::_q_uploadDataReadyRead()
PUBLIC 8d860 0 QSpdyProtocolHandler::composeHeader(QHttpNetworkRequest const &)
PUBLIC 8e120 0 QHash<unsigned int,QPair<QHttpNetworkRequest,QHttpNetworkReply *> >::createNode(unsigned int,unsigned int const &,QPair<QHttpNetworkRequest,QHttpNetworkReply *> const &,QHashNode<unsigned int,QPair<QHttpNetworkRequest,QHttpNetworkReply *> > * *)
PUBLIC 8e190 0 QHash<unsigned int,QPair<QHttpNetworkRequest,QHttpNetworkReply *> >::deleteNode2(QHashData::Node *)
PUBLIC 8e1a0 0 QHash<unsigned int,QPair<QHttpNetworkRequest,QHttpNetworkReply *> >::detach()
PUBLIC 8e200 0 QHash<unsigned int,QPair<QHttpNetworkRequest,QHttpNetworkReply *> >::duplicateNode(QHashData::Node *,void *)
PUBLIC 8e240 0 QMap<int,QPair<QHttpNetworkRequest,QHttpNetworkReply *> >::erase(QMap<int,QPair<QHttpNetworkRequest,QHttpNetworkReply *> >::iterator)
PUBLIC 8e300 0 QMap<int,QPair<QHttpNetworkRequest,QHttpNetworkReply *> >::find(int const &)
PUBLIC 8e360 0 QSpdyProtocolHandler::handleControlFrame(QByteArray const &)
PUBLIC 8e5c0 0 QSpdyProtocolHandler::handleDataFrame(QByteArray const &)
PUBLIC 8ea40 0 QSpdyProtocolHandler::handleGOAWAY(char,unsigned int,QByteArray const &)
PUBLIC 8eb80 0 QSpdyProtocolHandler::handlePING(char,unsigned int,QByteArray const &)
PUBLIC 8ec30 0 QSpdyProtocolHandler::handleRST_STREAM(char,unsigned int,QByteArray const &)
PUBLIC 8ee00 0 QSpdyProtocolHandler::handleSETTINGS(char,unsigned int,QByteArray const &)
PUBLIC 8ef50 0 QSpdyProtocolHandler::handleSYN_STREAM(char,unsigned int,QByteArray const &)
PUBLIC 8f000 0 QSpdyProtocolHandler::handleWINDOW_UPDATE(char,unsigned int,QByteArray const &)
PUBLIC 8f270 0 QHash<unsigned int,QPair<QHttpNetworkRequest,QHttpNetworkReply *> >::insert(unsigned int const &,QPair<QHttpNetworkRequest,QHttpNetworkReply *> const &)
PUBLIC 8f350 0 QMap<int,QPair<QHttpNetworkRequest,QHttpNetworkReply *> >::keys()
PUBLIC 8f400 0 QSpdyProtocolHandler::parseHttpHeaders(char,QByteArray const &)
PUBLIC 8faf0 0 QList<QByteArray>::prepend(QByteArray const &)
PUBLIC 8fb60 0 QSpdyProtocolHandler::readNextChunk(__int64,char *)
PUBLIC 8fc70 0 QHash<unsigned int,QPair<QHttpNetworkRequest,QHttpNetworkReply *> >::remove(unsigned int const &)
PUBLIC 8fd40 0 QMultiMap<int,QPair<QHttpNetworkRequest,QHttpNetworkReply *> >::remove(int const &,QPair<QHttpNetworkRequest,QHttpNetworkReply *> const &)
PUBLIC 8fde0 0 QSpdyProtocolHandler::replyFinished(QHttpNetworkReply *,int)
PUBLIC 8fe80 0 QSpdyProtocolHandler::replyFinishedWithError(QHttpNetworkReply *,int,QNetworkReply::NetworkError,char const *)
PUBLIC 8ff70 0 QSpdyProtocolHandler::sendControlFrame(QSpdyProtocolHandler::FrameType,QFlags<QSpdyProtocolHandler::ControlFrameFlag>,char const *,unsigned int)
PUBLIC 90050 0 QSpdyProtocolHandler::sendDataFrame(int,QFlags<QSpdyProtocolHandler::DataFrameFlag>,unsigned int,char const *)
PUBLIC 901d0 0 QSpdyProtocolHandler::sendRST_STREAM(int,QSpdyProtocolHandler::RST_STREAM_STATUS_CODE)
PUBLIC 90260 0 QSpdyProtocolHandler::sendRequest()
PUBLIC 90590 0 QSpdyProtocolHandler::sendSYN_STREAM(QPair<QHttpNetworkRequest,QHttpNetworkReply *>,int,int)
PUBLIC 90820 0 QSpdyProtocolHandler::sendWINDOW_UPDATE(int,unsigned int)
PUBLIC 908b0 0 QSpdyProtocolHandler::uncompressHeader(QByteArray const &,QByteArray *)
PUBLIC 90a20 0 QSpdyProtocolHandler::uploadData(int)
PUBLIC 90d20 0 QHash<unsigned int,QPair<QHttpNetworkRequest,QHttpNetworkReply *> >::value(unsigned int const &)
PUBLIC 90dc0 0 QSpdyProtocolHandler::qt_static_metacall(QObject *,QMetaObject::Call,int,void * *)
PUBLIC 90e10 0 QSpdyProtocolHandler::metaObject()
PUBLIC 90e30 0 QSpdyProtocolHandler::qt_metacall(QMetaObject::Call,int,void * *)
PUBLIC 90e90 0 QSpdyProtocolHandler::qt_metacast(char const *)
PUBLIC 90f30 0 QArrayData::allocate(unsigned int,unsigned int,unsigned int,QFlags<QArrayData::AllocationOption>)
PUBLIC 91000 0 QArrayData::deallocate(QArrayData *,unsigned int,unsigned int)
PUBLIC 91020 0 QtPrivate::QContainerImplHelper::mid(int,int *,int *)
PUBLIC 91090 0 std::_Lower_bound<UCS2Pair const *,unsigned short,int,std::less<void> >(UCS2Pair const *,UCS2Pair const *,unsigned short const &,std::less<void>,int *)
PUBLIC 910e0 0 std::_Lower_bound<UCS2SurrogatePair const *,unsigned int,int,std::less<void> >(UCS2SurrogatePair const *,UCS2SurrogatePair const *,unsigned int const &,std::less<void>,int *)
PUBLIC 91140 0 `anonymous namespace'::UnrollTailLoop<3>::exec<int,<lambda_3b69afa15b2cca22b768e69c9932d5cb>,<lambda_7fe3a25e8df180e5536a9f5f2085c5a1> >(int,int,<lambda_3b69afa15b2cca22b768e69c9932d5cb>,<lambda_7fe3a25e8df180e5536a9f5f2085c5a1>,int)
PUBLIC 91190 0 `anonymous namespace'::UnrollTailLoop<4>::exec<int,<lambda_3b69afa15b2cca22b768e69c9932d5cb>,<lambda_7fe3a25e8df180e5536a9f5f2085c5a1> >(int,int,<lambda_3b69afa15b2cca22b768e69c9932d5cb>,<lambda_7fe3a25e8df180e5536a9f5f2085c5a1>,int)
PUBLIC 911f0 0 `anonymous namespace'::UnrollTailLoop<5>::exec<int,<lambda_3b69afa15b2cca22b768e69c9932d5cb>,<lambda_7fe3a25e8df180e5536a9f5f2085c5a1> >(int,int,<lambda_3b69afa15b2cca22b768e69c9932d5cb>,<lambda_7fe3a25e8df180e5536a9f5f2085c5a1>,int)
PUBLIC 91250 0 `anonymous namespace'::UnrollTailLoop<6>::exec<int,<lambda_3b69afa15b2cca22b768e69c9932d5cb>,<lambda_7fe3a25e8df180e5536a9f5f2085c5a1> >(int,int,<lambda_3b69afa15b2cca22b768e69c9932d5cb>,<lambda_7fe3a25e8df180e5536a9f5f2085c5a1>,int)
PUBLIC 912b0 0 `anonymous namespace'::UnrollTailLoop<1>::exec<int,<lambda_59e854fba85492c0bc60302019284d63>,<lambda_59e854fba85492c0bc60302019284d63> >(int,int,<lambda_59e854fba85492c0bc60302019284d63>,<lambda_59e854fba85492c0bc60302019284d63>,int)
PUBLIC 91300 0 `anonymous namespace'::UnrollTailLoop<2>::exec<int,<lambda_59e854fba85492c0bc60302019284d63>,<lambda_59e854fba85492c0bc60302019284d63> >(int,int,<lambda_59e854fba85492c0bc60302019284d63>,<lambda_59e854fba85492c0bc60302019284d63>,int)
PUBLIC 91370 0 `anonymous namespace'::UnrollTailLoop<3>::exec<int,<lambda_59e854fba85492c0bc60302019284d63>,<lambda_59e854fba85492c0bc60302019284d63> >(int,int,<lambda_59e854fba85492c0bc60302019284d63>,<lambda_59e854fba85492c0bc60302019284d63>,int)
PUBLIC 913e0 0 `anonymous namespace'::UnrollTailLoop<4>::exec<int,<lambda_59e854fba85492c0bc60302019284d63>,<lambda_59e854fba85492c0bc60302019284d63> >(int,int,<lambda_59e854fba85492c0bc60302019284d63>,<lambda_59e854fba85492c0bc60302019284d63>,int)
PUBLIC 91450 0 `anonymous namespace'::UnrollTailLoop<5>::exec<int,<lambda_59e854fba85492c0bc60302019284d63>,<lambda_59e854fba85492c0bc60302019284d63> >(int,int,<lambda_59e854fba85492c0bc60302019284d63>,<lambda_59e854fba85492c0bc60302019284d63>,int)
PUBLIC 914c0 0 `anonymous namespace'::UnrollTailLoop<3>::exec<int,<lambda_612ca84e3ec7b10bd1afee32aa74f7fe>,<lambda_bdcf5c73874d57aff15794cfb14695c4> >(int,int,<lambda_612ca84e3ec7b10bd1afee32aa74f7fe>,<lambda_bdcf5c73874d57aff15794cfb14695c4>,int)
PUBLIC 91510 0 `anonymous namespace'::UnrollTailLoop<5>::exec<int,<lambda_612ca84e3ec7b10bd1afee32aa74f7fe>,<lambda_bdcf5c73874d57aff15794cfb14695c4> >(int,int,<lambda_612ca84e3ec7b10bd1afee32aa74f7fe>,<lambda_bdcf5c73874d57aff15794cfb14695c4>,int)
PUBLIC 91580 0 `anonymous namespace'::UnrollTailLoop<7>::exec<int,<lambda_612ca84e3ec7b10bd1afee32aa74f7fe>,<lambda_bdcf5c73874d57aff15794cfb14695c4> >(int,int,<lambda_612ca84e3ec7b10bd1afee32aa74f7fe>,<lambda_bdcf5c73874d57aff15794cfb14695c4>,int)
PUBLIC 915f0 0 `anonymous namespace'::UnrollTailLoop<9>::exec<int,<lambda_612ca84e3ec7b10bd1afee32aa74f7fe>,<lambda_bdcf5c73874d57aff15794cfb14695c4> >(int,int,<lambda_612ca84e3ec7b10bd1afee32aa74f7fe>,<lambda_bdcf5c73874d57aff15794cfb14695c4>,int)
PUBLIC 91660 0 `anonymous namespace'::UnrollTailLoop<11>::exec<int,<lambda_612ca84e3ec7b10bd1afee32aa74f7fe>,<lambda_bdcf5c73874d57aff15794cfb14695c4> >(int,int,<lambda_612ca84e3ec7b10bd1afee32aa74f7fe>,<lambda_bdcf5c73874d57aff15794cfb14695c4>,int)
PUBLIC 916d0 0 `anonymous namespace'::UnrollTailLoop<13>::exec<int,<lambda_612ca84e3ec7b10bd1afee32aa74f7fe>,<lambda_bdcf5c73874d57aff15794cfb14695c4> >(int,int,<lambda_612ca84e3ec7b10bd1afee32aa74f7fe>,<lambda_bdcf5c73874d57aff15794cfb14695c4>,int)
PUBLIC 91740 0 `anonymous namespace'::UnrollTailLoop<2>::exec<int,<lambda_abb16998277e9dd3eabc868afcc2e6f8>,<lambda_abb16998277e9dd3eabc868afcc2e6f8> >(int,int,<lambda_abb16998277e9dd3eabc868afcc2e6f8>,<lambda_abb16998277e9dd3eabc868afcc2e6f8>,int)
PUBLIC 917c0 0 `anonymous namespace'::UnrollTailLoop<3>::exec<int,<lambda_abb16998277e9dd3eabc868afcc2e6f8>,<lambda_abb16998277e9dd3eabc868afcc2e6f8> >(int,int,<lambda_abb16998277e9dd3eabc868afcc2e6f8>,<lambda_abb16998277e9dd3eabc868afcc2e6f8>,int)
PUBLIC 91830 0 `anonymous namespace'::UnrollTailLoop<4>::exec<int,<lambda_abb16998277e9dd3eabc868afcc2e6f8>,<lambda_abb16998277e9dd3eabc868afcc2e6f8> >(int,int,<lambda_abb16998277e9dd3eabc868afcc2e6f8>,<lambda_abb16998277e9dd3eabc868afcc2e6f8>,int)
PUBLIC 918a0 0 `anonymous namespace'::UnrollTailLoop<5>::exec<int,<lambda_abb16998277e9dd3eabc868afcc2e6f8>,<lambda_abb16998277e9dd3eabc868afcc2e6f8> >(int,int,<lambda_abb16998277e9dd3eabc868afcc2e6f8>,<lambda_abb16998277e9dd3eabc868afcc2e6f8>,int)
PUBLIC 91910 0 `anonymous namespace'::UnrollTailLoop<6>::exec<int,<lambda_abb16998277e9dd3eabc868afcc2e6f8>,<lambda_abb16998277e9dd3eabc868afcc2e6f8> >(int,int,<lambda_abb16998277e9dd3eabc868afcc2e6f8>,<lambda_abb16998277e9dd3eabc868afcc2e6f8>,int)
PUBLIC 91980 0 `anonymous namespace'::UnrollTailLoop<7>::exec<int,<lambda_abb16998277e9dd3eabc868afcc2e6f8>,<lambda_abb16998277e9dd3eabc868afcc2e6f8> >(int,int,<lambda_abb16998277e9dd3eabc868afcc2e6f8>,<lambda_abb16998277e9dd3eabc868afcc2e6f8>,int)
PUBLIC 919f0 0 `anonymous namespace'::UnrollTailLoop<8>::exec<int,<lambda_abb16998277e9dd3eabc868afcc2e6f8>,<lambda_abb16998277e9dd3eabc868afcc2e6f8> >(int,int,<lambda_abb16998277e9dd3eabc868afcc2e6f8>,<lambda_abb16998277e9dd3eabc868afcc2e6f8>,int)
PUBLIC 91a60 0 `anonymous namespace'::UnrollTailLoop<9>::exec<int,<lambda_abb16998277e9dd3eabc868afcc2e6f8>,<lambda_abb16998277e9dd3eabc868afcc2e6f8> >(int,int,<lambda_abb16998277e9dd3eabc868afcc2e6f8>,<lambda_abb16998277e9dd3eabc868afcc2e6f8>,int)
PUBLIC 91ad0 0 `anonymous namespace'::UnrollTailLoop<10>::exec<int,<lambda_abb16998277e9dd3eabc868afcc2e6f8>,<lambda_abb16998277e9dd3eabc868afcc2e6f8> >(int,int,<lambda_abb16998277e9dd3eabc868afcc2e6f8>,<lambda_abb16998277e9dd3eabc868afcc2e6f8>,int)
PUBLIC 91b40 0 `anonymous namespace'::UnrollTailLoop<11>::exec<int,<lambda_abb16998277e9dd3eabc868afcc2e6f8>,<lambda_abb16998277e9dd3eabc868afcc2e6f8> >(int,int,<lambda_abb16998277e9dd3eabc868afcc2e6f8>,<lambda_abb16998277e9dd3eabc868afcc2e6f8>,int)
PUBLIC 91bb0 0 `anonymous namespace'::UnrollTailLoop<12>::exec<int,<lambda_abb16998277e9dd3eabc868afcc2e6f8>,<lambda_abb16998277e9dd3eabc868afcc2e6f8> >(int,int,<lambda_abb16998277e9dd3eabc868afcc2e6f8>,<lambda_abb16998277e9dd3eabc868afcc2e6f8>,int)
PUBLIC 91c20 0 `anonymous namespace'::UnrollTailLoop<13>::exec<int,<lambda_abb16998277e9dd3eabc868afcc2e6f8>,<lambda_abb16998277e9dd3eabc868afcc2e6f8> >(int,int,<lambda_abb16998277e9dd3eabc868afcc2e6f8>,<lambda_abb16998277e9dd3eabc868afcc2e6f8>,int)
PUBLIC 91c90 0 `anonymous namespace'::UnrollTailLoop<2>::exec<int,<lambda_e5729918b468e51f32d5c145b5d6cd82>,<lambda_9f59965aaf4c9c2ba8f2fd8083239f6d> >(int,int,<lambda_e5729918b468e51f32d5c145b5d6cd82>,<lambda_9f59965aaf4c9c2ba8f2fd8083239f6d>,int)
PUBLIC 91cf0 0 `anonymous namespace'::UnrollTailLoop<3>::exec<int,<lambda_e5729918b468e51f32d5c145b5d6cd82>,<lambda_9f59965aaf4c9c2ba8f2fd8083239f6d> >(int,int,<lambda_e5729918b468e51f32d5c145b5d6cd82>,<lambda_9f59965aaf4c9c2ba8f2fd8083239f6d>,int)
PUBLIC 91d50 0 `anonymous namespace'::UnrollTailLoop<4>::exec<int,<lambda_e5729918b468e51f32d5c145b5d6cd82>,<lambda_9f59965aaf4c9c2ba8f2fd8083239f6d> >(int,int,<lambda_e5729918b468e51f32d5c145b5d6cd82>,<lambda_9f59965aaf4c9c2ba8f2fd8083239f6d>,int)
PUBLIC 91db0 0 `anonymous namespace'::UnrollTailLoop<5>::exec<int,<lambda_e5729918b468e51f32d5c145b5d6cd82>,<lambda_9f59965aaf4c9c2ba8f2fd8083239f6d> >(int,int,<lambda_e5729918b468e51f32d5c145b5d6cd82>,<lambda_9f59965aaf4c9c2ba8f2fd8083239f6d>,int)
PUBLIC 91e10 0 `anonymous namespace'::UnrollTailLoop<6>::exec<int,<lambda_e5729918b468e51f32d5c145b5d6cd82>,<lambda_9f59965aaf4c9c2ba8f2fd8083239f6d> >(int,int,<lambda_e5729918b468e51f32d5c145b5d6cd82>,<lambda_9f59965aaf4c9c2ba8f2fd8083239f6d>,int)
PUBLIC 91e70 0 `anonymous namespace'::UnrollTailLoop<7>::exec<int,<lambda_e5729918b468e51f32d5c145b5d6cd82>,<lambda_9f59965aaf4c9c2ba8f2fd8083239f6d> >(int,int,<lambda_e5729918b468e51f32d5c145b5d6cd82>,<lambda_9f59965aaf4c9c2ba8f2fd8083239f6d>,int)
PUBLIC 91ed0 0 `anonymous namespace'::UnrollTailLoop<8>::exec<int,<lambda_e5729918b468e51f32d5c145b5d6cd82>,<lambda_9f59965aaf4c9c2ba8f2fd8083239f6d> >(int,int,<lambda_e5729918b468e51f32d5c145b5d6cd82>,<lambda_9f59965aaf4c9c2ba8f2fd8083239f6d>,int)
PUBLIC 91f30 0 `anonymous namespace'::UnrollTailLoop<9>::exec<int,<lambda_e5729918b468e51f32d5c145b5d6cd82>,<lambda_9f59965aaf4c9c2ba8f2fd8083239f6d> >(int,int,<lambda_e5729918b468e51f32d5c145b5d6cd82>,<lambda_9f59965aaf4c9c2ba8f2fd8083239f6d>,int)
PUBLIC 91f90 0 `anonymous namespace'::UnrollTailLoop<10>::exec<int,<lambda_e5729918b468e51f32d5c145b5d6cd82>,<lambda_9f59965aaf4c9c2ba8f2fd8083239f6d> >(int,int,<lambda_e5729918b468e51f32d5c145b5d6cd82>,<lambda_9f59965aaf4c9c2ba8f2fd8083239f6d>,int)
PUBLIC 91ff0 0 `anonymous namespace'::UnrollTailLoop<11>::exec<int,<lambda_e5729918b468e51f32d5c145b5d6cd82>,<lambda_9f59965aaf4c9c2ba8f2fd8083239f6d> >(int,int,<lambda_e5729918b468e51f32d5c145b5d6cd82>,<lambda_9f59965aaf4c9c2ba8f2fd8083239f6d>,int)
PUBLIC 92050 0 `anonymous namespace'::UnrollTailLoop<12>::exec<int,<lambda_e5729918b468e51f32d5c145b5d6cd82>,<lambda_9f59965aaf4c9c2ba8f2fd8083239f6d> >(int,int,<lambda_e5729918b468e51f32d5c145b5d6cd82>,<lambda_9f59965aaf4c9c2ba8f2fd8083239f6d>,int)
PUBLIC 920b0 0 `anonymous namespace'::UnrollTailLoop<13>::exec<int,<lambda_e5729918b468e51f32d5c145b5d6cd82>,<lambda_9f59965aaf4c9c2ba8f2fd8083239f6d> >(int,int,<lambda_e5729918b468e51f32d5c145b5d6cd82>,<lambda_9f59965aaf4c9c2ba8f2fd8083239f6d>,int)
PUBLIC 924e0 0 QVarLengthArray<unsigned short,256>::QVarLengthArray<unsigned short,256>(int)
PUBLIC 92530 0 QVector<QPointF>::QVector<QPointF>(QVector<QPointF> const &)
PUBLIC 925f0 0 QString::QString(int,QChar)
PUBLIC 92680 0 QString::QString(int,Qt::Initialization)
PUBLIC 926c0 0 QString::QString(QChar const *,int)
PUBLIC 92770 0 QString::QString(QChar)
PUBLIC 927c0 0 QStringMatcher::QStringMatcher(QChar const *,int,Qt::CaseSensitivity)
PUBLIC 92810 0 QMap<int,int>::~QMap<int,int>()
PUBLIC 92850 0 QVector<QPointF>::~QVector<QPointF>()
PUBLIC 92880 0 QStringMatcher::~QStringMatcher()
PUBLIC 928b0 0 QString::operator=(QString const &)
PUBLIC 92910 0 QString::operator=(QChar)
PUBLIC 92980 0 operator<<(QDataStream &,QString const &)
PUBLIC 92ae0 0 QVector<QPointF>::operator==(QVector<QPointF> const &)
PUBLIC 92b80 0 operator==(QString const &,QString const &)
PUBLIC 92bc0 0 operator==(QString const &,QStringRef const &)
PUBLIC 92c20 0 operator==(QStringRef const &,QStringRef const &)
PUBLIC 92ca0 0 operator==(QLatin1String,QStringRef const &)
PUBLIC 92d00 0 QString::operator==(QLatin1String)
PUBLIC 92d80 0 QMap<int,int>::operator[](int const &)
PUBLIC 92e00 0 operator<(QString const &,QString const &)
PUBLIC 92e70 0 QString::operator>(QLatin1String)
PUBLIC 92ee0 0 QString::append(QString const &)
PUBLIC 92f90 0 QString::append(QStringRef const &)
PUBLIC 93040 0 QString::append(QChar)
PUBLIC 930b0 0 QString::append(QLatin1String)
PUBLIC 93120 0 QAbstractConcatenable::appendLatin1To(char const *,int,QChar *)
PUBLIC 93140 0 QStringRef::appendTo(QString *)
PUBLIC 931b0 0 QString::arg(QString const &,int,QChar)
PUBLIC 93380 0 QString::arg(double,int,char,int,QChar)
PUBLIC 936f0 0 QString::arg(QChar,int,QChar)
PUBLIC 937a0 0 QString::arg(__int64,int,int,QChar)
PUBLIC 93ae0 0 QString::arg(unsigned __int64,int,int,QChar)
PUBLIC 94650 0 QChar::category(unsigned int)
PUBLIC 94670 0 QString::chop(int)
PUBLIC 94690 0 QString::compare(QString const &,Qt::CaseSensitivity)
PUBLIC 94730 0 QString::compare(QLatin1String,Qt::CaseSensitivity)
PUBLIC 947a0 0 QString::compare_helper(QChar const *,int,QChar const *,int,Qt::CaseSensitivity)
PUBLIC 94820 0 QString::compare_helper(QChar const *,int,char const *,int,Qt::CaseSensitivity)
PUBLIC 94ad0 0 QMapNode<int,int>::copy(QMapData<int,int> *)
PUBLIC 94b50 0 QString::count(QChar,Qt::CaseSensitivity)
PUBLIC 94b70 0 QMapData<int,int>::createNode(int const &,int const &,QMapNode<int,int> *,bool)
PUBLIC 94eb0 0 QVector<QPointF>::defaultConstruct(QPointF *,QPointF *)
PUBLIC 94ee0 0 QMap<int,int>::detach_helper()
PUBLIC 94f50 0 QSharedDataPointer<QLocalePrivate>::detach_helper()
PUBLIC 94fb0 0 QChar::digitValue(unsigned int)
PUBLIC 94fd0 0 QVector<QPointF>::end()
PUBLIC 95040 0 QString::endsWith(QString const &,Qt::CaseSensitivity)
PUBLIC 95090 0 QString::endsWith(QChar,Qt::CaseSensitivity)
PUBLIC 950f0 0 QString::endsWith(QLatin1String,Qt::CaseSensitivity)
PUBLIC 95120 0 QStringRef::endsWith(QChar,Qt::CaseSensitivity)
PUBLIC 951a0 0 QStringRef::endsWith(QLatin1String,Qt::CaseSensitivity)
PUBLIC 951e0 0 QString::expand(int)
PUBLIC 95250 0 QString::fill(QChar,int)
PUBLIC 95680 0 QString::fromAscii_helper(char const *,int)
PUBLIC 956f0 0 QString::fromLatin1_helper(char const *,int)
PUBLIC 95780 0 QString::fromLocal8Bit_helper(char const *,int)
PUBLIC 95820 0 QString::fromRawData(QChar const *,int)
PUBLIC 958a0 0 QString::fromUcs4(unsigned int const *,int)
PUBLIC 95900 0 QTextCodec::fromUnicode(QChar const *,int,QTextCodec::ConverterState *)
PUBLIC 95930 0 QString::fromUtf16(unsigned short const *,int)
PUBLIC 95990 0 QString::fromUtf8_helper(char const *,int)
PUBLIC 95a40 0 QStringMatcher::indexIn(QChar const *,int,int)
PUBLIC 95a80 0 QString::indexOf(QRegExp &,int)
PUBLIC 95aa0 0 QString::indexOf(QString const &,int,Qt::CaseSensitivity)
PUBLIC 95ad0 0 QString::indexOf(QChar,int,Qt::CaseSensitivity)
PUBLIC 95b00 0 QString::indexOf(QLatin1String,int,Qt::CaseSensitivity)
PUBLIC 95b30 0 QStringRef::indexOf(QChar,int,Qt::CaseSensitivity)
PUBLIC 95b70 0 QMap<int,int>::insert(int const &,int const &)
PUBLIC 95c00 0 QString::insert(int,QChar const *,int)
PUBLIC 95cf0 0 QString::insert(int,QChar)
PUBLIC 95d70 0 QString::insert(int,QLatin1String)
PUBLIC 95e00 0 QChar::isLetterOrNumber_helper(unsigned int)
PUBLIC 95e30 0 QChar::isLetter_helper(unsigned int)
PUBLIC 95e60 0 QChar::isMark(unsigned int)
PUBLIC 95e90 0 QChar::isSpace_helper(unsigned int)
PUBLIC 95ec0 0 QString::lastIndexOf(QChar,int,Qt::CaseSensitivity)
PUBLIC 95ef0 0 QString::left(int)
PUBLIC 95f40 0 QStringRef::left(int)
PUBLIC 95f80 0 QString::leftJustified(int,QChar,bool)
PUBLIC 96090 0 QString::leftRef(int)
PUBLIC 96250 0 QString::mid(int,int)
PUBLIC 96300 0 QStringRef::mid(int,int)
PUBLIC 963a0 0 QString::midRef(int,int)
PUBLIC 96440 0 QString::multiArg(int,QString const * *)
PUBLIC 96950 0 QString::number(int,int)
PUBLIC 96a10 0 QString::number(unsigned int,int)
PUBLIC 96ac0 0 QString::number(double,char,int)
PUBLIC 96b40 0 QString::number(__int64,int)
PUBLIC 96c00 0 QString::number(unsigned __int64,int)
PUBLIC 96cc0 0 qFindString(QChar const *,int,int,QChar const *,int,Qt::CaseSensitivity)
PUBLIC 96ef0 0 qFindStringBoyerMoore(QChar const *,int,int,QChar const *,int,Qt::CaseSensitivity)
PUBLIC 97010 0 qToLower(char)
PUBLIC 97260 0 qt_from_latin1(unsigned short *,char const *,unsigned int)
PUBLIC 975b0 0 qt_string_normalize(QString *,QString::NormalizationForm,QChar::UnicodeVersion,int)
PUBLIC 978f0 0 QVector<QPointF>::reallocData(int,int,QFlags<QArrayData::AllocationOption>)
PUBLIC 97ac0 0 QString::reallocData(unsigned int,bool)
PUBLIC 97bd0 0 QString::remove(int,int)
PUBLIC 97c70 0 QString::remove(QChar,Qt::CaseSensitivity)
PUBLIC 97e40 0 QString::replace(int,int,QString const &)
PUBLIC 97f00 0 QString::replace(int,int,QChar const *,int)
PUBLIC 97f40 0 QString::replace(QChar const *,int,QChar const *,int,Qt::CaseSensitivity)
PUBLIC 98110 0 QString::replace(QChar,QChar,Qt::CaseSensitivity)
PUBLIC 98260 0 QString::replace(QChar,QString const &,Qt::CaseSensitivity)
PUBLIC 98470 0 QString::replace(QChar,QLatin1String,Qt::CaseSensitivity)
PUBLIC 98870 0 QString::replace_helper(unsigned int *,int,int,QChar const *,int)
PUBLIC 98b60 0 QString::resize(int)
PUBLIC 98c40 0 QString::right(int)
PUBLIC 98c90 0 QStringRef::right(int)
PUBLIC 98cd0 0 QString::rightJustified(int,QChar,bool)
PUBLIC 98de0 0 QString::setNum(double,char,int)
PUBLIC 98e90 0 QString::setUtf16(unsigned short const *,int)
PUBLIC 98ed0 0 QString::simplified()
PUBLIC 992a0 0 QString::split(QString const &,QString::SplitBehavior,Qt::CaseSensitivity)
PUBLIC 992e0 0 QString::split(QChar,QString::SplitBehavior,Qt::CaseSensitivity)
PUBLIC 99320 0 QString::sprintf(char const *,...)
PUBLIC 99340 0 QString::startsWith(QString const &,Qt::CaseSensitivity)
PUBLIC 99390 0 QString::startsWith(QChar,Qt::CaseSensitivity)
PUBLIC 993f0 0 QString::startsWith(QLatin1String,Qt::CaseSensitivity)
PUBLIC 99420 0 QStringRef::startsWith(QChar,Qt::CaseSensitivity)
PUBLIC 994a0 0 QChar::toCaseFolded()
PUBLIC 994f0 0 QString::toDouble(bool *)
PUBLIC 99510 0 QString::toFloat(bool *)
PUBLIC 995c0 0 QString::toInt(bool *,int)
PUBLIC 99620 0 QString::toLatin1_helper(QString const &)
PUBLIC 99660 0 QString::toLatin1_helper(QChar const *,int)
PUBLIC 996a0 0 QString::toLocal8Bit_helper(QChar const *,int)
PUBLIC 996f0 0 QStringRef::toInt(bool *,int)
PUBLIC 99770 0 QString::toLongLong(bool *,int)
PUBLIC 997a0 0 QChar::toLower(unsigned int)
PUBLIC 997e0 0 QString::toLower()
PUBLIC 99b00 0 QStringRef::toString()
PUBLIC 99b80 0 QString::toUInt(bool *,int)
PUBLIC 99bd0 0 QString::toULongLong(bool *,int)
PUBLIC 99c00 0 QString::toUShort(bool *,int)
PUBLIC 99c60 0 QString::toUcs4_helper(unsigned short const *,int,unsigned int *)
PUBLIC 99ce0 0 QTextCodec::toUnicode(char const *,int,QTextCodec::ConverterState *)
PUBLIC 99d10 0 QChar::toUpper(unsigned int)
PUBLIC 99d50 0 QString::toUpper()
PUBLIC 9a070 0 QString::toUtf8_helper(QString const &)
PUBLIC 9a0b0 0 QString::trimmed()
PUBLIC 9a250 0 QString::truncate(int)
PUBLIC 9a6d0 0 QChar::unicodeVersion(unsigned int)
PUBLIC 9a6f0 0 QString::utf16()
PUBLIC 9a710 0 QString::vsprintf(char const *,char *)
PUBLIC 9b1e0 0 QFile::QFile(QString const &)
PUBLIC 9b290 0 QFile::QFile()
PUBLIC 9b320 0 QFile::~QFile()
PUBLIC 9b330 0 QFile::`vector deleting destructor'(unsigned int)
PUBLIC 9b360 0 QFilePrivate::`vector deleting destructor'(unsigned int)
PUBLIC 9b3c0 0 QFilePrivate::engine()
PUBLIC 9b3f0 0 QFile::exists()
PUBLIC 9b420 0 QFile::exists(QString const &)
PUBLIC 9b430 0 QFile::fileName()
PUBLIC 9b460 0 QFile::open(QFlags<QIODevice::OpenModeFlag>)
PUBLIC 9b670 0 QFile::permissions()
PUBLIC 9b680 0 QFile::resize(__int64)
PUBLIC 9b690 0 QFile::setFileName(QString const &)
PUBLIC 9b7d0 0 QFile::setPermissions(QFlags<QFileDevice::Permission>)
PUBLIC 9b7e0 0 QFile::size()
PUBLIC 9b7f0 0 QStringBuilder<QStringBuilder<QString,QLatin1Char>,QString>::convertTo<QString>()
PUBLIC 9b8c0 0 QStringBuilder<QString,QLatin1Char>::convertTo<QString>()
PUBLIC 9b960 0 QVarLengthArray<QChar,256>::QVarLengthArray<QChar,256>(int)
PUBLIC 9b9d0 0 QDir::QDir(QString const &)
PUBLIC 9bad0 0 QDirPrivate::QDirPrivate(QString const &,QStringList const &,QFlags<QDir::SortFlag>,QFlags<QDir::Filter>)
PUBLIC 9bd70 0 QWriteLocker::QWriteLocker(QReadWriteLock *)
PUBLIC 9bda0 0 QList<QFileInfo>::~QList<QFileInfo>()
PUBLIC 9be00 0 QSharedDataPointer<QDirPrivate>::~QSharedDataPointer<QDirPrivate>()
PUBLIC 9be30 0 QDirPrivate::~QDirPrivate()
PUBLIC 9bf40 0 QReadLocker::~QReadLocker()
PUBLIC 9bf60 0 QFileSystemEntry::operator=(QFileSystemEntry const &)
PUBLIC 9bfa0 0 QList<QString>::operator==(QList<QString> const &)
PUBLIC 9c010 0 QStringBuilder<QStringBuilder<QString,QLatin1Char>,QString>::operator QString()
PUBLIC 9c030 0 QStringBuilder<QString,QLatin1Char>::operator QString()
PUBLIC 9c050 0 QDir::absoluteFilePath(QString const &)
PUBLIC 9c290 0 QDir::canonicalPath()
PUBLIC 9c330 0 QDir::cleanPath(QString const &)
PUBLIC 9c4c0 0 QDirPrivate::clearFileLists()
PUBLIC 9c530 0 QDir::currentPath()
PUBLIC 9c5f0 0 QMapNode<QString,QStringList>::destroySubTree()
PUBLIC 9c680 0 QDir::exists()
PUBLIC 9c690 0 QDirPrivate::exists()
PUBLIC 9c700 0 QDir::filePath(QString const &)
PUBLIC 9c860 0 QDir::fromNativeSeparators(QString const &)
PUBLIC 9c9b0 0 QDir::homePath()
PUBLIC 9c9d0 0 QChar::isLetter()
PUBLIC 9ca00 0 QDir::mkpath(QString const &)
PUBLIC 9cb10 0 QDir::path()
PUBLIC 9cb30 0 qt_normalizePathSegments(QString const &,bool)
PUBLIC 9cec0 0 QDirPrivate::resolveAbsoluteEntry()
PUBLIC 9d0a0 0 QDir::searchPaths(QString const &)
PUBLIC 9d1a0 0 QDir::separator()
PUBLIC 9d1b0 0 QDirPrivate::setPath(QString const &)
PUBLIC 9d410 0 QDir::tempPath()
PUBLIC 9d430 0 QDir::toNativeSeparators(QString const &)
PUBLIC 9d580 0 QMap<QString,QStringList>::value(QString const &,QStringList const &)
PUBLIC 9d5f0 0 QLibraryPrivate::fromRawMetaData(char const *)
PUBLIC 9d690 0 `anonymous namespace'::Q_QGS_staticPluginList::innerFunction()
PUBLIC 9d750 0 QStaticPlugin::metaData()
PUBLIC 9d7d0 0 QList<void (*)(void)>::node_copy(QList<void (*)(void)>::Node *,QList<void (*)(void)>::Node *,QList<void (*)(void)>::Node *)
PUBLIC 9d800 0 qRegisterStaticPluginFunction(QStaticPlugin)
PUBLIC 9d830 0 QVector<QRegExpAnchorAlternation>::reallocData(int,int,QFlags<QArrayData::AllocationOption>)
PUBLIC 9d9d0 0 QPluginLoader::staticPlugins()
PUBLIC 9da10 0 QString::toLatin1()
PUBLIC 9da30 0 QString::toLocal8Bit()
PUBLIC 9da60 0 QString::toUtf8()
PUBLIC 9da80 0 QIODevice::QIODevice(QIODevicePrivate &,QObject *)
PUBLIC 9daa0 0 QIODevice::QIODevice(QObject *)
PUBLIC 9db20 0 QIODevicePrivate::QIODevicePrivate()
PUBLIC 9dbb0 0 QIODevice::~QIODevice()
PUBLIC 9dbc0 0 QIODevicePrivate::~QIODevicePrivate()
PUBLIC 9dc10 0 QIODevice::`vector deleting destructor'(unsigned int)
PUBLIC 9dc40 0 QIODevicePrivate::`vector deleting destructor'(unsigned int)
PUBLIC 9dca0 0 QIODevice::atEnd()
PUBLIC 9dcd0 0 QIODevice::bytesAvailable()
PUBLIC 9dd60 0 QIODevice::canReadLine()
PUBLIC 9dd80 0 QIODevice::close()
PUBLIC 9de30 0 QIODevice::errorString()
PUBLIC 9de90 0 QIODevice::getChar(char *)
PUBLIC 9dec0 0 QIODevice::isOpen()
PUBLIC 9ded0 0 QIODevicePrivate::isSequential()
PUBLIC 9df10 0 QIODevice::isTextModeEnabled()
PUBLIC 9df20 0 QIODevice::isWritable()
PUBLIC 9df30 0 QIODevice::open(QFlags<QIODevice::OpenModeFlag>)
PUBLIC 9dfb0 0 QIODevice::peek(__int64)
PUBLIC 9dfe0 0 QIODevice::peek(char *,__int64)
PUBLIC 9e000 0 QIODevicePrivate::peek(__int64)
PUBLIC 9e110 0 QIODevicePrivate::peek(char *,__int64)
PUBLIC 9e190 0 QIODevice::pos()
PUBLIC 9e1a0 0 QIODevice::putChar(char)
PUBLIC 9e1b0 0 QIODevicePrivate::putCharHelper(char)
PUBLIC 9e1e0 0 QIODevice::read(__int64)
PUBLIC 9e440 0 QIODevice::read(char *,__int64)
PUBLIC 9e8e0 0 QIODevicePrivateLinearBuffer::read(char *,__int64)
PUBLIC 9e930 0 QIODevice::readAll()
PUBLIC 9ec30 0 QIODevicePrivateLinearBuffer::readAll()
PUBLIC 9ec80 0 QIODevice::readLine(__int64)
PUBLIC 9ef30 0 QIODevice::readLine(char *,__int64)
PUBLIC 9f170 0 QIODevicePrivateLinearBuffer::readLine(char *,__int64)
PUBLIC 9f1e0 0 QIODevice::readLineData(char *,__int64)
PUBLIC 9f2a0 0 QIODevice::reset()
PUBLIC 9f2b0 0 QIODevice::seek(__int64)
PUBLIC 9f3f0 0 QIODevice::setErrorString(QString const &)
PUBLIC 9f400 0 QIODevice::setOpenMode(QFlags<QIODevice::OpenModeFlag>)
PUBLIC 9f460 0 QIODevice::setTextModeEnabled(bool)
PUBLIC 9f4c0 0 QIODevice::size()
PUBLIC 9f520 0 QIODevicePrivateLinearBuffer::skip(__int64)
PUBLIC 9f580 0 QIODevice::tr(char const *,char const *,int)
PUBLIC 9f5b0 0 QIODevice::ungetChar(char)
PUBLIC 9f670 0 QIODevice::write(char const *,__int64)
PUBLIC 9f900 0 QDate::QDate(int,int,int)
PUBLIC 9f920 0 QDateTime::QDateTime(QDate const &)
PUBLIC 9fa10 0 QDateTime::QDateTime(QDate const &,QTime const &,Qt::TimeSpec)
PUBLIC 9fa90 0 QDateTime::QDateTime(QDate const &,QTime const &,Qt::TimeSpec,int)
PUBLIC 9fb10 0 QDateTime::QDateTime()
PUBLIC 9fbb0 0 QDateTimeParser::QDateTimeParser(QVariant::Type,QDateTimeParser::Context)
PUBLIC 9fce0 0 QDateTimePrivate::QDateTimePrivate(QDate const &,QTime const &,Qt::TimeSpec,int)
PUBLIC 9fd80 0 QTime::QTime(int,int,int,int)
PUBLIC 9fde0 0 QVector<QDateTimeParser::SectionNode>::~QVector<QDateTimeParser::SectionNode>()
PUBLIC 9fe10 0 QDateTime::~QDateTime()
PUBLIC 9fe40 0 QDateTimeParser::~QDateTimeParser()
PUBLIC 9ff60 0 QDateTime::operator=(QDateTime const &)
PUBLIC 9ffb0 0 operator<<(QDebug,QDate const &)
PUBLIC a00f0 0 operator<<(QDebug,QDateTime const &)
PUBLIC a05d0 0 operator<<(QDebug,QTime const &)
PUBLIC a0750 0 QDateTime::operator==(QDateTime const &)
PUBLIC a07f0 0 QSharedDataPointer<QTimeZonePrivate>::operator->()
PUBLIC a0840 0 QDateTime::operator<(QDateTime const &)
PUBLIC a0aa0 0 QDateTimeParser::`vector deleting destructor'(unsigned int)
PUBLIC a0ac0 0 QDate::addDays(__int64)
PUBLIC a0b50 0 QDateTime::addDays(__int64)
PUBLIC a0cf0 0 QDateTime::addMSecs(__int64)
PUBLIC a0e20 0 QTime::addMSecs(int)
PUBLIC a0ea0 0 QDate::addMonths(int)
PUBLIC a0fc0 0 QDateTime::addMonths(int)
PUBLIC a1160 0 QDateTime::addSecs(__int64)
PUBLIC a11a0 0 QExplicitlySharedDataPointer<QDateTimePrivate>::clone()
PUBLIC a1240 0 QDate::currentDate()
PUBLIC a12b0 0 QDateTime::currentDateTime()
PUBLIC a1420 0 QDateTime::currentDateTimeUtc()
PUBLIC a1590 0 QDateTime::currentMSecsSinceEpoch()
PUBLIC a1640 0 QTime::currentTime()
PUBLIC a16f0 0 QDateTime::date()
PUBLIC a1750 0 QDate::day()
PUBLIC a17a0 0 QDate::dayOfWeek()
PUBLIC a1800 0 QDate::daysInMonth()
PUBLIC a1880 0 QDate::daysTo(QDate const &)
PUBLIC a18f0 0 QDateTime::daysTo(QDateTime const &)
PUBLIC a19c0 0 QExplicitlySharedDataPointer<QDateTimePrivate>::detach_helper()
PUBLIC a1a10 0 QWinTimeZonePrivate::comment()
PUBLIC a1d50 0 floor(float)
PUBLIC a2070 0 QDateTime::fromMSecsSinceEpoch(__int64,Qt::TimeSpec,int)
PUBLIC a2440 0 QDate::fromString(QString const &,Qt::DateFormat)
PUBLIC a2990 0 QDateTime::fromString(QString const &,QString const &)
PUBLIC a2c20 0 QDateTime::fromString(QString const &,Qt::DateFormat)
PUBLIC a3520 0 QTime::fromString(QString const &,Qt::DateFormat)
PUBLIC a3730 0 QDateTime::fromTime_t(unsigned int)
PUBLIC a3760 0 QDate::getDate(int *,int *,int *)
PUBLIC a3980 0 QDateTimePrivate::getDateTime(QDate *,QTime *)
PUBLIC a39d0 0 QTime::hour()
PUBLIC a3a00 0 QChar::isDigit()
PUBLIC a3a30 0 QDate::isLeapYear(int)
PUBLIC a3a90 0 QDateTime::isNull()
PUBLIC a3ab0 0 QDate::isValid(int,int,int)
PUBLIC a3b00 0 QDateTime::isValid()
PUBLIC a3b20 0 QTime::isValid()
PUBLIC a3b40 0 QTime::isValid(int,int,int,int)
PUBLIC a4070 0 QDateTimeParser::locale()
PUBLIC a4090 0 QTime::minute()
PUBLIC a40d0 0 QDate::month()
PUBLIC a4120 0 QTime::msec()
PUBLIC a4160 0 QDateTime::msecsTo(QDateTime const &)
PUBLIC a41d0 0 QTime::msecsTo(QTime const &)
PUBLIC a4330 0 pow(double,int)
PUBLIC a4390 0 qRound(double)
PUBLIC a4890 0 qt_monthNumberFromShortName(QString const &)
PUBLIC a4980 0 QDateTimePrivate::refreshDateTime()
PUBLIC a5390 0 QTime::second()
PUBLIC a53c0 0 QDateTime::secsTo(QDateTime const &)
PUBLIC a53e0 0 QDate::setDate(int,int,int)
PUBLIC a5480 0 QDateTime::setDate(QDate const &)
PUBLIC a54e0 0 QDateTimePrivate::setDateTime(QDate const &,QTime const &)
PUBLIC a5640 0 QDateTimePrivate::setDaylightStatus(QDateTimePrivate::DaylightStatus)
PUBLIC a5680 0 QDateTime::setMSecsSinceEpoch(__int64)
PUBLIC a57c0 0 QDateTime::setOffsetFromUtc(int)
PUBLIC a5880 0 QDateTime::setTime(QTime const &)
PUBLIC a5900 0 QDateTime::setTimeSpec(Qt::TimeSpec)
PUBLIC a59e0 0 QDateTimePrivate::setTimeSpec(Qt::TimeSpec,int)
PUBLIC a5a70 0 QDate::shortDayName(int,QDate::MonthNameType)
PUBLIC a5b70 0 QDate::shortMonthName(int,QDate::MonthNameType)
PUBLIC a5c70 0 QDateTime::time()
PUBLIC a5cb0 0 QDateTime::timeZone()
PUBLIC a5e30 0 QDateTime::timeZoneAbbreviation()
PUBLIC a6290 0 QDate::toString(Qt::DateFormat)
PUBLIC a67b0 0 QDateTime::toString(QString const &)
PUBLIC a6830 0 QDateTime::toString(Qt::DateFormat)
PUBLIC a7080 0 QTime::toString(QString const &)
PUBLIC a7100 0 QTime::toString(Qt::DateFormat)
PUBLIC a7410 0 QDateTime::toTimeSpec(Qt::TimeSpec)
PUBLIC a7540 0 QDateTime::toTime_t()
PUBLIC a7580 0 QTimeZonePrivate::utcQByteArray()
PUBLIC a75a0 0 QTimeZonePrivate::utcQString()
PUBLIC a75c0 0 QDate::year()
PUBLIC a7610 0 QDateTimePrivate::zoneMSecsToEpochMSecs(__int64,QTimeZone const &,QDate *,QTime *)
PUBLIC a76c0 0 QTextStream::QTextStream(QByteArray const &,QFlags<QIODevice::OpenModeFlag>)
PUBLIC a77d0 0 QTextStream::QTextStream(QIODevice *)
PUBLIC a78a0 0 QTextStream::QTextStream(QString *,QFlags<QIODevice::OpenModeFlag>)
PUBLIC a7930 0 QTextStreamPrivate::QTextStreamPrivate(QTextStream *)
PUBLIC a7a50 0 QScopedPointer<QTextStreamPrivate,QScopedPointerDeleter<QTextStreamPrivate> >::~QScopedPointer<QTextStreamPrivate,QScopedPointerDeleter<QTextStreamPrivate> >()
PUBLIC a7a70 0 QDeviceClosedNotifier::~QDeviceClosedNotifier()
PUBLIC a7a80 0 QTextStream::~QTextStream()
PUBLIC a7b00 0 QTextStreamPrivate::~QTextStreamPrivate()
PUBLIC a7c10 0 QTextStream::operator<<(QByteArray const &)
PUBLIC a7cf0 0 QTextStream::operator<<(QString const &)
PUBLIC a7d50 0 QTextStream::operator<<(char)
PUBLIC a7e20 0 QTextStream::operator<<(short)
PUBLIC a7eb0 0 QTextStream::operator<<(unsigned short)
PUBLIC a7f10 0 QTextStream::operator<<(int)
PUBLIC a7f90 0 QTextStream::operator<<(unsigned int)
PUBLIC a7ff0 0 QTextStream::operator<<(float)
PUBLIC a8010 0 QTextStream::operator<<(double)
PUBLIC a8290 0 QTextStream::operator<<(char const *)
PUBLIC a8370 0 QTextStream::operator<<(void const *)
PUBLIC a8400 0 QTextStream::operator<<(QChar)
PUBLIC a84d0 0 QTextStream::operator<<(__int64)
PUBLIC a8560 0 QTextStream::operator<<(unsigned __int64)
PUBLIC a85c0 0 QAbstractSocketEngine::`vector deleting destructor'(unsigned int)
PUBLIC a85e0 0 QTextStream::`vector deleting destructor'(unsigned int)
PUBLIC a8670 0 QTextStream::atEnd()
PUBLIC a86f0 0 QTextCodec::codecForName(char const *)
PUBLIC a8780 0 QTextStreamPrivate::consume(int)
PUBLIC a8840 0 endl(QTextStream &)
PUBLIC a8860 0 QTextStreamPrivate::fillReadBuffer(__int64)
PUBLIC a8c30 0 flush(QTextStream &)
PUBLIC a8c50 0 QTextStream::flush()
PUBLIC a8c60 0 QTextStreamPrivate::flushWriteBuffer()
PUBLIC a8e20 0 QTextStream::locale()
PUBLIC a8e50 0 QTextStreamPrivate::putNumber(unsigned __int64,bool)
PUBLIC a9140 0 QTextStreamPrivate::putString(QString const &,bool)
PUBLIC a93b0 0 QTextStream::readLine(__int64)
PUBLIC a94e0 0 QTextStreamPrivate::reset()
PUBLIC a9620 0 QTextStreamPrivate::saveConverterState(__int64)
PUBLIC a96c0 0 QTextStreamPrivate::scan(QChar const * *,int *,int,QTextStreamPrivate::TokenDelimiter)
PUBLIC a9910 0 operator+=<QString,QLatin1Char>(QString &,QStringBuilder<QString,QLatin1Char> const &)
PUBLIC a99e0 0 QStringBuilder<QStringBuilder<QString,QString>,QString>::convertTo<QString>()
PUBLIC a9ac0 0 qAtomicDetach<QUrlPrivate>(QUrlPrivate * &)
PUBLIC a9b50 0 QUrl::QUrl(QString const &,QUrl::ParsingMode)
PUBLIC a9b70 0 QAuthenticator::QAuthenticator()
PUBLIC a9b80 0 QUrlPrivate::QUrlPrivate(QUrlPrivate const &)
PUBLIC a9ce0 0 QUrlPrivate::QUrlPrivate()
PUBLIC a9d30 0 QUrl::~QUrl()
PUBLIC a9d60 0 QUrlPrivate::~QUrlPrivate()
PUBLIC a9ed0 0 QUrl::operator=(QUrl const &)
PUBLIC a9f70 0 operator<<(QDebug,QUrl const &)
PUBLIC aa0c0 0 QUrl::operator==(QUrl const &)
PUBLIC aa220 0 QUrl::operator!=(QUrl const &)
PUBLIC aa240 0 QStringBuilder<QStringBuilder<QString,QString>,QString>::operator QString()
PUBLIC aa2c0 0 QUrlPrivate::appendAuthority(QString &,QUrlTwoFlags<QUrl::UrlFormattingOption,QUrl::ComponentFormattingOption>,QUrlPrivate::Section)
PUBLIC aa3c0 0 QUrlPrivate::appendFragment(QString &,QUrlTwoFlags<QUrl::UrlFormattingOption,QUrl::ComponentFormattingOption>,QUrlPrivate::Section)
PUBLIC aa430 0 QUrlPrivate::appendHost(QString &,QUrlTwoFlags<QUrl::UrlFormattingOption,QUrl::ComponentFormattingOption>)
PUBLIC aa520 0 QUrlPrivate::appendPassword(QString &,QUrlTwoFlags<QUrl::UrlFormattingOption,QUrl::ComponentFormattingOption>)
PUBLIC aa590 0 QUrlPrivate::appendPath(QString &,QUrlTwoFlags<QUrl::UrlFormattingOption,QUrl::ComponentFormattingOption>,QUrlPrivate::Section)
PUBLIC aa790 0 QUrlPrivate::appendQuery(QString &,QUrlTwoFlags<QUrl::UrlFormattingOption,QUrl::ComponentFormattingOption>,QUrlPrivate::Section)
PUBLIC aa800 0 QUrlPrivate::appendUserInfo(QString &,QUrlTwoFlags<QUrl::UrlFormattingOption,QUrl::ComponentFormattingOption>,QUrlPrivate::Section)
PUBLIC aa900 0 QUrlPrivate::appendUserName(QString &,QUrlTwoFlags<QUrl::UrlFormattingOption,QUrl::ComponentFormattingOption>)
PUBLIC aa970 0 QUrl::authority(QFlags<QUrl::ComponentFormattingOption>)
PUBLIC aaa70 0 QUrlPrivate::clearError()
PUBLIC aaae0 0 QUrl::fromAce(QByteArray const &)
PUBLIC aab80 0 QUrl::fromEncoded(QByteArray const &,QUrl::ParsingMode)
PUBLIC aac30 0 QUrl::fromPercentEncoding(QByteArray const &)
PUBLIC aacd0 0 QUrl::hasQuery()
PUBLIC aacf0 0 QUrl::host(QFlags<QUrl::ComponentFormattingOption>)
PUBLIC aae10 0 QUrl::isEmpty()
PUBLIC aae40 0 QUrl::isLocalFile()
PUBLIC aae60 0 QUrl::isValid()
PUBLIC aaf10 0 QUrlPrivate::parse(QString const &,QUrl::ParsingMode)
PUBLIC ab810 0 QUrl::password(QFlags<QUrl::ComponentFormattingOption>)
PUBLIC ab8e0 0 QUrl::path(QFlags<QUrl::ComponentFormattingOption>)
PUBLIC ab9b0 0 QUrl::port(int)
PUBLIC ab9d0 0 QUrl::query(QFlags<QUrl::ComponentFormattingOption>)
PUBLIC abbe0 0 QUrl::scheme()
PUBLIC abc20 0 QUrlPrivate::setAuthority(QString const &,int,int,QUrl::ParsingMode)
PUBLIC abef0 0 QUrlPrivate::setError(QUrlPrivate::ErrorCode,QString const &,int)
PUBLIC abf40 0 QUrl::setFragment(QString const &,QUrl::ParsingMode)
PUBLIC ac100 0 QUrl::setHost(QString const &,QUrl::ParsingMode)
PUBLIC ac2e0 0 QUrlPrivate::setHost(QString const &,int,int,QUrl::ParsingMode)
PUBLIC ac630 0 QUrl::setPassword(QString const &,QUrl::ParsingMode)
PUBLIC ac7f0 0 QUrlPrivate::setPassword(QString const &,int,int)
PUBLIC ac860 0 QUrl::setPath(QString const &,QUrl::ParsingMode)
PUBLIC aca80 0 QUrl::setPort(int)
PUBLIC acbe0 0 QUrl::setQuery(QString const &,QUrl::ParsingMode)
PUBLIC acda0 0 QUrl::setScheme(QString const &)
PUBLIC ace80 0 QUrlPrivate::setScheme(QString const &,int,bool)
PUBLIC ad070 0 QUrl::setUrl(QString const &,QUrl::ParsingMode)
PUBLIC ad120 0 QUrl::setUserInfo(QString const &,QUrl::ParsingMode)
PUBLIC ad2a0 0 QUrlPrivate::setUserInfo(QString const &,int,int)
PUBLIC ad390 0 QUrl::setUserName(QString const &,QUrl::ParsingMode)
PUBLIC ad550 0 QUrl::toAce(QString const &)
PUBLIC ad5f0 0 QUrl::toDisplayString(QUrlTwoFlags<QUrl::UrlFormattingOption,QUrl::ComponentFormattingOption>)
PUBLIC ad620 0 QUrl::toEncoded(QUrlTwoFlags<QUrl::UrlFormattingOption,QUrl::ComponentFormattingOption>)
PUBLIC ad6d0 0 QUrl::toLocalFile()
PUBLIC ad9e0 0 QUrl::toPercentEncoding(QString const &,QByteArray const &,QByteArray const &)
PUBLIC ada80 0 QUrl::toString(QUrlTwoFlags<QUrl::UrlFormattingOption,QUrl::ComponentFormattingOption>)
PUBLIC add30 0 QUrl::url(QUrlTwoFlags<QUrl::UrlFormattingOption,QUrl::ComponentFormattingOption>)
PUBLIC add50 0 QUrl::userInfo(QFlags<QUrl::ComponentFormattingOption>)
PUBLIC ade50 0 QUrl::userName(QFlags<QUrl::ComponentFormattingOption>)
PUBLIC adf20 0 QUrlPrivate::validateComponent(QUrlPrivate::Section,QString const &,int,int)
PUBLIC ae070 0 QByteArray::QByteArray(int,char)
PUBLIC ae0e0 0 QByteArray::QByteArray(int,Qt::Initialization)
PUBLIC ae120 0 QByteArray::QByteArray(char const *,int)
PUBLIC ae1c0 0 QScopedPointer<QTypedArrayData<char>,QScopedPointerPodDeleter>::~QScopedPointer<QTypedArrayData<char>,QScopedPointerPodDeleter>()
PUBLIC ae1d0 0 QByteArray::operator=(QByteArray const &)
PUBLIC ae230 0 QByteArray::operator=(char const *)
PUBLIC ae330 0 operator<<(QDataStream &,QByteArray const &)
PUBLIC ae370 0 QByteArray::append(QByteArray const &)
PUBLIC ae430 0 QByteArray::append(char)
PUBLIC ae4a0 0 QByteArray::append(char const *)
PUBLIC ae530 0 QByteArray::append(char const *,int)
PUBLIC ae5e0 0 QByteArray::chop(int)
PUBLIC ae600 0 QByteArray::clear()
PUBLIC ae640 0 QByteArray::endsWith(char)
PUBLIC ae670 0 QByteArray::endsWith(char const *)
PUBLIC ae6e0 0 QByteArray::expand(int)
PUBLIC ae710 0 QByteArray::fromBase64(QByteArray const &)
PUBLIC ae740 0 QByteArray::fromBase64(QByteArray const &,QFlags<QByteArray::Base64Option>)
PUBLIC ae8d0 0 QByteArray::fromPercentEncoding(QByteArray const &,char)
PUBLIC ae9d0 0 QByteArray::fromRawData(char const *,int)
PUBLIC aea50 0 QByteArray::indexOf(QByteArray const &,int)
PUBLIC aeac0 0 QByteArray::indexOf(char,int)
PUBLIC aeb30 0 QByteArray::indexOf(char const *,int)
PUBLIC aebb0 0 QByteArray::insert(int,char const *)
PUBLIC aec00 0 QByteArray::isNull()
PUBLIC aec10 0 QByteArray::lastIndexOf(char,int)
PUBLIC aec60 0 QByteArray::left(int)
PUBLIC aecb0 0 QByteArray::leftJustified(int,char,bool)
PUBLIC aedc0 0 QByteArray::mid(int,int)
PUBLIC aee70 0 QByteArray::nulTerminated()
PUBLIC aef80 0 QByteArray::number(int,int)
PUBLIC af010 0 QByteArray::number(double,char,int)
PUBLIC af090 0 QByteArray::number(__int64,int)
PUBLIC af100 0 QByteArray::number(unsigned __int64,int)
PUBLIC af1d0 0 QByteArray::prepend(QByteArray const &)
PUBLIC af2d0 0 QByteArray::prepend(char)
PUBLIC af360 0 QByteArray::prepend(char const *)
PUBLIC af3a0 0 QByteArray::prepend(char const *,int)
PUBLIC af440 0 qAllocMore(int,int)
PUBLIC af470 0 qUncompress(unsigned char const *,int)
PUBLIC afba0 0 qstrcmp(QByteArray const &,QByteArray const &)
PUBLIC afc40 0 qstrcmp(QByteArray const &,char const *)
PUBLIC afca0 0 qstrcmp(char const *,char const *)
PUBLIC afcf0 0 qstricmp(char const *,char const *)
PUBLIC afd60 0 qstrncpy(char *,char const *,unsigned int)
PUBLIC afe00 0 QByteArray::reallocData(unsigned int,QFlags<QArrayData::AllocationOption>)
PUBLIC aff30 0 QByteArray::remove(int,int)
PUBLIC affd0 0 QByteArray::replace(char const *,int,char const *,int)
PUBLIC b0400 0 QScopedPointer<QTypedArrayData<char>,QScopedPointerPodDeleter>::reset(QTypedArrayData<char> *)
PUBLIC b0420 0 QByteArray::resize(int)
PUBLIC b0550 0 QByteArray::right(int)
PUBLIC b05b0 0 QByteArray::rightJustified(int,char,bool)
PUBLIC b06c0 0 QByteArray::setNum(double,char,int)
PUBLIC b07e0 0 QByteArray::setNum(__int64,int)
PUBLIC b0890 0 QByteArray::setNum(unsigned __int64,int)
PUBLIC b0920 0 QByteArray::split(char)
PUBLIC b0a90 0 QByteArray::startsWith(char)
PUBLIC b0ab0 0 QByteArray::startsWith(char const *)
PUBLIC b0b10 0 QByteArray::toBase64(QFlags<QByteArray::Base64Option>)
PUBLIC b0e00 0 QByteArray::toBase64()
PUBLIC b0e30 0 QByteArray::toDouble(bool *)
PUBLIC b0ed0 0 QByteArray::toFloat(bool *)
PUBLIC b0f70 0 QByteArray::toHex()
PUBLIC b1090 0 QByteArray::toInt(bool *,int)
PUBLIC b1150 0 QByteArray::toLongLong(bool *,int)
PUBLIC b11f0 0 QByteArray::toLower()
PUBLIC b1300 0 QByteArray::toPercentEncoding(QByteArray const &,QByteArray const &,char)
PUBLIC b1520 0 QByteArray::toUInt(bool *,int)
PUBLIC b15e0 0 QByteArray::toULongLong(bool *,int)
PUBLIC b1680 0 QByteArray::trimmed()
PUBLIC b1790 0 QByteArray::truncate(int)
PUBLIC b17b0 0 QListData::append(QListData const &)
PUBLIC b17d0 0 QListData::append(int)
PUBLIC b18a0 0 QListData::append()
PUBLIC b18b0 0 QListData::detach(int)
PUBLIC b1910 0 QListData::detach_grow(int *,int)
PUBLIC b19c0 0 QListData::erase(void * *)
PUBLIC b1a00 0 QListData::insert(int)
PUBLIC b1b00 0 QListData::prepend()
PUBLIC b1be0 0 QListData::realloc(int)
PUBLIC b1c20 0 QListData::remove(int)
PUBLIC b1ca0 0 QListData::remove(int,int)
PUBLIC b1d50 0 QObject::qt_static_metacall(QObject *,QMetaObject::Call,int,void * *)
PUBLIC b1f40 0 operator<<<QByteArray>(QDebug,QList<QByteArray> const &)
PUBLIC b2110 0 std::_Upper_bound<QPostEvent *,QPostEvent,int,std::less<void> >(QPostEvent *,QPostEvent *,QPostEvent const &,std::less<void>,int *)
PUBLIC b2170 0 qDeleteAll<QDirIteratorPrivateIteratorStack<QAbstractFileEngineIterator> >(QDirIteratorPrivateIteratorStack<QAbstractFileEngineIterator> const &)
PUBLIC b21c0 0 QList<QAbstractEventDispatcher::TimerInfo>::QList<QAbstractEventDispatcher::TimerInfo>(QList<QAbstractEventDispatcher::TimerInfo> const &)
PUBLIC b2280 0 QVarLengthArray<QArgumentType,10>::QVarLengthArray<QArgumentType,10>(int)
PUBLIC b22f0 0 QObjectPrivate::ExtraData::ExtraData()
PUBLIC b2320 0 QMetaCallEvent::QMetaCallEvent(unsigned short,unsigned short,void (*)(QObject *,QMetaObject::Call,int,void * *),QObject const *,int,int,int *,void * *,QSemaphore *)
PUBLIC b2380 0 QMetaCallEvent::QMetaCallEvent(QtPrivate::QSlotObjectBase *,QObject const *,int,int,int *,void * *,QSemaphore *)
PUBLIC b23f0 0 QObject::QObject(QObjectPrivate &,QObject *)
PUBLIC b24f0 0 QObject::QObject(QObject *)
PUBLIC b2660 0 QObjectPrivate::QObjectPrivate(int)
PUBLIC b2720 0 QOrderedMutexLocker::QOrderedMutexLocker(QMutex *,QMutex *)
PUBLIC b2770 0 QScopedArrayPointer<int,QScopedPointerArrayDeleter<int> >::~QScopedArrayPointer<int,QScopedPointerArrayDeleter<int> >()
PUBLIC b2780 0 QScopedPointer<QObjectPrivate::Connection,QScopedPointerDeleter<QObjectPrivate::Connection> >::~QScopedPointer<QObjectPrivate::Connection,QScopedPointerDeleter<QObjectPrivate::Connection> >()
PUBLIC b27d0 0 QScopedPointer<QtPrivate::QSlotObjectBase,QSlotObjectBaseDeleter>::~QScopedPointer<QtPrivate::QSlotObjectBase,QSlotObjectBaseDeleter>()
PUBLIC b2800 0 QVarLengthArray<QArgumentType,10>::~QVarLengthArray<QArgumentType,10>()
PUBLIC b2860 0 QStack<QAbstractFileEngineIterator *>::~QStack<QAbstractFileEngineIterator *>()
PUBLIC b2890 0 QMetaObject::Connection::~Connection()
PUBLIC b28f0 0 QObjectPrivate::ExtraData::~ExtraData()
PUBLIC b2a70 0 QConnectionSenderSwitcher::~QConnectionSenderSwitcher()
PUBLIC b2aa0 0 QMetaCallEvent::~QMetaCallEvent()
PUBLIC b2b70 0 QObject::~QObject()
PUBLIC b30e0 0 QObjectData::~QObjectData()
PUBLIC b3110 0 QObjectPrivate::~QObjectPrivate()
PUBLIC b3270 0 QOrderedMutexLocker::~QOrderedMutexLocker()
PUBLIC b32a0 0 operator<<(QDebug,QObject const *)
PUBLIC b3460 0 QList<QVariant>::operator[](int)
PUBLIC b3490 0 QVector<QObjectPrivate::ConnectionList>::operator[](int)
PUBLIC b3500 0 QMetaCallEvent::`vector deleting destructor'(unsigned int)
PUBLIC b3520 0 QObjectPrivate::_q_reregisterTimers(void *)
PUBLIC b3580 0 QMetaObject::activate(QObject *,int,int,void * *)
PUBLIC b3bf0 0 QMetaObject::activate(QObject *,QMetaObject const *,int,void * *)
PUBLIC b3c20 0 QObjectPrivate::addConnection(int,QObjectPrivate::Connection *)
PUBLIC b3d40 0 QPostEventList::addEvent(QPostEvent const &)
PUBLIC b3dc0 0 QVector<QPostEvent>::append(QPostEvent const &)
PUBLIC b3e50 0 QVector<QPostEvent>::begin()
PUBLIC b3eb0 0 QObject::blockSignals(bool)
PUBLIC b4090 0 QObjectPrivate::cleanConnectionLists()
PUBLIC b4190 0 QVarLengthArray<QArgumentType,10>::clear()
PUBLIC b41b0 0 QMetaObjectPrivate::connect(QObject const *,int,QMetaObject const *,QObject const *,int,QMetaObject const *,int,int *)
PUBLIC b4410 0 QObject::connect(QObject const *,char const *,QObject const *,char const *,Qt::ConnectionType)
PUBLIC b49b0 0 QVector<QObjectPrivate::ConnectionList>::defaultConstruct(QObjectPrivate::ConnectionList *,QObjectPrivate::ConnectionList *)
PUBLIC b49e0 0 QVector<QPostEvent>::defaultConstruct(QPostEvent *,QPostEvent *)
PUBLIC b4a20 0 QObjectPrivate::deleteChildren()
PUBLIC b4ad0 0 QObject::deleteLater()
PUBLIC b4b40 0 QObjectPrivate::Connection::deref()
PUBLIC b4ba0 0 QObject::destroyed(QObject *)
PUBLIC b4be0 0 QVector<int>::detach()
PUBLIC b4c30 0 QVector<QPostEvent>::detach()
PUBLIC b4c80 0 QList<QVariant>::detach_helper(int)
PUBLIC b4d50 0 QMetaObjectPrivate::disconnect(QObject const *,int,QMetaObject const *,QObject const *,int,void * *,QMetaObjectPrivate::DisconnectType)
PUBLIC b4f40 0 QObject::disconnect(QObject const *,char const *,QObject const *,char const *)
PUBLIC b54e0 0 QMetaObjectPrivate::disconnectHelper(QObjectPrivate::Connection *,QObject const *,int,void * *,QMutex *,QMetaObjectPrivate::DisconnectType)
PUBLIC b5670 0 QObjectData::dynamicMetaObject()
PUBLIC b5690 0 QVector<QPostEvent>::end()
PUBLIC b5b30 0 QObject::event(QEvent *)
PUBLIC b5e30 0 QVector<int>::indexOf(int const &,int)
PUBLIC b5eb0 0 QVector<QPostEvent>::insert(QPostEvent *,int,QPostEvent const &)
PUBLIC b5fb0 0 QObject::killTimer(int)
PUBLIC b6170 0 QObject::metaObject()
PUBLIC b61a0 0 QObject::moveToThread(QThread *)
PUBLIC b6380 0 QObjectPrivate::moveToThread_helper()
PUBLIC b6440 0 QArgumentType::name()
PUBLIC b64a0 0 QList<QAbstractEventDispatcher::TimerInfo>::node_copy(QList<QAbstractEventDispatcher::TimerInfo>::Node *,QList<QAbstractEventDispatcher::TimerInfo>::Node *,QList<QAbstractEventDispatcher::TimerInfo>::Node *)
PUBLIC b6550 0 QObject::objectName()
PUBLIC b6620 0 QObject::objectNameChanged(QString const &,QObject::QPrivateSignal)
PUBLIC b6660 0 QMetaCallEvent::placeMetaCall(QObject *)
PUBLIC b66e0 0 QObject::property(char const *)
PUBLIC b67b0 0 QObject::qt_metacall(QMetaObject::Call,int,void * *)
PUBLIC b6890 0 QObject::qt_metacast(char const *)
PUBLIC b68e0 0 qt_qFindChildren_helper(QObject const *,QString const &,QMetaObject const &,QList<void *> *,QFlags<Qt::FindChildOption>)
PUBLIC b71d0 0 QVarLengthArray<QArgumentType,10>::realloc(int,int)
PUBLIC b7370 0 QVector<int>::reallocData(int,int,QFlags<QArrayData::AllocationOption>)
PUBLIC b7510 0 QVector<QObjectPrivate::ConnectionList>::reallocData(int,int,QFlags<QArrayData::AllocationOption>)
PUBLIC b7690 0 QVector<QPostEvent>::reallocData(int,int,QFlags<QArrayData::AllocationOption>)
PUBLIC b7870 0 QList<QObject *>::removeAt(int)
PUBLIC b78b0 0 QList<QVariant>::removeAt(int)
PUBLIC b7910 0 QCoreApplication::sendEvent(QObject *,QEvent *)
PUBLIC b7940 0 QObject::sender()
PUBLIC b79b0 0 QObject::setObjectName(QString const &)
PUBLIC b7a60 0 QObject::setParent(QObject *)
PUBLIC b7a70 0 QObjectPrivate::setParent_helper(QObject *)
PUBLIC b7c50 0 QObject::setProperty(char const *,QVariant const &)
PUBLIC b7e50 0 QObjectPrivate::setThreadData_helper(QThreadData *,QThreadData *)
PUBLIC b7f50 0 QObject::startTimer(int,Qt::TimerType)
PUBLIC b8070 0 QObject::thread()
PUBLIC b8080 0 QList<QVariant>::value(int)
PUBLIC b8130 0 QEventLoop::QEventLoop(QObject *)
PUBLIC b82a0 0 QEventLoop::~QEventLoop()
PUBLIC b82b0 0 QEventLoop::`vector deleting destructor'(unsigned int)
PUBLIC b82e0 0 QEventLoopPrivate::`vector deleting destructor'(unsigned int)
PUBLIC b8300 0 QEventLoop::event(QEvent *)
PUBLIC b8340 0 QEventLoop::exec(QFlags<QEventLoop::ProcessEventsFlag>)
PUBLIC b8490 0 QEventLoop::exit(int)
PUBLIC b84c0 0 QStack<QAbstractFileEngineIterator *>::pop()
PUBLIC b8560 0 QEventLoop::quit()
PUBLIC b8590 0 QVector<QPostEvent>::QVector<QPostEvent>(QVector<QPostEvent> const &)
PUBLIC b8630 0 QCoreApplication::QCoreApplication(int &,char * *,int)
PUBLIC b86e0 0 QCoreApplicationPrivate::QCoreApplicationPrivate(int &,char * *,unsigned int)
PUBLIC b8820 0 QScopedPointer<QAbstractFileEngine,QScopedPointerDeleter<QAbstractFileEngine> >::~QScopedPointer<QAbstractFileEngine,QScopedPointerDeleter<QAbstractFileEngine> >()
PUBLIC b8830 0 QVector<QPostEvent>::~QVector<QPostEvent>()
PUBLIC b8900 0 QCoreApplication::~QCoreApplication()
PUBLIC b8a60 0 QCoreApplicationData::~QCoreApplicationData()
PUBLIC b8bc0 0 QCoreApplicationPrivate::~QCoreApplicationPrivate()
PUBLIC b8cf0 0 QMutexUnlocker::~QMutexUnlocker()
PUBLIC b8d10 0 QScopedLoopLevelCounter::~QScopedLoopLevelCounter()
PUBLIC b8d20 0 QVector<QPostEvent>::operator=(QVector<QPostEvent> &&)
PUBLIC b8d50 0 QVector<QPostEvent>::operator[](int)
PUBLIC b8dd0 0 QCoreApplication::`vector deleting destructor'(unsigned int)
PUBLIC b8df0 0 QCoreApplicationPrivate::`vector deleting destructor'(unsigned int)
PUBLIC b8e10 0 QCoreApplicationPrivate::appendApplicationPathToLibraryPaths()
PUBLIC b8f90 0 QCoreApplication::applicationDirPath()
PUBLIC b90f0 0 QCoreApplication::applicationFilePath()
PUBLIC b92a0 0 QCoreApplication::applicationName()
PUBLIC b9430 0 QCoreApplication::applicationPid()
PUBLIC b9440 0 QCoreApplication::applicationVersion()
PUBLIC b9480 0 QCoreApplicationPrivate::cleanupThreadData()
PUBLIC b9590 0 QVector<QPostEvent>::clear()
PUBLIC b9610 0 QCoreApplicationPrivate::clearApplicationFilePath()
PUBLIC b9660 0 QCoreApplication::closingDown()
PUBLIC b9670 0 QCoreApplication::compressEvent(QEvent *,QObject *,QPostEventList *)
PUBLIC b9750 0 QVector<QPostEvent>::copyConstruct(QPostEvent const *,QPostEvent const *,QPostEvent *)
PUBLIC b9790 0 QCoreApplicationPrivate::createEventDispatcher()
PUBLIC b9810 0 QFile::decodeName(QByteArray const &)
PUBLIC b9830 0 QVector<QPostEvent>::erase(QPostEvent *,QPostEvent *)
PUBLIC b98d0 0 QCoreApplication::event(QEvent *)
PUBLIC b9900 0 QCoreApplication::exit(int)
PUBLIC b9950 0 QString::fromLocal8Bit(QByteArray const &)
PUBLIC b99a0 0 QCoreApplication::init()
PUBLIC b9a80 0 QCoreApplicationPrivate::initLocale()
PUBLIC b9aa0 0 `anonymous namespace'::Q_QGS_coreappdata::innerFunction()
PUBLIC b9b80 0 `anonymous namespace'::Q_QGS_postRList::innerFunction()
PUBLIC b9c40 0 `anonymous namespace'::Q_QGS_preRList::innerFunction()
PUBLIC b9d00 0 QCoreApplication::isQuitLockEnabled()
PUBLIC b9d10 0 QCoreApplicationPrivate::mainThread()
PUBLIC b9d20 0 QCoreApplication::notify(QObject *,QEvent *)
PUBLIC b9d90 0 QCoreApplication::notifyInternal(QObject *,QEvent *)
PUBLIC b9e40 0 QCoreApplicationPrivate::notify_helper(QObject *,QEvent *)
PUBLIC b9e80 0 QCoreApplication::organizationDomain()
PUBLIC b9ec0 0 QCoreApplication::organizationName()
PUBLIC b9f00 0 QCoreApplication::postEvent(QObject *,QEvent *,int)
PUBLIC ba0a0 0 QList<void (*)(void)>::prepend(void (*const &)(void))
PUBLIC ba130 0 QCoreApplicationPrivate::processCommandLineArguments()
PUBLIC ba360 0 qAddPostRoutine(void (*)(void))
PUBLIC ba380 0 qAddPreRoutine(void (*)(void))
PUBLIC ba410 0 qGlobalPostedEventsCount()
PUBLIC ba430 0 qt_call_post_routines()
PUBLIC ba5e0 0 QCoreApplication::quit()
PUBLIC ba5f0 0 QCoreApplicationPrivate::removePostedEvent(QEvent *)
PUBLIC ba6d0 0 QCoreApplication::removePostedEvents(QObject *,int)
PUBLIC babd0 0 QCoreApplication::sendPostedEvents(QObject *,int)
PUBLIC babf0 0 QCoreApplicationPrivate::sendPostedEvents(QObject *,int,QThreadData *)
PUBLIC baeb0 0 QCoreApplicationPrivate::sendThroughApplicationEventFilters(QObject *,QEvent *)
PUBLIC bafa0 0 QCoreApplicationPrivate::sendThroughObjectEventFilters(QObject *,QEvent *)
PUBLIC bb070 0 QCoreApplicationPrivate::setApplicationFilePath(QString const &)
PUBLIC bb0c0 0 QCoreApplication::setApplicationName(QString const &)
PUBLIC bb120 0 QCoreApplication::setApplicationVersion(QString const &)
PUBLIC bb180 0 QCoreApplication::setOrganizationDomain(QString const &)
PUBLIC bb1e0 0 QCoreApplication::setOrganizationName(QString const &)
PUBLIC bb230 0 QCoreApplication::setQuitLockEnabled(bool)
PUBLIC bb240 0 QCoreApplication::translate(char const *,char const *,char const *,int)
PUBLIC bc970 0 operator<<<QString,QVariant>(QDebug,QHash<QString,QVariant> const &)
PUBLIC bcbb0 0 operator<<<QString,QVariant>(QDebug,QMap<QString,QVariant> const &)
PUBLIC bcdd0 0 operator<<<QVariant>(QDebug,QList<QVariant> const &)
PUBLIC bcf70 0 QVariant::canConvert<QString>()
PUBLIC bd060 0 QVariantDebugStream<`anonymous namespace'::CoreTypesFilter>::delegate<signed char>(signed char const *)
PUBLIC bd0e0 0 QVariantDebugStream<`anonymous namespace'::CoreTypesFilter>::delegate<char>(char const *)
PUBLIC bd170 0 QVariantDebugStream<`anonymous namespace'::CoreTypesFilter>::delegate<unsigned char>(unsigned char const *)
PUBLIC bd1f0 0 QVariantDebugStream<`anonymous namespace'::CoreTypesFilter>::delegate<short>(short const *)
PUBLIC bd270 0 QVariantDebugStream<`anonymous namespace'::CoreTypesFilter>::delegate<unsigned short>(unsigned short const *)
PUBLIC bd2f0 0 QVariantDebugStream<`anonymous namespace'::CoreTypesFilter>::delegate<int>(int const *)
PUBLIC bd370 0 QVariantConstructor<`anonymous namespace'::CoreTypesFilter>::delegate<int>(int const *)
PUBLIC bd3c0 0 QVariantDebugStream<`anonymous namespace'::CoreTypesFilter>::delegate<unsigned int>(unsigned int const *)
PUBLIC bd440 0 QVariantDebugStream<`anonymous namespace'::CoreTypesFilter>::delegate<float>(float const *)
PUBLIC bd4d0 0 QVariantConstructor<`anonymous namespace'::CoreTypesFilter>::delegate<double>(double const *)
PUBLIC bd520 0 QVariantDebugStream<`anonymous namespace'::CoreTypesFilter>::delegate<double>(double const *)
PUBLIC bd5b0 0 QVariantDebugStream<`anonymous namespace'::CoreTypesFilter>::delegate<QObject *>(QObject * const *)
PUBLIC bd640 0 QVariantDebugStream<`anonymous namespace'::CoreTypesFilter>::delegate<void *>(void * const *)
PUBLIC bd6c0 0 QVariantConstructor<`anonymous namespace'::CoreTypesFilter>::delegate<QHash<QString,QVariant> >(QHash<QString,QVariant> const *)
PUBLIC bd6f0 0 QVariantDebugStream<`anonymous namespace'::CoreTypesFilter>::delegate<QHash<QString,QVariant> >(QHash<QString,QVariant> const *)
PUBLIC bd780 0 QVariantDestructor<`anonymous namespace'::CoreTypesFilter>::delegate<QHash<QString,QVariant> >(QHash<QString,QVariant> const *)
PUBLIC bd7d0 0 QVariantConstructor<`anonymous namespace'::CoreTypesFilter>::delegate<QList<QByteArray> >(QList<QByteArray> const *)
PUBLIC bd860 0 QVariantDebugStream<`anonymous namespace'::CoreTypesFilter>::delegate<QList<QByteArray> >(QList<QByteArray> const *)
PUBLIC bd8f0 0 QVariantDestructor<`anonymous namespace'::CoreTypesFilter>::delegate<QList<QByteArray> >(QList<QByteArray> const *)
PUBLIC bd940 0 QVariantConstructor<`anonymous namespace'::CoreTypesFilter>::delegate<QList<QVariant> >(QList<QVariant> const *)
PUBLIC bd9d0 0 QVariantDebugStream<`anonymous namespace'::CoreTypesFilter>::delegate<QList<QVariant> >(QList<QVariant> const *)
PUBLIC bda60 0 QVariantDestructor<`anonymous namespace'::CoreTypesFilter>::delegate<QList<QVariant> >(QList<QVariant> const *)
PUBLIC bda90 0 QVariantConstructor<`anonymous namespace'::CoreTypesFilter>::delegate<QMap<QString,QVariant> >(QMap<QString,QVariant> const *)
PUBLIC bdac0 0 QVariantDebugStream<`anonymous namespace'::CoreTypesFilter>::delegate<QMap<QString,QVariant> >(QMap<QString,QVariant> const *)
PUBLIC bdb50 0 QVariantDestructor<`anonymous namespace'::CoreTypesFilter>::delegate<QMap<QString,QVariant> >(QMap<QString,QVariant> const *)
PUBLIC bdbb0 0 QVariantConstructor<`anonymous namespace'::CoreTypesFilter>::delegate<QBitArray>(QBitArray const *)
PUBLIC bdc10 0 QVariantDebugStream<`anonymous namespace'::CoreTypesFilter>::delegate<QBitArray>(QBitArray const *)
PUBLIC bdca0 0 QVariantDestructor<`anonymous namespace'::CoreTypesFilter>::delegate<QBitArray>(QBitArray const *)
PUBLIC bdcd0 0 QVariantDebugStream<`anonymous namespace'::CoreTypesFilter>::delegate<QByteArray>(QByteArray const *)
PUBLIC bdcf0 0 QVariantConstructor<`anonymous namespace'::CoreTypesFilter>::delegate<short>(short const *)
PUBLIC bdd40 0 QVariantDebugStream<`anonymous namespace'::CoreTypesFilter>::delegate<QChar>(QChar const *)
PUBLIC bdd60 0 QVariantConstructor<`anonymous namespace'::CoreTypesFilter>::delegate<QDate>(QDate const *)
PUBLIC bddc0 0 QVariantDebugStream<`anonymous namespace'::CoreTypesFilter>::delegate<QDate>(QDate const *)
PUBLIC bde50 0 QVariantIsNull<`anonymous namespace'::CoreTypesFilter>::delegate<QDate>(QDate const *)
PUBLIC bdea0 0 QVariantDebugStream<`anonymous namespace'::CoreTypesFilter>::delegate<QDateTime>(QDateTime const *)
PUBLIC bdf30 0 QVariantDebugStream<`anonymous namespace'::CoreTypesFilter>::delegate<QEasingCurve>(QEasingCurve const *)
PUBLIC bdfc0 0 QVariantConstructor<`anonymous namespace'::CoreTypesFilter>::delegate<QJsonArray>(QJsonArray const *)
PUBLIC bdff0 0 QVariantDebugStream<`anonymous namespace'::CoreTypesFilter>::delegate<QJsonArray>(QJsonArray const *)
PUBLIC be080 0 QVariantConstructor<`anonymous namespace'::CoreTypesFilter>::delegate<QJsonDocument>(QJsonDocument const *)
PUBLIC be0b0 0 QVariantDebugStream<`anonymous namespace'::CoreTypesFilter>::delegate<QJsonDocument>(QJsonDocument const *)
PUBLIC be140 0 QVariantDebugStream<`anonymous namespace'::CoreTypesFilter>::delegate<QJsonObject>(QJsonObject const *)
PUBLIC be1d0 0 QVariantDestructor<`anonymous namespace'::CoreTypesFilter>::delegate<QJsonArray>(QJsonArray const *)
PUBLIC be1f0 0 QVariantConstructor<`anonymous namespace'::CoreTypesFilter>::delegate<QJsonValue>(QJsonValue const *)
PUBLIC be220 0 QVariantDebugStream<`anonymous namespace'::CoreTypesFilter>::delegate<QJsonValue>(QJsonValue const *)
PUBLIC be2b0 0 QVariantDestructor<`anonymous namespace'::CoreTypesFilter>::delegate<QJsonValue>(QJsonValue const *)
PUBLIC be2d0 0 QVariantComparator<`anonymous namespace'::CoreTypesFilter>::delegate<QLine>(QLine const *)
PUBLIC be310 0 QVariantConstructor<`anonymous namespace'::CoreTypesFilter>::delegate<QLine>(QLine const *)
PUBLIC be340 0 QVariantDebugStream<`anonymous namespace'::CoreTypesFilter>::delegate<QLine>(QLine const *)
PUBLIC be3d0 0 QVariantIsNull<`anonymous namespace'::CoreTypesFilter>::delegate<QLine>(QLine const *)
PUBLIC be3f0 0 QVariantComparator<`anonymous namespace'::CoreTypesFilter>::delegate<QLineF>(QLineF const *)
PUBLIC be480 0 QVariantDebugStream<`anonymous namespace'::CoreTypesFilter>::delegate<QLineF>(QLineF const *)
PUBLIC be510 0 QVariantIsNull<`anonymous namespace'::CoreTypesFilter>::delegate<QLineF>(QLineF const *)
PUBLIC be5f0 0 QVariantDebugStream<`anonymous namespace'::CoreTypesFilter>::delegate<QLocale>(QLocale const *)
PUBLIC be680 0 QVariantComparator<`anonymous namespace'::CoreTypesFilter>::delegate<QModelIndex>(QModelIndex const *)
PUBLIC be6c0 0 QVariantConstructor<`anonymous namespace'::CoreTypesFilter>::delegate<QModelIndex>(QModelIndex const *)
PUBLIC be6f0 0 QVariantDebugStream<`anonymous namespace'::CoreTypesFilter>::delegate<QModelIndex>(QModelIndex const *)
PUBLIC be780 0 QVariantDebugStream<`anonymous namespace'::CoreTypesFilter>::delegate<QPoint>(QPoint const *)
PUBLIC be810 0 QVariantIsNull<`anonymous namespace'::CoreTypesFilter>::delegate<QPoint>(QPoint const *)
PUBLIC be830 0 QVariantComparator<`anonymous namespace'::CoreTypesFilter>::delegate<QPointF>(QPointF const *)
PUBLIC be890 0 QVariantConstructor<`anonymous namespace'::CoreTypesFilter>::delegate<QPointF>(QPointF const *)
PUBLIC be8c0 0 QVariantDebugStream<`anonymous namespace'::CoreTypesFilter>::delegate<QPointF>(QPointF const *)
PUBLIC be950 0 QVariantIsNull<`anonymous namespace'::CoreTypesFilter>::delegate<QPointF>(QPointF const *)
PUBLIC be9a0 0 QVariantComparator<`anonymous namespace'::CoreTypesFilter>::delegate<QRect>(QRect const *)
PUBLIC be9e0 0 QVariantConstructor<`anonymous namespace'::CoreTypesFilter>::delegate<QRect>(QRect const *)
PUBLIC bea10 0 QVariantDebugStream<`anonymous namespace'::CoreTypesFilter>::delegate<QRect>(QRect const *)
PUBLIC beaa0 0 QVariantIsNull<`anonymous namespace'::CoreTypesFilter>::delegate<QRect>(QRect const *)
PUBLIC bead0 0 QVariantConstructor<`anonymous namespace'::CoreTypesFilter>::delegate<QLineF>(QLineF const *)
PUBLIC beb00 0 QVariantDebugStream<`anonymous namespace'::CoreTypesFilter>::delegate<QRectF>(QRectF const *)
PUBLIC beb90 0 QVariantIsNull<`anonymous namespace'::CoreTypesFilter>::delegate<QRectF>(QRectF const *)
PUBLIC bebd0 0 QVariantDebugStream<`anonymous namespace'::CoreTypesFilter>::delegate<QRegExp>(QRegExp const *)
PUBLIC bec60 0 QVariantDebugStream<`anonymous namespace'::CoreTypesFilter>::delegate<QRegularExpression>(QRegularExpression const *)
PUBLIC becf0 0 QVariantConstructor<`anonymous namespace'::CoreTypesFilter>::delegate<QSize>(QSize const *)
PUBLIC bed50 0 QVariantDebugStream<`anonymous namespace'::CoreTypesFilter>::delegate<QSize>(QSize const *)
PUBLIC bede0 0 QVariantComparator<`anonymous namespace'::CoreTypesFilter>::delegate<QSizeF>(QSizeF const *)
PUBLIC beed0 0 QVariantConstructor<`anonymous namespace'::CoreTypesFilter>::delegate<QSizeF>(QSizeF const *)
PUBLIC bef00 0 QVariantDebugStream<`anonymous namespace'::CoreTypesFilter>::delegate<QSizeF>(QSizeF const *)
PUBLIC bef90 0 QVariantDebugStream<`anonymous namespace'::CoreTypesFilter>::delegate<QString>(QString const *)
PUBLIC befb0 0 QVariantDestructor<`anonymous namespace'::CoreTypesFilter>::delegate<QString>(QString const *)
PUBLIC befe0 0 QVariantConstructor<`anonymous namespace'::CoreTypesFilter>::delegate<QStringList>(QStringList const *)
PUBLIC bf070 0 QVariantDebugStream<`anonymous namespace'::CoreTypesFilter>::delegate<QStringList>(QStringList const *)
PUBLIC bf100 0 QVariantDestructor<`anonymous namespace'::CoreTypesFilter>::delegate<QStringList>(QStringList const *)
PUBLIC bf150 0 QVariantConstructor<`anonymous namespace'::CoreTypesFilter>::delegate<QTime>(QTime const *)
PUBLIC bf1a0 0 QVariantDebugStream<`anonymous namespace'::CoreTypesFilter>::delegate<QTime>(QTime const *)
PUBLIC bf230 0 QVariantDebugStream<`anonymous namespace'::CoreTypesFilter>::delegate<QUrl>(QUrl const *)
PUBLIC bf2c0 0 QVariantConstructor<`anonymous namespace'::CoreTypesFilter>::delegate<QUuid>(QUuid const *)
PUBLIC bf2f0 0 QVariantDebugStream<`anonymous namespace'::CoreTypesFilter>::delegate<QUuid>(QUuid const *)
PUBLIC bf380 0 QVariantComparator<`anonymous namespace'::CoreTypesFilter>::delegate<QVariant>(QVariant const *)
PUBLIC bf3a0 0 QVariantConstructor<`anonymous namespace'::CoreTypesFilter>::delegate<QVariant>(QVariant const *)
PUBLIC bf3d0 0 QVariantDebugStream<`anonymous namespace'::CoreTypesFilter>::delegate<QVariant>(QVariant const *)
PUBLIC bf460 0 QVariantDestructor<`anonymous namespace'::CoreTypesFilter>::delegate<QVariant>(QVariant const *)
PUBLIC bf480 0 QVariantConstructor<`anonymous namespace'::CoreTypesFilter>::delegate<QPoint>(QPoint const *)
PUBLIC bf4e0 0 QVariantDebugStream<`anonymous namespace'::CoreTypesFilter>::delegate<__int64>(__int64 const *)
PUBLIC bf560 0 QVariantComparator<`anonymous namespace'::CoreTypesFilter>::delegate<QDate>(QDate const *)
PUBLIC bf580 0 QVariantDebugStream<`anonymous namespace'::CoreTypesFilter>::delegate<unsigned __int64>(unsigned __int64 const *)
PUBLIC bf600 0 QVariantConstructor<`anonymous namespace'::CoreTypesFilter>::delegate<signed char>(signed char const *)
PUBLIC bf650 0 QVariantDebugStream<`anonymous namespace'::CoreTypesFilter>::delegate<bool>(bool const *)
PUBLIC bf6e0 0 QtMetaTypePrivate::QPairVariantInterfaceImpl::getSecondImpl<QPair<QVariant,QVariant> >(void const * const *,int,unsigned int)
PUBLIC bf700 0 qNumVariantToHelper<int>(QVariant::Private const &,`anonymous namespace'::HandlersManager const &,bool *,int const &)
PUBLIC bf7c0 0 qNumVariantToHelper<unsigned int>(QVariant::Private const &,`anonymous namespace'::HandlersManager const &,bool *,unsigned int const &)
PUBLIC bf880 0 qNumVariantToHelper<double>(QVariant::Private const &,`anonymous namespace'::HandlersManager const &,bool *,double const &)
PUBLIC bf940 0 qNumVariantToHelper<__int64>(QVariant::Private const &,`anonymous namespace'::HandlersManager const &,bool *,__int64 const &)
PUBLIC bfa10 0 qNumVariantToHelper<unsigned __int64>(QVariant::Private const &,`anonymous namespace'::HandlersManager const &,bool *,unsigned __int64 const &)
PUBLIC bfae0 0 qRegisterMetaType<QtMetaTypePrivate::QAssociativeIterableImpl>(char const *,QtMetaTypePrivate::QAssociativeIterableImpl *,QtPrivate::MetaTypeDefinedHelper<QtMetaTypePrivate::QAssociativeIterableImpl,1>::DefinedType)
PUBLIC bfbc0 0 qVariantToHelper<QByteArray>(QVariant::Private const &,`anonymous namespace'::HandlersManager const &)
PUBLIC bfd10 0 qVariantToHelper<QDate>(QVariant::Private const &,`anonymous namespace'::HandlersManager const &)
PUBLIC bfde0 0 qVariantToHelper<QDateTime>(QVariant::Private const &,`anonymous namespace'::HandlersManager const &)
PUBLIC bff10 0 qVariantToHelper<QString>(QVariant::Private const &,`anonymous namespace'::HandlersManager const &)
PUBLIC c0060 0 qVariantToHelper<QTime>(QVariant::Private const &,`anonymous namespace'::HandlersManager const &)
PUBLIC c0110 0 qVariantToHelper<QUrl>(QVariant::Private const &,`anonymous namespace'::HandlersManager const &)
PUBLIC c0240 0 `anonymous namespace'::qt_convertToBool<QByteArray,QByteArray>(QVariant::Private const * const)
PUBLIC c03a0 0 `anonymous namespace'::qt_convertToBool<QString,QLatin1String>(QVariant::Private const * const)
PUBLIC c0460 0 QMetaTypeSwitcher::switcher<void,QVariantConstructor<`anonymous namespace'::CoreTypesFilter> >(QVariantConstructor<`anonymous namespace'::CoreTypesFilter> &,int,void const *)
PUBLIC c08a0 0 QMetaTypeSwitcher::switcher<void,QVariantDebugStream<`anonymous namespace'::CoreTypesFilter> >(QVariantDebugStream<`anonymous namespace'::CoreTypesFilter> &,int,void const *)
PUBLIC c0f40 0 QMetaTypeSwitcher::switcher<void,QVariantDestructor<`anonymous namespace'::CoreTypesFilter> >(QVariantDestructor<`anonymous namespace'::CoreTypesFilter> &,int,void const *)
PUBLIC c1140 0 QMetaTypeSwitcher::switcher<bool,QVariantComparator<`anonymous namespace'::CoreTypesFilter> >(QVariantComparator<`anonymous namespace'::CoreTypesFilter> &,int,void const *)
PUBLIC c1510 0 QMetaTypeSwitcher::switcher<bool,QVariantIsNull<`anonymous namespace'::CoreTypesFilter> >(QVariantIsNull<`anonymous namespace'::CoreTypesFilter> &,int,void const *)
PUBLIC c1720 0 QVariantConstructor<`anonymous namespace'::CoreTypesFilter>::CallConstructor<QHash<QString,QVariant>,0>::CallConstructor<QHash<QString,QVariant>,0>(QVariantConstructor<`anonymous namespace'::CoreTypesFilter> const &)
PUBLIC c17f0 0 QVariantConstructor<`anonymous namespace'::CoreTypesFilter>::CallConstructor<QMap<QString,QVariant>,0>::CallConstructor<QMap<QString,QVariant>,0>(QVariantConstructor<`anonymous namespace'::CoreTypesFilter> const &)
PUBLIC c18a0 0 QVariantConstructor<`anonymous namespace'::CoreTypesFilter>::CallConstructor<QJsonArray,0>::CallConstructor<QJsonArray,0>(QVariantConstructor<`anonymous namespace'::CoreTypesFilter> const &)
PUBLIC c1960 0 QVariantConstructor<`anonymous namespace'::CoreTypesFilter>::CallConstructor<QJsonDocument,0>::CallConstructor<QJsonDocument,0>(QVariantConstructor<`anonymous namespace'::CoreTypesFilter> const &)
PUBLIC c1a20 0 QVariantConstructor<`anonymous namespace'::CoreTypesFilter>::CallConstructor<QJsonValue,0>::CallConstructor<QJsonValue,0>(QVariantConstructor<`anonymous namespace'::CoreTypesFilter> const &)
PUBLIC c1ae0 0 QVariantConstructor<`anonymous namespace'::CoreTypesFilter>::CallConstructor<QLine,0>::CallConstructor<QLine,0>(QVariantConstructor<`anonymous namespace'::CoreTypesFilter> const &)
PUBLIC c1b70 0 QVariantConstructor<`anonymous namespace'::CoreTypesFilter>::CallConstructor<QModelIndex,0>::CallConstructor<QModelIndex,0>(QVariantConstructor<`anonymous namespace'::CoreTypesFilter> const &)
PUBLIC c1c00 0 QVariantConstructor<`anonymous namespace'::CoreTypesFilter>::CallConstructor<QPointF,0>::CallConstructor<QPointF,0>(QVariantConstructor<`anonymous namespace'::CoreTypesFilter> const &)
PUBLIC c1c80 0 QVariantConstructor<`anonymous namespace'::CoreTypesFilter>::CallConstructor<QRect,0>::CallConstructor<QRect,0>(QVariantConstructor<`anonymous namespace'::CoreTypesFilter> const &)
PUBLIC c1d10 0 QVariantConstructor<`anonymous namespace'::CoreTypesFilter>::CallConstructor<QLineF,0>::CallConstructor<QLineF,0>(QVariantConstructor<`anonymous namespace'::CoreTypesFilter> const &)
PUBLIC c1da0 0 QVariantConstructor<`anonymous namespace'::CoreTypesFilter>::CallConstructor<QSizeF,0>::CallConstructor<QSizeF,0>(QVariantConstructor<`anonymous namespace'::CoreTypesFilter> const &)
PUBLIC c1e20 0 QVariantConstructor<`anonymous namespace'::CoreTypesFilter>::CallConstructor<QUuid,0>::CallConstructor<QUuid,0>(QVariantConstructor<`anonymous namespace'::CoreTypesFilter> const &)
PUBLIC c1eb0 0 QVariantConstructor<`anonymous namespace'::CoreTypesFilter>::CallConstructor<QVariant,0>::CallConstructor<QVariant,0>(QVariantConstructor<`anonymous namespace'::CoreTypesFilter> const &)
PUBLIC c1f70 0 QVariantDebugStream<`anonymous namespace'::CoreTypesFilter>::Filtered<QByteArray,1>::Filtered<QByteArray,1>(QDebug,QVariant::Private *)
PUBLIC c2020 0 QVariantDebugStream<`anonymous namespace'::CoreTypesFilter>::Filtered<QChar,1>::Filtered<QChar,1>(QDebug,QVariant::Private *)
PUBLIC c20e0 0 QVariantDebugStream<`anonymous namespace'::CoreTypesFilter>::Filtered<QString,1>::Filtered<QString,1>(QDebug,QVariant::Private *)
PUBLIC c2190 0 QVariantConstructor<`anonymous namespace'::CoreTypesFilter>::FilteredConstructor<QDateTime,1>::FilteredConstructor<QDateTime,1>(QVariantConstructor<`anonymous namespace'::CoreTypesFilter> const &)
PUBLIC c2230 0 QVariantConstructor<`anonymous namespace'::CoreTypesFilter>::FilteredConstructor<QEasingCurve,1>::FilteredConstructor<QEasingCurve,1>(QVariantConstructor<`anonymous namespace'::CoreTypesFilter> const &)
PUBLIC c22d0 0 QVariantConstructor<`anonymous namespace'::CoreTypesFilter>::FilteredConstructor<QLocale,1>::FilteredConstructor<QLocale,1>(QVariantConstructor<`anonymous namespace'::CoreTypesFilter> const &)
PUBLIC c2370 0 QVariantConstructor<`anonymous namespace'::CoreTypesFilter>::FilteredConstructor<QRegExp,1>::FilteredConstructor<QRegExp,1>(QVariantConstructor<`anonymous namespace'::CoreTypesFilter> const &)
PUBLIC c2410 0 QVariantConstructor<`anonymous namespace'::CoreTypesFilter>::FilteredConstructor<QRegularExpression,1>::FilteredConstructor<QRegularExpression,1>(QVariantConstructor<`anonymous namespace'::CoreTypesFilter> const &)
PUBLIC c24b0 0 QVariantConstructor<`anonymous namespace'::CoreTypesFilter>::FilteredConstructor<QUrl,1>::FilteredConstructor<QUrl,1>(QVariantConstructor<`anonymous namespace'::CoreTypesFilter> const &)
PUBLIC c2550 0 QList<QVariant>::QList<QVariant>(QList<QVariant> const &)
PUBLIC c2610 0 QMap<QString,QVariant>::QMap<QString,QVariant>(QMap<QString,QVariant> const &)
PUBLIC c2680 0 QtMetaTypePrivate::QAssociativeIterableImpl::QAssociativeIterableImpl()
PUBLIC c26f0 0 QLineF::QLineF(QLine const &)
PUBLIC c2740 0 QRectF::QRectF(QRect const &)
PUBLIC c2790 0 QVariant::QVariant(QVariant const &)
PUBLIC c2860 0 QVariant::QVariant(QDate const &)
PUBLIC c2880 0 QVariant::QVariant(QDateTime const &)
PUBLIC c28e0 0 QVariant::QVariant(QString const &)
PUBLIC c2910 0 QVariant::QVariant(QStringList const &)
PUBLIC c2970 0 QVariant::QVariant(QTime const &)
PUBLIC c2990 0 QVariant::QVariant(QUrl const &)
PUBLIC c29f0 0 QVariant::QVariant(int)
PUBLIC c2a10 0 QVariant::QVariant(int,void const *)
PUBLIC c2a80 0 QVariant::QVariant(int,void const *,unsigned int)
PUBLIC c2b20 0 QVariant::QVariant(unsigned int)
PUBLIC c2b40 0 QVariant::QVariant(char const *)
PUBLIC c2bf0 0 QVariant::QVariant(QChar)
PUBLIC c2c10 0 QVariant::QVariant(__int64)
PUBLIC c2c30 0 QVariant::QVariant(bool)
PUBLIC c2c50 0 QVariantDebugStream<`anonymous namespace'::CoreTypesFilter>::~QVariantDebugStream<`anonymous namespace'::CoreTypesFilter>()
PUBLIC c2c60 0 QVariantDestructor<`anonymous namespace'::CoreTypesFilter>::~QVariantDestructor<`anonymous namespace'::CoreTypesFilter>()
PUBLIC c2c80 0 QBitArray::~QBitArray()
PUBLIC c2cb0 0 QMetaType::~QMetaType()
PUBLIC c2cc0 0 QVariant::~QVariant()
PUBLIC c2d50 0 QList<QVariant>::operator=(QList<QVariant> const &)
PUBLIC c2da0 0 QMap<QString,QVariant>::operator=(QMap<QString,QVariant> const &)
PUBLIC c2e10 0 QVariant::operator=(QVariant const &)
PUBLIC c2eb0 0 operator<<(QDebug,QVariant const &)
PUBLIC c3070 0 QList<QVariant>::operator==(QList<QVariant> const &)
PUBLIC c30e0 0 QMap<QString,QVariant>::operator==(QMap<QString,QVariant> const &)
PUBLIC c31a0 0 operator==(QRectF const &,QRectF const &)
PUBLIC c3340 0 QUuid::operator==(QUuid const &)
PUBLIC c33a0 0 `anonymous namespace'::HandlersManager::operator[](unsigned int)
PUBLIC c33f0 0 QtMetaTypePrivate::QMetaTypeFunctionHelper<QPair<QVariant,QVariant>,1>::Construct(void *,void const *)
PUBLIC c34c0 0 QtMetaTypePrivate::QMetaTypeFunctionHelper<QtMetaTypePrivate::QAssociativeIterableImpl,1>::Construct(void *,void const *)
PUBLIC c3510 0 QtMetaTypePrivate::QMetaTypeFunctionHelper<QPair<QVariant,QVariant>,1>::Create(void const *)
PUBLIC c35e0 0 QtMetaTypePrivate::QMetaTypeFunctionHelper<QtMetaTypePrivate::QAssociativeIterableImpl,1>::Create(void const *)
PUBLIC c3630 0 QtMetaTypePrivate::QMetaTypeFunctionHelper<QPair<QVariant,QVariant>,1>::Delete(void *)
PUBLIC c36a0 0 QtMetaTypePrivate::QMetaTypeFunctionHelper<QPair<QVariant,QVariant>,1>::Destruct(void *)
PUBLIC c3700 0 QVariant::canConvert(int)
PUBLIC c3c50 0 QVariant::clear()
PUBLIC c3cd0 0 QVariant::cmp(QVariant const &)
PUBLIC c3f20 0 QVariant::constData()
PUBLIC c3f40 0 QtPrivate::ConverterFunctor<QPair<QVariant,QVariant>,QtMetaTypePrivate::QPairVariantInterfaceImpl,QtMetaTypePrivate::QPairVariantInterfaceConvertFunctor<QPair<QVariant,QVariant> > >::convert(QtPrivate::AbstractConverterFunction const *,void const *,void *)
PUBLIC c3fa0 0 QVariant::convert(int)
PUBLIC c4120 0 QVariant::convert(int,void *)
PUBLIC c4170 0 QVariant::create(int,void const *)
PUBLIC c41c0 0 QVariant::data()
PUBLIC c41e0 0 QVariantConstructor<`anonymous namespace'::CoreTypesFilter>::delegate(QMetaTypeSwitcher::UnknownType const *)
PUBLIC c4250 0 QVariantConstructor<`anonymous namespace'::CoreTypesFilter>::delegate(void const *)
PUBLIC c42b0 0 QVariantDebugStream<`anonymous namespace'::CoreTypesFilter>::delegate(QMetaTypeSwitcher::UnknownType const *)
PUBLIC c42d0 0 QVariant::detach()
PUBLIC c4380 0 QVariant::isNull()
PUBLIC c43e0 0 QtPrivate::QVariantValueHelper<QObject *>::object(QVariant const &)
PUBLIC c48f0 0 qRound64(float)
PUBLIC c4950 0 qRound64(double)
PUBLIC c49b0 0 QMetaTypeId<QPair<QVariant,QVariant> >::qt_metatype_id()
PUBLIC c4b30 0 QMetaTypeId<QtMetaTypePrivate::QAssociativeIterableImpl>::qt_metatype_id()
PUBLIC c4b50 0 QtPrivate::IsMetaTypePair<QPair<QVariant,QVariant>,1>::registerConverter(int)
PUBLIC c4bd0 0 QVariant::toBool()
PUBLIC c4c30 0 QVariant::toByteArray()
PUBLIC c4c60 0 QVariant::toDate()
PUBLIC c4c80 0 QVariant::toDateTime()
PUBLIC c4cb0 0 QVariant::toDouble(bool *)
PUBLIC c4cd0 0 QVariant::toInt(bool *)
PUBLIC c4cf0 0 QLineF::toLine()
PUBLIC c4e10 0 QVariant::toLongLong(bool *)
PUBLIC c4e30 0 QRectF::toRect()
PUBLIC c4f40 0 QPointF::toPoint()
PUBLIC c4fe0 0 QVariant::toString()
PUBLIC c5010 0 QVariant::toTime()
PUBLIC c5030 0 QVariant::toUInt(bool *)
PUBLIC c5050 0 QVariant::toULongLong(bool *)
PUBLIC c5070 0 QVariant::toUrl()
PUBLIC c50a0 0 QVariant::type()
PUBLIC c50c0 0 QVariant::typeName()
PUBLIC c50e0 0 QVariant::userType()
PUBLIC c50f0 0 QtSharedPointer::ExternalRefCountData::checkQObjectShared(QObject const *)
PUBLIC c5130 0 QtSharedPointer::ExternalRefCountData::getAndRef(QObject const *)
PUBLIC c5190 0 QFreeListElement<QMutexPrivate>::QFreeListElement<QMutexPrivate>()
PUBLIC c51b0 0 QMutex::QMutex(QMutex::RecursionMode)
PUBLIC c5250 0 QMutexPrivate::QMutexPrivate()
PUBLIC c52c0 0 QRecursiveMutexPrivate::QRecursiveMutexPrivate()
PUBLIC c52e0 0 QFreeList<QMutexPrivate,`anonymous namespace'::FreeListConstants>::~QFreeList<QMutexPrivate,`anonymous namespace'::FreeListConstants>()
PUBLIC c5320 0 QFreeListElement<QMutexPrivate>::~QFreeListElement<QMutexPrivate>()
PUBLIC c5330 0 QMutex::~QMutex()
PUBLIC c53c0 0 QFreeList<QMutexPrivate,`anonymous namespace'::FreeListConstants>::allocate(int,int)
PUBLIC c5540 0 QMutexPrivate::allocate()
PUBLIC c55b0 0 QMutexPrivate::deref()
PUBLIC c55f0 0 QMutexPrivate::derefWaiters(int)
PUBLIC c5620 0 A0xfc25ee47::`anonymous namespace'::Q_QGS_freelist::innerFunction()
PUBLIC c5700 0 QBasicMutex::isRecursive()
PUBLIC c5710 0 QMutex::lock()
PUBLIC c5780 0 QRecursiveMutexPrivate::lock(int)
PUBLIC c57f0 0 QBasicMutex::lockInternal(int)
PUBLIC c59d0 0 QFreeList<QMutexPrivate,`anonymous namespace'::FreeListConstants>::next()
PUBLIC c5aa0 0 QFreeList<QMutexPrivate,`anonymous namespace'::FreeListConstants>::release(int)
PUBLIC c5b10 0 QMutexPrivate::release()
PUBLIC c5b40 0 QMutex::tryLock(int)
PUBLIC c5b80 0 QMutex::unlock()
PUBLIC c5bd0 0 QBasicMutex::unlockInternal()
PUBLIC c5c60 0 QMutexPrivate::wait(int)
PUBLIC c5d20 0 QHashData::allocateNode(int)
PUBLIC c5db0 0 QHashData::detach_helper(void (*)(QHashData::Node *,void *),void (*)(QHashData::Node *),int,int)
PUBLIC c5fa0 0 QHashData::freeNode(void *)
PUBLIC c5fc0 0 QHashData::free_helper(void (*)(QHashData::Node *))
PUBLIC c6100 0 QHashData::nextNode(QHashData::Node *)
PUBLIC c6140 0 QHashData::previousNode(QHashData::Node *)
PUBLIC c61a0 0 qHash(QByteArray const &,unsigned int)
PUBLIC c61c0 0 qHash(QString const &,unsigned int)
PUBLIC c62c0 0 qt_hash(QString const &)
PUBLIC c6300 0 qt_hash(QStringRef const &)
PUBLIC c6360 0 QHashData::rehash(int)
PUBLIC c64c0 0 QMapDataBase::createData()
PUBLIC c6500 0 QMapDataBase::createNode(int,int,QMapNodeBase *,bool)
PUBLIC c6580 0 QMapDataBase::freeNodeAndRebalance(QMapNodeBase *)
PUBLIC c67f0 0 QMapDataBase::freeTree(QMapNodeBase *,int)
PUBLIC c6840 0 QMapNodeBase::nextNode()
PUBLIC c6880 0 QMapNodeBase::previousNode()
PUBLIC c68c0 0 QMapDataBase::rebalance(QMapNodeBase *)
PUBLIC c6a70 0 QMapDataBase::recalcMostLeftNode()
PUBLIC c6a90 0 QMapDataBase::rotateLeft(QMapNodeBase *)
PUBLIC c6b10 0 QMapDataBase::rotateRight(QMapNodeBase *)
PUBLIC c6b90 0 QStringBuilder<QStringBuilder<char const [5],QByteArray>,char>::convertTo<QByteArray>()
PUBLIC c6c50 0 QStringBuilder<QStringBuilder<QByteArray,char const [3]>,char const *>::convertTo<QByteArray>()
PUBLIC c77d0 0 QStringBuilder<QStringBuilder<char const [5],QByteArray>,char>::operator QByteArray()
PUBLIC c77f0 0 QStringBuilder<QStringBuilder<QByteArray,char const [3]>,char const *>::operator QByteArray()
PUBLIC c78d0 0 QVarLengthArray<char,512>::append(char const *,int)
PUBLIC c7ab0 0 QMetaObject::cast(QObject *)
PUBLIC c7ae0 0 QMetaObjectPrivate::checkConnectArgs(int,QArgumentType const *,int,QArgumentType const *)
PUBLIC c7b50 0 QMetaObject::className()
PUBLIC c7ba0 0 QMetaObjectPrivate::decodeMethodSignature(char const *,QVarLengthArray<QArgumentType,10> &)
PUBLIC c7c20 0 QMetaObject::enumerator(int)
PUBLIC c7f30 0 QMetaMethod::fromSignalImpl(QMetaObject const *,void * *)
PUBLIC c7fb0 0 QMetaObject::indexOfEnumerator(char const *)
PUBLIC c80a0 0 QMetaObject::indexOfMethod(char const *)
PUBLIC c81a0 0 QMetaObjectPrivate::indexOfMethod(QMetaObject const *,QByteArray const &,int,QArgumentType const *)
PUBLIC c81f0 0 QMetaObject::indexOfProperty(char const *)
PUBLIC c8320 0 QMetaObject::indexOfSignal(char const *)
PUBLIC c8420 0 QMetaObjectPrivate::indexOfSignalRelative(QMetaObject const * *,QByteArray const &,int,QArgumentType const *)
PUBLIC c8430 0 QMetaObjectPrivate::indexOfSlotRelative(QMetaObject const * *,QByteArray const &,int,QArgumentType const *)
PUBLIC c8440 0 QMetaMethod::invoke(QObject *,Qt::ConnectionType,QGenericReturnArgument,QGenericArgument,QGenericArgument,QGenericArgument,QGenericArgument,QGenericArgument,QGenericArgument,QGenericArgument,QGenericArgument,QGenericArgument,QGenericArgument)
PUBLIC c8a90 0 QMetaObject::invokeMethod(QObject *,char const *,Qt::ConnectionType,QGenericReturnArgument,QGenericArgument,QGenericArgument,QGenericArgument,QGenericArgument,QGenericArgument,QGenericArgument,QGenericArgument,QGenericArgument,QGenericArgument,QGenericArgument)
PUBLIC c8f80 0 QMetaProperty::isEnumType()
PUBLIC c8fd0 0 QMetaProperty::isFlagType()
PUBLIC c9030 0 QMetaEnum::isValid()
PUBLIC c9060 0 QMetaEnum::keyToValue(char const *,bool *)
PUBLIC c9280 0 QMetaEnum::keysToValue(char const *,bool *)
PUBLIC c9660 0 QMetaObject::metacall(QObject *,QMetaObject::Call,int,void * *)
PUBLIC c9690 0 QMetaObject::method(int)
PUBLIC c9700 0 QMetaObject::methodCount()
PUBLIC c9720 0 QMetaObject::methodOffset()
PUBLIC c9740 0 QMetaMethod::methodSignature()
PUBLIC c9770 0 QMetaMethod::name()
PUBLIC c97a0 0 QMetaMethodPrivate::name()
PUBLIC c97d0 0 QMetaProperty::name()
PUBLIC c9fb0 0 QMetaObject::normalizedSignature(char const *)
PUBLIC ca180 0 QMetaObject::normalizedType(char const *)
PUBLIC ca370 0 QMetaObjectPrivate::originalClone(QMetaObject const *,int)
PUBLIC ca3a0 0 QMetaMethod::parameterTypes()
PUBLIC ca3d0 0 QMetaMethodPrivate::parameterTypes()
PUBLIC ca4f0 0 QMetaObject::property(int)
PUBLIC ca690 0 QMetaObject::propertyOffset()
PUBLIC caa60 0 QMetaProperty::read(QObject const *)
PUBLIC cad90 0 QVarLengthArray<char,512>::realloc(int,int)
PUBLIC cae30 0 QMetaMethod::returnType()
PUBLIC cae60 0 QMetaObjectPrivate::signal(QMetaObject const *,int)
PUBLIC caee0 0 QMetaObjectPrivate::signalOffset(QMetaObject const *)
PUBLIC caf00 0 QMetaMethodPrivate::signature()
PUBLIC cb090 0 QMetaObject::tr(char const *,char const *,int)
PUBLIC cb1b0 0 QMetaMethod::typeName()
PUBLIC cb270 0 QMetaProperty::write(QObject *,QVariant const &)
PUBLIC cb580 0 `anonymous namespace'::TypeInfo::delegate<signed char>(signed char const *)
PUBLIC cb5f0 0 `anonymous namespace'::TypeCreator::delegate<signed char>(signed char const *)
PUBLIC cb620 0 `anonymous namespace'::TypeCreator::delegate<short>(short const *)
PUBLIC cb660 0 `anonymous namespace'::TypeInfo::delegate<short>(short const *)
PUBLIC cb6d0 0 `anonymous namespace'::TypeCreator::delegate<int>(int const *)
PUBLIC cb710 0 `anonymous namespace'::TypeInfo::delegate<int>(int const *)
PUBLIC cb780 0 `anonymous namespace'::TypeCreator::delegate<double>(double const *)
PUBLIC cb7c0 0 `anonymous namespace'::TypeInfo::delegate<double>(double const *)
PUBLIC cb830 0 `anonymous namespace'::TypeInfo::delegate<QObject *>(QObject * const *)
PUBLIC cb8a0 0 `anonymous namespace'::TypeDestroyer::delegate<QHash<QString,QVariant> >(QHash<QString,QVariant> const *)
PUBLIC cb8e0 0 `anonymous namespace'::TypeDestructor::delegate<QHash<QString,QVariant> >(QHash<QString,QVariant> const *)
PUBLIC cb920 0 `anonymous namespace'::TypeInfo::delegate<QHash<QString,QVariant> >(QHash<QString,QVariant> const *)
PUBLIC cb990 0 `anonymous namespace'::TypeDestructor::delegate<QList<QByteArray> >(QList<QByteArray> const *)
PUBLIC cb9e0 0 `anonymous namespace'::TypeInfo::delegate<QList<QByteArray> >(QList<QByteArray> const *)
PUBLIC cba50 0 `anonymous namespace'::TypeDestroyer::delegate<QList<QVariant> >(QList<QVariant> const *)
PUBLIC cba90 0 `anonymous namespace'::TypeDestructor::delegate<QList<QVariant> >(QList<QVariant> const *)
PUBLIC cbac0 0 `anonymous namespace'::TypeInfo::delegate<QList<QVariant> >(QList<QVariant> const *)
PUBLIC cbb30 0 `anonymous namespace'::TypeDestroyer::delegate<QMap<QString,QVariant> >(QMap<QString,QVariant> const *)
PUBLIC cbb90 0 `anonymous namespace'::TypeDestructor::delegate<QMap<QString,QVariant> >(QMap<QString,QVariant> const *)
PUBLIC cbbe0 0 `anonymous namespace'::TypeInfo::delegate<QMap<QString,QVariant> >(QMap<QString,QVariant> const *)
PUBLIC cbc50 0 `anonymous namespace'::TypeCreator::delegate<QBitArray>(QBitArray const *)
PUBLIC cbcb0 0 `anonymous namespace'::TypeDestroyer::delegate<QBitArray>(QBitArray const *)
PUBLIC cbcf0 0 `anonymous namespace'::TypeCreator::delegate<QBitmap>(QBitmap const *)
PUBLIC cbd20 0 `anonymous namespace'::TypeDestructor::delegate<QBitArray>(QBitArray const *)
PUBLIC cbd50 0 `anonymous namespace'::TypeInfo::delegate<QBitArray>(QBitArray const *)
PUBLIC cbdc0 0 `anonymous namespace'::TypeInfo::delegate<QChar>(QChar const *)
PUBLIC cbe30 0 `anonymous namespace'::TypeCreator::delegate<QDate>(QDate const *)
PUBLIC cbe70 0 `anonymous namespace'::TypeInfo::delegate<QDate>(QDate const *)
PUBLIC cbee0 0 `anonymous namespace'::TypeDestroyer::delegate<QDateTime>(QDateTime const *)
PUBLIC cbf00 0 `anonymous namespace'::TypeInfo::delegate<QDateTime>(QDateTime const *)
PUBLIC cbf70 0 `anonymous namespace'::TypeDestroyer::delegate<QEasingCurve>(QEasingCurve const *)
PUBLIC cbf90 0 `anonymous namespace'::TypeInfo::delegate<QEasingCurve>(QEasingCurve const *)
PUBLIC cc000 0 `anonymous namespace'::TypeDestroyer::delegate<QBitmap>(QBitmap const *)
PUBLIC cc020 0 `anonymous namespace'::TypeDestroyer::delegate<QJsonArray>(QJsonArray const *)
PUBLIC cc040 0 `anonymous namespace'::TypeInfo::delegate<QJsonDocument>(QJsonDocument const *)
PUBLIC cc0b0 0 `anonymous namespace'::TypeInfo::delegate<QJsonArray>(QJsonArray const *)
PUBLIC cc120 0 `anonymous namespace'::TypeDestroyer::delegate<QJsonValue>(QJsonValue const *)
PUBLIC cc140 0 `anonymous namespace'::TypeInfo::delegate<QJsonValue>(QJsonValue const *)
PUBLIC cc1b0 0 `anonymous namespace'::TypeInfo::delegate<QBitmap>(QBitmap const *)
PUBLIC cc1f0 0 `anonymous namespace'::TypeCreator::delegate<QLine>(QLine const *)
PUBLIC cc240 0 `anonymous namespace'::TypeInfo::delegate<QLine>(QLine const *)
PUBLIC cc2b0 0 `anonymous namespace'::TypeCreator::delegate<QLineF>(QLineF const *)
PUBLIC cc300 0 `anonymous namespace'::TypeDestroyer::delegate<QLocale>(QLocale const *)
PUBLIC cc320 0 `anonymous namespace'::TypeInfo::delegate<QLocale>(QLocale const *)
PUBLIC cc390 0 `anonymous namespace'::Flags::delegate<QBitmap>(QBitmap const *)
PUBLIC cc3b0 0 `anonymous namespace'::TypeCreator::delegate<QModelIndex>(QModelIndex const *)
PUBLIC cc400 0 `anonymous namespace'::TypeInfo::delegate<QModelIndex>(QModelIndex const *)
PUBLIC cc470 0 `anonymous namespace'::TypeCreator::delegate<QPoint>(QPoint const *)
PUBLIC cc4b0 0 `anonymous namespace'::TypeInfo::delegate<QPoint>(QPoint const *)
PUBLIC cc520 0 `anonymous namespace'::TypeCreator::delegate<QPointF>(QPointF const *)
PUBLIC cc560 0 `anonymous namespace'::TypeInfo::delegate<QPointF>(QPointF const *)
PUBLIC cc5d0 0 `anonymous namespace'::TypeCreator::delegate<QRect>(QRect const *)
PUBLIC cc620 0 `anonymous namespace'::TypeInfo::delegate<QRect>(QRect const *)
PUBLIC cc690 0 `anonymous namespace'::TypeInfo::delegate<QLineF>(QLineF const *)
PUBLIC cc700 0 `anonymous namespace'::TypeDestroyer::delegate<QRegExp>(QRegExp const *)
PUBLIC cc720 0 `anonymous namespace'::TypeInfo::delegate<QRegExp>(QRegExp const *)
PUBLIC cc790 0 `anonymous namespace'::SizeOf::delegate<QBitmap>(QBitmap const *)
PUBLIC cc7b0 0 `anonymous namespace'::TypeDestroyer::delegate<QRegularExpression>(QRegularExpression const *)
PUBLIC cc7d0 0 `anonymous namespace'::TypeInfo::delegate<QRegularExpression>(QRegularExpression const *)
PUBLIC cc840 0 `anonymous namespace'::TypeCreator::delegate<QSize>(QSize const *)
PUBLIC cc880 0 `anonymous namespace'::TypeInfo::delegate<QSize>(QSize const *)
PUBLIC cc8f0 0 `anonymous namespace'::TypeCreator::delegate<QSizeF>(QSizeF const *)
PUBLIC cc930 0 `anonymous namespace'::TypeInfo::delegate<QSizeF>(QSizeF const *)
PUBLIC cc9a0 0 `anonymous namespace'::Flags::delegate<QSizePolicy>(QSizePolicy const *)
PUBLIC cc9c0 0 `anonymous namespace'::SizeOf::delegate<QSizePolicy>(QSizePolicy const *)
PUBLIC cc9e0 0 `anonymous namespace'::TypeCreator::delegate<QSizePolicy>(QSizePolicy const *)
PUBLIC cca10 0 `anonymous namespace'::TypeDestroyer::delegate<QSizePolicy>(QSizePolicy const *)
PUBLIC cca30 0 `anonymous namespace'::TypeDestructor::delegate<QSizePolicy>(QSizePolicy const *)
PUBLIC cca50 0 `anonymous namespace'::TypeInfo::delegate<QSizePolicy>(QSizePolicy const *)
PUBLIC cca90 0 `anonymous namespace'::TypeDestroyer::delegate<QString>(QString const *)
PUBLIC ccad0 0 `anonymous namespace'::TypeDestructor::delegate<QString>(QString const *)
PUBLIC ccb00 0 `anonymous namespace'::TypeInfo::delegate<QString>(QString const *)
PUBLIC ccb70 0 `anonymous namespace'::TypeDestructor::delegate<QStringList>(QStringList const *)
PUBLIC ccbc0 0 `anonymous namespace'::TypeInfo::delegate<QStringList>(QStringList const *)
PUBLIC ccc30 0 `anonymous namespace'::TypeCreator::delegate<QTime>(QTime const *)
PUBLIC ccc70 0 `anonymous namespace'::TypeInfo::delegate<QTime>(QTime const *)
PUBLIC ccce0 0 `anonymous namespace'::TypeDestructor::delegate<QBitmap>(QBitmap const *)
PUBLIC ccd00 0 `anonymous namespace'::TypeDestroyer::delegate<QUrl>(QUrl const *)
PUBLIC ccd20 0 `anonymous namespace'::TypeInfo::delegate<QUrl>(QUrl const *)
PUBLIC ccd90 0 `anonymous namespace'::TypeCreator::delegate<QUuid>(QUuid const *)
PUBLIC ccde0 0 `anonymous namespace'::TypeInfo::delegate<QUuid>(QUuid const *)
PUBLIC cce50 0 `anonymous namespace'::TypeDestroyer::delegate<QVariant>(QVariant const *)
PUBLIC cce70 0 `anonymous namespace'::TypeInfo::delegate<QVariant>(QVariant const *)
PUBLIC ccee0 0 `anonymous namespace'::TypeInfo::delegate<void>(void const *)
PUBLIC ccf50 0 `anonymous namespace'::TypeInfo::delegate<__int64>(__int64 const *)
PUBLIC cd1e0 0 QMetaTypeSwitcher::switcher<int,`anonymous namespace'::SizeOf>(`anonymous namespace'::SizeOf &,int,void const *)
PUBLIC cd490 0 QMetaTypeSwitcher::switcher<unsigned int,`anonymous namespace'::Flags>(`anonymous namespace'::Flags &,int,void const *)
PUBLIC cd730 0 QMetaTypeSwitcher::switcher<void *,`anonymous namespace'::TypeCreator>(`anonymous namespace'::TypeCreator &,int,void const *)
PUBLIC cdd50 0 QMetaTypeSwitcher::switcher<void,`anonymous namespace'::TypeDestroyer>(`anonymous namespace'::TypeDestroyer &,int,void const *)
PUBLIC ce120 0 QMetaTypeSwitcher::switcher<void,`anonymous namespace'::TypeDestructor>(`anonymous namespace'::TypeDestructor &,int,void const *)
PUBLIC ce4b0 0 QMetaTypeSwitcher::switcher<void,`anonymous namespace'::TypeInfo>(`anonymous namespace'::TypeInfo &,int,void const *)
PUBLIC cea90 0 QCustomTypeInfo::QCustomTypeInfo()
PUBLIC ceb10 0 QMetaType::QMetaType(int)
PUBLIC cebb0 0 QMetaTypeFunctionRegistry<QtPrivate::AbstractComparatorFunction,int>::~QMetaTypeFunctionRegistry<QtPrivate::AbstractComparatorFunction,int>()
PUBLIC ced20 0 QCustomTypeInfo::~QCustomTypeInfo()
PUBLIC ced50 0 QHash<QPair<int,int>,QtPrivate::AbstractConverterFunction const *>::operator[](QPair<int,int> const &)
PUBLIC cee40 0 QtMetaTypePrivate::QMetaTypeFunctionHelper<short,1>::Construct(void *,void const *)
PUBLIC cee70 0 QtMetaTypePrivate::QMetaTypeFunctionHelper<double,1>::Construct(void *,void const *)
PUBLIC cee90 0 QtMetaTypePrivate::QMetaTypeFunctionHelper<QHash<QString,QVariant>,1>::Construct(void *,void const *)
PUBLIC cef60 0 QtMetaTypePrivate::QMetaTypeFunctionHelper<QList<QByteArray>,1>::Construct(void *,void const *)
PUBLIC cf000 0 QtMetaTypePrivate::QMetaTypeFunctionHelper<QList<QVariant>,1>::Construct(void *,void const *)
PUBLIC cf090 0 QtMetaTypePrivate::QMetaTypeFunctionHelper<QMap<QString,QVariant>,1>::Construct(void *,void const *)
PUBLIC cf120 0 QtMetaTypePrivate::QMetaTypeFunctionHelper<QChar,1>::Construct(void *,void const *)
PUBLIC cf150 0 QtMetaTypePrivate::QMetaTypeFunctionHelper<QDate,1>::Construct(void *,void const *)
PUBLIC cf190 0 QtMetaTypePrivate::QMetaTypeFunctionHelper<QDateTime,1>::Construct(void *,void const *)
PUBLIC cf220 0 QtMetaTypePrivate::QMetaTypeFunctionHelper<QEasingCurve,1>::Construct(void *,void const *)
PUBLIC cf2b0 0 QtMetaTypePrivate::QMetaTypeFunctionHelper<QJsonArray,1>::Construct(void *,void const *)
PUBLIC cf340 0 QtMetaTypePrivate::QMetaTypeFunctionHelper<QJsonValue,1>::Construct(void *,void const *)
PUBLIC cf3d0 0 QtMetaTypePrivate::QMetaTypeFunctionHelper<QLine,1>::Construct(void *,void const *)
PUBLIC cf410 0 QtMetaTypePrivate::QMetaTypeFunctionHelper<QLocale,1>::Construct(void *,void const *)
PUBLIC cf4a0 0 QtMetaTypePrivate::QMetaTypeFunctionHelper<QModelIndex,1>::Construct(void *,void const *)
PUBLIC cf4e0 0 QtMetaTypePrivate::QMetaTypeFunctionHelper<QPoint,1>::Construct(void *,void const *)
PUBLIC cf520 0 QtMetaTypePrivate::QMetaTypeFunctionHelper<QPointF,1>::Construct(void *,void const *)
PUBLIC cf550 0 QtMetaTypePrivate::QMetaTypeFunctionHelper<QRect,1>::Construct(void *,void const *)
PUBLIC cf590 0 QtMetaTypePrivate::QMetaTypeFunctionHelper<QLineF,1>::Construct(void *,void const *)
PUBLIC cf5d0 0 QtMetaTypePrivate::QMetaTypeFunctionHelper<QRegExp,1>::Construct(void *,void const *)
PUBLIC cf660 0 QtMetaTypePrivate::QMetaTypeFunctionHelper<QRegularExpression,1>::Construct(void *,void const *)
PUBLIC cf6f0 0 QtMetaTypePrivate::QMetaTypeFunctionHelper<QSize,1>::Construct(void *,void const *)
PUBLIC cf730 0 QtMetaTypePrivate::QMetaTypeFunctionHelper<QSizeF,1>::Construct(void *,void const *)
PUBLIC cf760 0 QtMetaTypePrivate::QMetaTypeFunctionHelper<QBitArray,1>::Construct(void *,void const *)
PUBLIC cf7b0 0 QtMetaTypePrivate::QMetaTypeFunctionHelper<QStringList,1>::Construct(void *,void const *)
PUBLIC cf850 0 QtMetaTypePrivate::QMetaTypeFunctionHelper<QTime,1>::Construct(void *,void const *)
PUBLIC cf880 0 QtMetaTypePrivate::QMetaTypeFunctionHelper<QJsonDocument,1>::Construct(void *,void const *)
PUBLIC cf910 0 QtMetaTypePrivate::QMetaTypeFunctionHelper<QUuid,1>::Construct(void *,void const *)
PUBLIC cf950 0 QtMetaTypePrivate::QMetaTypeFunctionHelper<QVariant,1>::Construct(void *,void const *)
PUBLIC cf9e0 0 QtMetaTypePrivate::QMetaTypeFunctionHelper<void,0>::Construct(void *,void const *)
PUBLIC cf9f0 0 QtMetaTypePrivate::QMetaTypeFunctionHelper<__int64,1>::Construct(void *,void const *)
PUBLIC cfa20 0 QtMetaTypePrivate::QMetaTypeFunctionHelper<signed char,1>::Construct(void *,void const *)
PUBLIC cfa50 0 `anonymous namespace'::TypeCreator::CreatorImpl<QHash<QString,QVariant>,1>::Create(int,void const *)
PUBLIC cfb20 0 `anonymous namespace'::TypeCreator::CreatorImpl<QList<QByteArray>,1>::Create(int,void const *)
PUBLIC cfbb0 0 `anonymous namespace'::TypeCreator::CreatorImpl<QList<QVariant>,1>::Create(int,void const *)
PUBLIC cfc40 0 `anonymous namespace'::TypeCreator::CreatorImpl<QMap<QString,QVariant>,1>::Create(int,void const *)
PUBLIC cfcd0 0 `anonymous namespace'::TypeCreator::CreatorImpl<QDateTime,1>::Create(int,void const *)
PUBLIC cfd70 0 `anonymous namespace'::TypeCreator::CreatorImpl<QEasingCurve,1>::Create(int,void const *)
PUBLIC cfe10 0 `anonymous namespace'::TypeCreator::CreatorImpl<QJsonArray,1>::Create(int,void const *)
PUBLIC cfeb0 0 `anonymous namespace'::TypeCreator::CreatorImpl<QJsonDocument,1>::Create(int,void const *)
PUBLIC cff50 0 `anonymous namespace'::TypeCreator::CreatorImpl<QJsonValue,1>::Create(int,void const *)
PUBLIC cfff0 0 `anonymous namespace'::TypeCreator::CreatorImpl<QLocale,1>::Create(int,void const *)
PUBLIC d0090 0 `anonymous namespace'::TypeCreator::CreatorImpl<QRegExp,1>::Create(int,void const *)
PUBLIC d0130 0 `anonymous namespace'::TypeCreator::CreatorImpl<QRegularExpression,1>::Create(int,void const *)
PUBLIC d01d0 0 `anonymous namespace'::TypeCreator::CreatorImpl<QStringList,1>::Create(int,void const *)
PUBLIC d0280 0 `anonymous namespace'::TypeCreator::CreatorImpl<QVariant,1>::Create(int,void const *)
PUBLIC d0310 0 QtMetaTypePrivate::QMetaTypeFunctionHelper<signed char,1>::Create(void const *)
PUBLIC d0340 0 QtMetaTypePrivate::QMetaTypeFunctionHelper<int,1>::Create(void const *)
PUBLIC d0370 0 QtMetaTypePrivate::QMetaTypeFunctionHelper<double,1>::Create(void const *)
PUBLIC d03b0 0 QtMetaTypePrivate::QMetaTypeFunctionHelper<QHash<QString,QVariant>,1>::Create(void const *)
PUBLIC d0480 0 QtMetaTypePrivate::QMetaTypeFunctionHelper<QList<QByteArray>,1>::Create(void const *)
PUBLIC d0510 0 QtMetaTypePrivate::QMetaTypeFunctionHelper<QList<QVariant>,1>::Create(void const *)
PUBLIC d05a0 0 QtMetaTypePrivate::QMetaTypeFunctionHelper<QMap<QString,QVariant>,1>::Create(void const *)
PUBLIC d0630 0 QtMetaTypePrivate::QMetaTypeFunctionHelper<QBitArray,1>::Create(void const *)
PUBLIC d0680 0 QtMetaTypePrivate::QMetaTypeFunctionHelper<short,1>::Create(void const *)
PUBLIC d06b0 0 QtMetaTypePrivate::QMetaTypeFunctionHelper<QDate,1>::Create(void const *)
PUBLIC d06f0 0 QtMetaTypePrivate::QMetaTypeFunctionHelper<QDateTime,1>::Create(void const *)
PUBLIC d0790 0 QtMetaTypePrivate::QMetaTypeFunctionHelper<QEasingCurve,1>::Create(void const *)
PUBLIC d0830 0 QtMetaTypePrivate::QMetaTypeFunctionHelper<QJsonArray,1>::Create(void const *)
PUBLIC d08d0 0 QtMetaTypePrivate::QMetaTypeFunctionHelper<QJsonValue,1>::Create(void const *)
PUBLIC d0970 0 QtMetaTypePrivate::QMetaTypeFunctionHelper<QLine,1>::Create(void const *)
PUBLIC d09c0 0 QtMetaTypePrivate::QMetaTypeFunctionHelper<QLineF,1>::Create(void const *)
PUBLIC d0a00 0 QtMetaTypePrivate::QMetaTypeFunctionHelper<QLocale,1>::Create(void const *)
PUBLIC d0aa0 0 QtMetaTypePrivate::QMetaTypeFunctionHelper<QModelIndex,1>::Create(void const *)
PUBLIC d0af0 0 QtMetaTypePrivate::QMetaTypeFunctionHelper<QPointF,1>::Create(void const *)
PUBLIC d0b30 0 QtMetaTypePrivate::QMetaTypeFunctionHelper<QRect,1>::Create(void const *)
PUBLIC d0b80 0 QtMetaTypePrivate::QMetaTypeFunctionHelper<QRegExp,1>::Create(void const *)
PUBLIC d0c20 0 QtMetaTypePrivate::QMetaTypeFunctionHelper<QRegularExpression,1>::Create(void const *)
PUBLIC d0cc0 0 QtMetaTypePrivate::QMetaTypeFunctionHelper<QSize,1>::Create(void const *)
PUBLIC d0d00 0 QtMetaTypePrivate::QMetaTypeFunctionHelper<QSizeF,1>::Create(void const *)
PUBLIC d0d40 0 QtMetaTypePrivate::QMetaTypeFunctionHelper<QStringList,1>::Create(void const *)
PUBLIC d0df0 0 QtMetaTypePrivate::QMetaTypeFunctionHelper<QTime,1>::Create(void const *)
PUBLIC d0e20 0 QtMetaTypePrivate::QMetaTypeFunctionHelper<QJsonDocument,1>::Create(void const *)
PUBLIC d0ec0 0 QtMetaTypePrivate::QMetaTypeFunctionHelper<QUuid,1>::Create(void const *)
PUBLIC d0f00 0 QtMetaTypePrivate::QMetaTypeFunctionHelper<QVariant,1>::Create(void const *)
PUBLIC d0f90 0 QtMetaTypePrivate::QMetaTypeFunctionHelper<QPoint,1>::Create(void const *)
PUBLIC d0fd0 0 QtMetaTypePrivate::QMetaTypeFunctionHelper<signed char,1>::Delete(void *)
PUBLIC d0fe0 0 QtMetaTypePrivate::QMetaTypeFunctionHelper<QHash<QString,QVariant>,1>::Delete(void *)
PUBLIC d1020 0 QtMetaTypePrivate::QMetaTypeFunctionHelper<QList<QByteArray>,1>::Delete(void *)
PUBLIC d1080 0 QtMetaTypePrivate::QMetaTypeFunctionHelper<QList<QVariant>,1>::Delete(void *)
PUBLIC d10c0 0 QtMetaTypePrivate::QMetaTypeFunctionHelper<QMap<QString,QVariant>,1>::Delete(void *)
PUBLIC d1120 0 QtMetaTypePrivate::QMetaTypeFunctionHelper<QBitArray,1>::Delete(void *)
PUBLIC d1160 0 QtMetaTypePrivate::QMetaTypeFunctionHelper<QDateTime,1>::Delete(void *)
PUBLIC d1180 0 QtMetaTypePrivate::QMetaTypeFunctionHelper<QEasingCurve,1>::Delete(void *)
PUBLIC d11a0 0 QtMetaTypePrivate::QMetaTypeFunctionHelper<QJsonArray,1>::Delete(void *)
PUBLIC d11c0 0 QtMetaTypePrivate::QMetaTypeFunctionHelper<QJsonValue,1>::Delete(void *)
PUBLIC d11e0 0 QtMetaTypePrivate::QMetaTypeFunctionHelper<QLocale,1>::Delete(void *)
PUBLIC d1200 0 QtMetaTypePrivate::QMetaTypeFunctionHelper<QRegExp,1>::Delete(void *)
PUBLIC d1220 0 QtMetaTypePrivate::QMetaTypeFunctionHelper<QRegularExpression,1>::Delete(void *)
PUBLIC d1240 0 QtMetaTypePrivate::QMetaTypeFunctionHelper<QString,1>::Delete(void *)
PUBLIC d1280 0 QtMetaTypePrivate::QMetaTypeFunctionHelper<QStringList,1>::Delete(void *)
PUBLIC d12e0 0 QtMetaTypePrivate::QMetaTypeFunctionHelper<QUrl,1>::Delete(void *)
PUBLIC d1300 0 QtMetaTypePrivate::QMetaTypeFunctionHelper<QVariant,1>::Delete(void *)
PUBLIC d1320 0 QtMetaTypePrivate::QMetaTypeFunctionHelper<QHash<QString,QVariant>,1>::Destruct(void *)
PUBLIC d1350 0 QtMetaTypePrivate::QMetaTypeFunctionHelper<QList<QByteArray>,1>::Destruct(void *)
PUBLIC d13a0 0 QtMetaTypePrivate::QMetaTypeFunctionHelper<QList<QVariant>,1>::Destruct(void *)
PUBLIC d13d0 0 QtMetaTypePrivate::QMetaTypeFunctionHelper<QMap<QString,QVariant>,1>::Destruct(void *)
PUBLIC d1420 0 QtMetaTypePrivate::QMetaTypeFunctionHelper<QBitArray,1>::Destruct(void *)
PUBLIC d1450 0 QtMetaTypePrivate::QMetaTypeFunctionHelper<QDateTime,1>::Destruct(void *)
PUBLIC d1460 0 QtMetaTypePrivate::QMetaTypeFunctionHelper<QEasingCurve,1>::Destruct(void *)
PUBLIC d1470 0 QtMetaTypePrivate::QMetaTypeFunctionHelper<QJsonArray,1>::Destruct(void *)
PUBLIC d1480 0 QtMetaTypePrivate::QMetaTypeFunctionHelper<QJsonValue,1>::Destruct(void *)
PUBLIC d1490 0 QtMetaTypePrivate::QMetaTypeFunctionHelper<QLocale,1>::Destruct(void *)
PUBLIC d14a0 0 QtMetaTypePrivate::QMetaTypeFunctionHelper<QRegExp,1>::Destruct(void *)
PUBLIC d14b0 0 QtMetaTypePrivate::QMetaTypeFunctionHelper<QRegularExpression,1>::Destruct(void *)
PUBLIC d14c0 0 QtMetaTypePrivate::QMetaTypeFunctionHelper<QString,1>::Destruct(void *)
PUBLIC d14f0 0 QtMetaTypePrivate::QMetaTypeFunctionHelper<QStringList,1>::Destruct(void *)
PUBLIC d1540 0 QtMetaTypePrivate::QMetaTypeFunctionHelper<QUrl,1>::Destruct(void *)
PUBLIC d1550 0 QtMetaTypePrivate::QMetaTypeFunctionHelper<QVariant,1>::Destruct(void *)
PUBLIC d1560 0 QVector<QCustomTypeInfo>::append(QCustomTypeInfo const &)
PUBLIC d16b0 0 QMetaType::compare(void const *,void const *,int,int *)
PUBLIC d1730 0 QHash<QPair<int,int>,QtPrivate::AbstractConverterFunction const *>::contains(QPair<int,int> const &)
PUBLIC d1790 0 QMetaType::convert(void const *,int,void *,int)
PUBLIC d17e0 0 QMetaType::create(int,void const *)
PUBLIC d1800 0 `anonymous namespace'::TypeDestroyer::customTypeDestroyer(int,void *)
PUBLIC d18f0 0 `anonymous namespace'::TypeDestructor::customTypeDestructor(int,void *)
PUBLIC d19e0 0 `anonymous namespace'::Flags::customTypeFlags(int)
PUBLIC d1ac0 0 `anonymous namespace'::TypeInfo::customTypeInfo(unsigned int)
PUBLIC d1b60 0 `anonymous namespace'::SizeOf::customTypeSizeOf(int)
PUBLIC d1c20 0 QMetaType::debugStream(QDebug &,void const *,int)
PUBLIC d1c60 0 QVector<QCustomTypeInfo>::defaultConstruct(QCustomTypeInfo *,QCustomTypeInfo *)
PUBLIC d1cf0 0 `anonymous namespace'::TypeCreator::delegate(QMetaTypeSwitcher::NotBuiltinType const *)
PUBLIC d1df0 0 QMetaType::destroy(int,void *)
PUBLIC d1e10 0 QVector<QCustomTypeInfo>::destruct(QCustomTypeInfo *,QCustomTypeInfo *)
PUBLIC d1e60 0 QMetaType::destruct(int,void *)
PUBLIC d1e80 0 QHash<QPair<int,int>,QtPrivate::AbstractConverterFunction const *>::detach()
PUBLIC d1ee0 0 QHash<QPair<int,int>,QtPrivate::AbstractConverterFunction const *>::duplicateNode(QHashData::Node *,void *)
PUBLIC d1f10 0 QHash<QPair<int,int>,QtPrivate::AbstractConverterFunction const *>::findNode(QPair<int,int> const &,unsigned int *)
PUBLIC d1f80 0 QMetaTypeFunctionRegistry<QtPrivate::AbstractConverterFunction,QPair<int,int> >::function(QPair<int,int>)
PUBLIC d1ff0 0 QMetaTypeFunctionRegistry<QtPrivate::AbstractComparatorFunction,int>::function(int)
PUBLIC d2060 0 QMetaType::hasRegisteredConverterFunction(int,int)
PUBLIC d20e0 0 `anonymous namespace'::Q_QGS_customTypes::innerFunction()
PUBLIC d21a0 0 `anonymous namespace'::Q_QGS_customTypesComparatorRegistry::innerFunction()
PUBLIC d2280 0 `anonymous namespace'::Q_QGS_customTypesConversionRegistry::innerFunction()
PUBLIC d2360 0 `anonymous namespace'::Q_QGS_customTypesDebugStreamRegistry::innerFunction()
PUBLIC d2440 0 `anonymous namespace'::Q_QGS_customTypesLock::innerFunction()
PUBLIC d2510 0 QMetaTypeFunctionRegistry<QtPrivate::AbstractConverterFunction,QPair<int,int> >::insertIfNotContains(QPair<int,int>,QtPrivate::AbstractConverterFunction const *)
PUBLIC d25c0 0 QMetaType::isRegistered(int)
PUBLIC d27f0 0 qMetaTypeTypeInternal(char const *)
PUBLIC d2800 0 QVector<QCustomTypeInfo>::reallocData(int,int,QFlags<QArrayData::AllocationOption>)
PUBLIC d2a90 0 QMetaType::registerConverterFunction(QtPrivate::AbstractConverterFunction const *,int,int)
PUBLIC d2b20 0 QMetaType::registerNormalizedType(QByteArray const &,void (*)(void *),void * (*)(void const *),void (*)(void *),void * (*)(void *,void const *),int,QFlags<QMetaType::TypeFlag>,QMetaObject const *)
PUBLIC d2e10 0 QMetaType::registerNormalizedTypedef(QByteArray const &,int)
PUBLIC d2fe0 0 QHash<QPair<int,int>,QtPrivate::AbstractConverterFunction const *>::remove(QPair<int,int> const &)
PUBLIC d30c0 0 QMetaTypeFunctionRegistry<QtPrivate::AbstractConverterFunction,QPair<int,int> >::remove(int,int)
PUBLIC d3160 0 QMetaType::sizeOf(int)
PUBLIC d3180 0 QMetaType::type(char const *)
PUBLIC d3190 0 QMetaType::typeFlags(int)
PUBLIC d31c0 0 QMetaType::typeInfo(int)
PUBLIC d3320 0 QMetaType::typeName(int)
PUBLIC d39a0 0 QMetaType::unregisterConverterFunction(int,int)
PUBLIC d39c0 0 QHash<int,QtPrivate::AbstractComparatorFunction const *>::value(int const &,QtPrivate::AbstractComparatorFunction const * const &)
PUBLIC d3a30 0 QHash<QPair<int,int>,QtPrivate::AbstractConverterFunction const *>::value(QPair<int,int> const &,QtPrivate::AbstractConverterFunction const * const &)
PUBLIC d3ab0 0 QVarLengthArray<QAtomicPointer<QMutex>,131>::QVarLengthArray<QAtomicPointer<QMutex>,131>(int)
PUBLIC d3b20 0 QMutexPool::QMutexPool(QMutex::RecursionMode,int)
PUBLIC d3b60 0 QMutexPool::~QMutexPool()
PUBLIC d3bf0 0 QMutexPool::createMutex(int)
PUBLIC d3ca0 0 QMutexPool::globalInstanceGet(void const *)
PUBLIC d3ce0 0 `anonymous namespace'::Q_QGS_globalMutexPool::innerFunction()
PUBLIC d3dc0 0 QLibraryPrivate::QLibraryPrivate(QString const &,QString const &,QFlags<QLibrary::LoadHint>)
PUBLIC d3f00 0 QForeachContainer<QMap<QString,QLibraryPrivate *> >::~QForeachContainer<QMap<QString,QLibraryPrivate *> >()
PUBLIC d3f50 0 QLibrary::~QLibrary()
PUBLIC d3fc0 0 QLibraryPrivate::~QLibraryPrivate()
PUBLIC d40e0 0 QLibrary::`vector deleting destructor'(unsigned int)
PUBLIC d4160 0 QLibraryStore::cleanup()
PUBLIC d4570 0 QMapNode<QString,QLibraryPrivate *>::copy(QMapData<QString,QLibraryPrivate *> *)
PUBLIC d45f0 0 QMapData<QString,QLibraryPrivate *>::createNode(QString const &,QLibraryPrivate * const &,QMapNode<QString,QLibraryPrivate *> *,bool)
PUBLIC d4640 0 QMapNode<QString,QLibraryPrivate *>::destroySubTree()
PUBLIC d4690 0 QMap<QString,QLibraryPrivate *>::detach_helper()
PUBLIC d4710 0 QLibrary::fileName()
PUBLIC d4760 0 QLibraryStore::findOrCreate(QString const &,QString const &,QFlags<QLibrary::LoadHint>)
PUBLIC d48b0 0 QMap<QString,QLibraryPrivate *>::insert(QString const &,QLibraryPrivate * const &)
PUBLIC d4970 0 QLibraryPrivate::load()
PUBLIC d4a70 0 QLibrary::loadHints()
PUBLIC d4aa0 0 QLibraryPrivate::loadPlugin()
PUBLIC d4be0 0 qt_debug_component()
PUBLIC d4c80 0 QLibraryPrivate::release()
PUBLIC d4c90 0 QLibraryStore::releaseLibrary(QLibraryPrivate *)
PUBLIC d4d70 0 QLibrary::resolve(QString const &,char const *)
PUBLIC d4e60 0 QLibrary::setFileName(QString const &)
PUBLIC d4f10 0 QLibrary::setLoadHints(QFlags<QLibrary::LoadHint>)
PUBLIC d5060 0 QMap<QString,QLibraryPrivate *>::take(QString const &)
PUBLIC d50f0 0 QLibrary::tr(char const *,char const *,int)
PUBLIC d5120 0 QLibraryPrivate::unload(QLibraryPrivate::UnloadFlag)
PUBLIC d5260 0 QtPrivate::QStringList_contains(QStringList const *,QString const &,Qt::CaseSensitivity)
PUBLIC d54e0 0 operator+=<QStringBuilder<QLatin1String,QString>,QLatin1Char>(QString &,QStringBuilder<QStringBuilder<QLatin1String,QString>,QLatin1Char> const &)
PUBLIC d55f0 0 QMessagePattern::QMessagePattern()
PUBLIC d5770 0 QDebug::Stream::Stream(QtMsgType)
PUBLIC d57e0 0 QMessagePattern::~QMessagePattern()
PUBLIC d5950 0 QMessageLogger::critical(char const *,...)
PUBLIC d5a20 0 QMessageLogger::debug(char const *,...)
PUBLIC d5ab0 0 QMessageLogger::debug()
PUBLIC d5b40 0 QMessageLogger::fatal(char const *,...)
PUBLIC d5c00 0 `anonymous namespace'::Q_QGS_qMessagePattern::innerFunction()
PUBLIC d5de0 0 qCleanupFuncinfo(QByteArray)
PUBLIC d61e0 0 qErrnoWarning(int,char const *,...)
PUBLIC d6360 0 qErrnoWarning(char const *,...)
PUBLIC d64e0 0 qFormatLogMessage(QtMsgType,QMessageLogContext const &,QString const &)
PUBLIC d6b80 0 qt_message_output(QtMsgType,QMessageLogContext const &,QString const &)
PUBLIC d6cd0 0 QVarLengthArray<QEvent *,256>::realloc(int,int)
PUBLIC d6d80 0 QMessagePattern::setPattern(QString const &)
PUBLIC d77d0 0 QMessageLogger::warning(char const *,...)
PUBLIC d78a0 0 QMessageLogger::warning()
PUBLIC d79f0 0 QBuffer::qt_static_metacall(QObject *,QMetaObject::Call,int,void * *)
PUBLIC d7a50 0 QBuffer::QBuffer(QByteArray *,QObject *)
PUBLIC d7b40 0 QBuffer::QBuffer(QObject *)
PUBLIC d7c10 0 QBuffer::~QBuffer()
PUBLIC d7c20 0 QBuffer::`vector deleting destructor'(unsigned int)
PUBLIC d7c50 0 QBufferPrivate::`vector deleting destructor'(unsigned int)
PUBLIC d7cb0 0 QBuffer::atEnd()
PUBLIC d7cc0 0 QBuffer::buffer()
PUBLIC d7cd0 0 QBuffer::canReadLine()
PUBLIC d7d20 0 QBuffer::close()
PUBLIC d7d30 0 QBuffer::connectNotify(QMetaMethod const &)
PUBLIC d7e20 0 QBuffer::disconnectNotify(QMetaMethod const &)
PUBLIC d7f30 0 QBuffer::metaObject()
PUBLIC d7f50 0 QBuffer::open(QFlags<QIODevice::OpenModeFlag>)
PUBLIC d7fd0 0 QBufferPrivate::peek(__int64)
PUBLIC d8090 0 QBufferPrivate::peek(char *,__int64)
PUBLIC d80f0 0 QBuffer::qt_metacall(QMetaObject::Call,int,void * *)
PUBLIC d8150 0 QBuffer::qt_metacast(char const *)
PUBLIC d81b0 0 QBuffer::readData(char *,__int64)
PUBLIC d8260 0 QBuffer::seek(__int64)
PUBLIC d8420 0 QBuffer::setData(QByteArray const &)
PUBLIC d8480 0 QBuffer::size()
PUBLIC d8490 0 QBuffer::writeData(char const *,__int64)
PUBLIC d85f0 0 QAdoptedThread::QAdoptedThread(QThreadData *)
PUBLIC d86a0 0 QThread::QThread(QObject *)
PUBLIC d8730 0 QThreadData::QThreadData(int)
PUBLIC d87f0 0 QThreadPrivate::QThreadPrivate(QThreadData *)
PUBLIC d88d0 0 QPostEventList::~QPostEventList()
PUBLIC d8950 0 QThread::~QThread()
PUBLIC d8a70 0 QThreadData::~QThreadData()
PUBLIC d8bd0 0 QAdoptedThread::`vector deleting destructor'(unsigned int)
PUBLIC d8c00 0 QThread::`vector deleting destructor'(unsigned int)
PUBLIC d8c20 0 QThreadPrivate::`vector deleting destructor'(unsigned int)
PUBLIC d8cc0 0 QThread::currentThread()
PUBLIC d8cd0 0 QThreadData::deref()
PUBLIC d8cf0 0 QThread::event(QEvent *)
PUBLIC d8d10 0 QThread::exec()
PUBLIC d8e10 0 QThread::exit(int)
PUBLIC d8ec0 0 QThread::isFinished()
PUBLIC d8f00 0 QThread::quit()
PUBLIC d8f10 0 QThreadData::ref()
PUBLIC d8f20 0 QAdoptedThread::run()
PUBLIC d8f50 0 QThread::run()
PUBLIC d8f60 0 QVector<int>::append(int const &)
PUBLIC d8fd0 0 QThreadData::clearCurrentThreadData()
PUBLIC d8fe0 0 QThreadPrivate::createEventDispatcher(QThreadData *)
PUBLIC d9050 0 QThreadData::current(bool)
PUBLIC d91b0 0 QThread::currentThreadId()
PUBLIC d91c0 0 QVector<int>::erase(int *,int *)
PUBLIC d9230 0 QThreadPrivate::finish(void *,bool)
PUBLIC d9390 0 QThread::idealThreadCount()
PUBLIC d93b0 0 QAdoptedThread::init()
PUBLIC d93d0 0 QVector<void *>::insert(void * *,int,void * const &)
PUBLIC d9490 0 QVector<void *>::prepend(void * const &)
PUBLIC d9500 0 qt_adopted_thread_watcher_function(void *)
PUBLIC d9790 0 qt_create_tls()
PUBLIC d9830 0 qt_watch_adopted_thread(void * const,QThread *)
PUBLIC d9930 0 QThread::start(QThread::Priority)
PUBLIC d9ae0 0 QThreadPrivate::start(void *)
PUBLIC d9c90 0 QThread::terminate()
PUBLIC d9d30 0 QThread::wait(unsigned long)
PUBLIC d9e80 0 qRegisterMetaType<QSystemLocale::CurrencyToStringArgument>(char const *,QSystemLocale::CurrencyToStringArgument *,QtPrivate::MetaTypeDefinedHelper<QSystemLocale::CurrencyToStringArgument,1>::DefinedType)
PUBLIC d9f60 0 QLocale::QLocale(QLocale const &)
PUBLIC d9fb0 0 QLocale::QLocale(QString const &)
PUBLIC d9fe0 0 QLocale::QLocale(QLocale::Language,QLocale::Country)
PUBLIC da010 0 QLocale::QLocale()
PUBLIC da030 0 QSystemLocale::CurrencyToStringArgument::~CurrencyToStringArgument()
PUBLIC da070 0 QLocale::~QLocale()
PUBLIC da090 0 QCharRef::operator=(unsigned short)
PUBLIC da0e0 0 QLocale::operator=(QLocale const &)
PUBLIC da130 0 operator<<(QDebug,QLocale const &)
PUBLIC da3d0 0 QLocale::operator==(QLocale const &)
PUBLIC da400 0 QLocale::operator!=(QLocale const &)
PUBLIC da450 0 QSystemLocale::`vector deleting destructor'(unsigned int)
PUBLIC da490 0 QtMetaTypePrivate::QMetaTypeFunctionHelper<QSystemLocale::CurrencyToStringArgument,1>::Construct(void *,void const *)
PUBLIC da560 0 QtMetaTypePrivate::QMetaTypeFunctionHelper<QSystemLocale::CurrencyToStringArgument,1>::Create(void const *)
PUBLIC da630 0 QtMetaTypePrivate::QMetaTypeFunctionHelper<QSystemLocale::CurrencyToStringArgument,1>::Delete(void *)
PUBLIC da680 0 QtMetaTypePrivate::QMetaTypeFunctionHelper<QSystemLocale::CurrencyToStringArgument,1>::Destruct(void *)
PUBLIC da720 0 QLocale::amText()
PUBLIC da830 0 QLocaleData::bytearrayToDouble(char const *,bool *,bool *)
PUBLIC da970 0 QLocaleData::bytearrayToLongLong(char const *,int,bool *,bool *)
PUBLIC daa00 0 QLocaleData::bytearrayToUnsLongLong(char const *,int,bool *)
PUBLIC daa50 0 QLocaleData::c()
PUBLIC daa60 0 QLocalePrivate::codeToCountry(QString const &)
PUBLIC dab30 0 QLocalePrivate::codeToLanguage(QString const &)
PUBLIC dac70 0 QLocalePrivate::codeToScript(QString const &)
PUBLIC dad60 0 QLocale::country()
PUBLIC dad70 0 QLocalePrivate::countryCode()
PUBLIC dada0 0 QLocalePrivate::countryToCode(QLocale::Country)
PUBLIC daf30 0 QLocale::countryToString(QLocale::Country)
PUBLIC dafb0 0 QLocale::dateFormat(QLocale::FormatType)
PUBLIC db0e0 0 QLocale::dateTimeFormat(QLocale::FormatType)
PUBLIC db2e0 0 QLocalePrivate::dateTimeToString(QString const &,QDateTime const &,QDate const &,QTime const &,QLocale const *)
PUBLIC dc190 0 QLocale::dayName(int,QLocale::FormatType)
PUBLIC dc300 0 QLocaleData::digitToCLocale(QChar)
PUBLIC dc3c0 0 QLocaleData::doubleToString(double,int,QLocaleData::DoubleForm,int,unsigned int)
PUBLIC dc440 0 QLocaleData::doubleToString(QChar,QChar,QChar,QChar,QChar,QChar,double,int,QLocaleData::DoubleForm,int,unsigned int)
PUBLIC dc900 0 QLocaleData::findLocaleData(QLocale::Language,QLocale::Script,QLocale::Country)
PUBLIC dca90 0 QLocalePrivate::getLangAndCountry(QString const &,QLocale::Language &,QLocale::Script &,QLocale::Country &)
PUBLIC dcd10 0 `anonymous namespace'::Q_QGS_QSystemLocale_globalSystemLocale::innerFunction()
PUBLIC dcdd0 0 `anonymous namespace'::Q_QGS_defaultLocalePrivate::innerFunction()
PUBLIC dcf00 0 `anonymous namespace'::Q_QGS_globalLocaleData::innerFunction()
PUBLIC dcfe0 0 QLocale::language()
PUBLIC dcff0 0 QLocalePrivate::languageCode()
PUBLIC dd020 0 QLocalePrivate::languageToCode(QLocale::Language)
PUBLIC dd180 0 QLocale::languageToString(QLocale::Language)
PUBLIC dd2a0 0 QLocaleData::longLongToString(__int64,int,int,int,unsigned int)
PUBLIC dd300 0 QLocaleData::longLongToString(QChar,QChar,QChar,QChar,__int64,int,int,int,unsigned int)
PUBLIC dd690 0 QLocale::monthName(int,QLocale::FormatType)
PUBLIC dd7f0 0 QLocale::name()
PUBLIC dd9b0 0 QLocale::negativeSign()
PUBLIC dd9d0 0 QLocale::numberOptions()
PUBLIC dd9e0 0 QLocaleData::numberToCLocale(QChar const *,int,QLocaleData::GroupSeparatorMode,QVarLengthArray<char,256> *)
PUBLIC ddd90 0 QLocale::pmText()
PUBLIC ddea0 0 QLocale::positiveSign()
PUBLIC ddec0 0 QMetaTypeId<QSystemLocale::CurrencyToStringArgument>::qt_metatype_id()
PUBLIC ddee0 0 qt_readEscapedFormatString(QString const &,int *)
PUBLIC de070 0 qt_repeatCount(QString const &,int)
PUBLIC de0b0 0 qt_splitLocaleName(QString const &,QString &,QString &,QString &)
PUBLIC de3e0 0 QVarLengthArray<char,256>::realloc(int,int)
PUBLIC de480 0 QLocale::scriptToString(QLocale::Script)
PUBLIC de500 0 QLocale::standaloneDayName(int,QLocale::FormatType)
PUBLIC de6c0 0 QLocale::standaloneMonthName(int,QLocale::FormatType)
PUBLIC de870 0 QLocaleData::stringToDouble(QChar const *,int,bool *,QLocaleData::GroupSeparatorMode)
PUBLIC de950 0 QLocaleData::stringToLongLong(QChar const *,int,int,bool *,QLocaleData::GroupSeparatorMode)
PUBLIC dea60 0 QLocaleData::stringToUnsLongLong(QChar const *,int,int,bool *,QLocaleData::GroupSeparatorMode)
PUBLIC deb70 0 QLocale::system()
PUBLIC debd0 0 QLocale::timeFormat(QLocale::FormatType)
PUBLIC deda0 0 QLocale::toDate(QString const &,QString const &)
PUBLIC deeb0 0 QLocale::toDate(QString const &,QLocale::FormatType)
PUBLIC def40 0 QLocale::toDateTime(QString const &,QString const &)
PUBLIC df0d0 0 QLocale::toDateTime(QString const &,QLocale::FormatType)
PUBLIC df170 0 QLocale::toString(QDate const &,QString const &)
PUBLIC df200 0 QLocale::toString(QDate const &,QLocale::FormatType)
PUBLIC df3c0 0 QLocale::toString(QDateTime const &,QString const &)
PUBLIC df410 0 QLocale::toString(QDateTime const &,QLocale::FormatType)
PUBLIC df590 0 QLocale::toString(QTime const &,QString const &)
PUBLIC df630 0 QLocale::toString(QTime const &,QLocale::FormatType)
PUBLIC df7b0 0 QLocale::toString(__int64)
PUBLIC df7f0 0 QLocale::toTime(QString const &,QString const &)
PUBLIC df8f0 0 QLocale::toTime(QString const &,QLocale::FormatType)
PUBLIC df980 0 QLocale::toUInt(QString const &,bool *)
PUBLIC df9e0 0 QCharRef::unicode()
PUBLIC dfa20 0 QLocaleData::unsLongLongToString(unsigned __int64,int,int,int,unsigned int)
PUBLIC dfa80 0 QLocaleData::unsLongLongToString(QChar,QChar,QChar,unsigned __int64,int,int,int,unsigned int)
PUBLIC dfd70 0 QLocalePrivate::updateSystemPrivate()
PUBLIC e0340 0 QLocaleId::withLikelySubtagsAdded()
PUBLIC e0490 0 QDebugStateSaver::QDebugStateSaver(QDebug &)
PUBLIC e0510 0 QScopedPointer<QDataStreamPrivate,QScopedPointerDeleter<QDataStreamPrivate> >::~QScopedPointer<QDataStreamPrivate,QScopedPointerDeleter<QDataStreamPrivate> >()
PUBLIC e0520 0 QDebug::~QDebug()
PUBLIC e05c0 0 QDebugStateSaver::~QDebugStateSaver()
PUBLIC e0620 0 QDebugStateSaverPrivate::restoreState()
PUBLIC e06c0 0 QFactoryLoader::QFactoryLoader(char const *,QString const &,Qt::CaseSensitivity)
PUBLIC e0820 0 QList<QJsonObject>::~QList<QJsonObject>()
PUBLIC e0850 0 QFactoryLoader::~QFactoryLoader()
PUBLIC e0910 0 QFactoryLoaderPrivate::~QFactoryLoaderPrivate()
PUBLIC e0b00 0 QFactoryLoader::`vector deleting destructor'(unsigned int)
PUBLIC e0b20 0 QFactoryLoaderPrivate::`vector deleting destructor'(unsigned int)
PUBLIC e0b40 0 QList<QJsonObject>::append(QJsonObject const &)
PUBLIC e0c20 0 QMapNode<int,QString>::copy(QMapData<int,QString> *)
PUBLIC e0ca0 0 QMapData<int,QString>::createNode(int const &,QString const &,QMapNode<int,QString> *,bool)
PUBLIC e0d00 0 QList<QJsonObject>::dealloc(QListData::Data *)
PUBLIC e0d50 0 QList<QJsonObject>::detach_helper_grow(int,int)
PUBLIC e0e90 0 QFactoryLoader::indexOf(QString const &)
PUBLIC e11a0 0 `anonymous namespace'::Q_QGS_qt_factory_loaders::innerFunction()
PUBLIC e1260 0 `anonymous namespace'::Q_QGS_qt_factoryloader_mutex::innerFunction()
PUBLIC e1330 0 QFactoryLoader::instance(int)
PUBLIC e1560 0 QFactoryLoader::keyMap()
PUBLIC e19d0 0 QFactoryLoader::metaData()
PUBLIC e1c80 0 QList<QJsonObject>::node_construct(QList<QJsonObject>::Node *,QJsonObject const &)
PUBLIC e1d00 0 QList<QJsonObject>::node_copy(QList<QJsonObject>::Node *,QList<QJsonObject>::Node *,QList<QJsonObject>::Node *)
PUBLIC e1dd0 0 QList<QJsonObject>::node_destruct(QList<QJsonObject>::Node *,QList<QJsonObject>::Node *)
PUBLIC e1e10 0 QFactoryLoader::update()
PUBLIC e1f00 0 QSingleShotTimer::qt_static_metacall(QObject *,QMetaObject::Call,int,void * *)
PUBLIC e1f40 0 QSingleShotTimer::QSingleShotTimer(int,Qt::TimerType,QObject const *,char const *)
PUBLIC e2000 0 QTimer::QTimer(QObject *)
PUBLIC e2040 0 QPointer<QObject const >::~QPointer<QObject const >()
PUBLIC e2060 0 QSingleShotTimer::~QSingleShotTimer()
PUBLIC e2110 0 QTimer::~QTimer()
PUBLIC e2180 0 QSingleShotTimer::`vector deleting destructor'(unsigned int)
PUBLIC e21a0 0 QTimer::`vector deleting destructor'(unsigned int)
PUBLIC e2220 0 QSingleShotTimer::metaObject()
PUBLIC e2240 0 QSingleShotTimer::qt_metacall(QMetaObject::Call,int,void * *)
PUBLIC e22a0 0 QSingleShotTimer::qt_metacast(char const *)
PUBLIC e2300 0 QTimer::remainingTime()
PUBLIC e2330 0 QTimer::setInterval(int)
PUBLIC e2370 0 QTimer::singleShot(int,QObject const *,char const *)
PUBLIC e23a0 0 QTimer::singleShot(int,Qt::TimerType,QObject const *,char const *)
PUBLIC e2520 0 QTimer::start(int)
PUBLIC e2580 0 QTimer::start()
PUBLIC e25d0 0 QTimer::stop()
PUBLIC e25f0 0 QSingleShotTimer::timeout()
PUBLIC e2610 0 QSingleShotTimer::timerEvent(QTimerEvent *)
PUBLIC e26b0 0 QTimer::timerEvent(QTimerEvent *)
PUBLIC e26f0 0 QIODevice::qt_static_metacall(QObject *,QMetaObject::Call,int,void * *)
PUBLIC e27e0 0 QIODevice::aboutToClose()
PUBLIC e2800 0 QIODevice::bytesWritten(__int64)
PUBLIC e2830 0 QIODevice::metaObject()
PUBLIC e2850 0 QIODevice::qt_metacall(QMetaObject::Call,int,void * *)
PUBLIC e28b0 0 QIODevice::qt_metacast(char const *)
PUBLIC e2910 0 QIODevice::readChannelFinished()
PUBLIC e2930 0 QIODevice::readyRead()
PUBLIC e2950 0 QElapsedTimer::elapsed()
PUBLIC e2a20 0 qt_msectime()
PUBLIC e2ab0 0 QElapsedTimer::restart()
PUBLIC e2b00 0 QElapsedTimer::start()
PUBLIC e2bc0 0 QBasicTimer::start(int,QObject *)
PUBLIC e2cd0 0 QBasicTimer::stop()
PUBLIC e2d40 0 QChildEvent::QChildEvent(QEvent::Type,QObject *)
PUBLIC e2d80 0 QDeferredDeleteEvent::QDeferredDeleteEvent()
PUBLIC e2dc0 0 QDynamicPropertyChangeEvent::QDynamicPropertyChangeEvent(QByteArray const &)
PUBLIC e2e10 0 QEvent::QEvent(QEvent::Type)
PUBLIC e2e40 0 QTimerEvent::QTimerEvent(int)
PUBLIC e2e80 0 QDynamicPropertyChangeEvent::~QDynamicPropertyChangeEvent()
PUBLIC e2ee0 0 QChildEvent::~QChildEvent()
PUBLIC e2f00 0 QDynamicPropertyChangeEvent::`vector deleting destructor'(unsigned int)
PUBLIC e2f70 0 QChildEvent::`vector deleting destructor'(unsigned int)
PUBLIC e2fb0 0 QElapsedTimer::hasExpired(__int64)
PUBLIC e2fd0 0 QElapsedTimer::invalidate()
PUBLIC e2ff0 0 QElapsedTimer::isValid()
PUBLIC e3020 0 QSharedPointer<QNonContiguousByteDeviceBufferImpl>::create<QBuffer * &>(QBuffer * &)
PUBLIC e30d0 0 QSharedPointer<QNonContiguousByteDeviceIoDeviceImpl>::create<QIODevice * &>(QIODevice * &)
PUBLIC e3180 0 QSharedPointer<QNonContiguousByteDeviceRingBufferImpl>::create<QSharedPointer<QRingBuffer> >(QSharedPointer<QRingBuffer> &&)
PUBLIC e3250 0 QByteDeviceWrappingIoDevice::QByteDeviceWrappingIoDevice(QNonContiguousByteDevice *)
PUBLIC e32e0 0 QNonContiguousByteDevice::QNonContiguousByteDevice()
PUBLIC e3300 0 QNonContiguousByteDeviceBufferImpl::QNonContiguousByteDeviceBufferImpl(QBuffer *)
PUBLIC e3490 0 QNonContiguousByteDeviceIoDeviceImpl::QNonContiguousByteDeviceIoDeviceImpl(QIODevice *)
PUBLIC e3590 0 QNonContiguousByteDeviceRingBufferImpl::QNonContiguousByteDeviceRingBufferImpl(QSharedPointer<QRingBuffer>)
PUBLIC e36a0 0 QNonContiguousByteDevice::~QNonContiguousByteDevice()
PUBLIC e36b0 0 QByteDeviceWrappingIoDevice::`vector deleting destructor'(unsigned int)
PUBLIC e36e0 0 QNonContiguousByteDevice::`vector deleting destructor'(unsigned int)
PUBLIC e3710 0 QNonContiguousByteDeviceBufferImpl::`vector deleting destructor'(unsigned int)
PUBLIC e3770 0 QNonContiguousByteDeviceIoDeviceImpl::`vector deleting destructor'(unsigned int)
PUBLIC e37e0 0 QNonContiguousByteDeviceRingBufferImpl::`vector deleting destructor'(unsigned int)
PUBLIC e3890 0 QNonContiguousByteDeviceBufferImpl::advanceReadPointer(__int64)
PUBLIC e38b0 0 QNonContiguousByteDeviceByteArrayImpl::advanceReadPointer(__int64)
PUBLIC e38e0 0 QNonContiguousByteDeviceIoDeviceImpl::advanceReadPointer(__int64)
PUBLIC e39c0 0 QNonContiguousByteDeviceRingBufferImpl::advanceReadPointer(__int64)
PUBLIC e39f0 0 QByteDeviceWrappingIoDevice::atEnd()
PUBLIC e3a00 0 QNonContiguousByteDeviceBufferImpl::atEnd()
PUBLIC e3a10 0 QNonContiguousByteDeviceByteArrayImpl::atEnd()
PUBLIC e3a30 0 QNonContiguousByteDeviceIoDeviceImpl::atEnd()
PUBLIC e3a40 0 QNonContiguousByteDeviceRingBufferImpl::atEnd()
PUBLIC e3a60 0 QNonContiguousByteDeviceFactory::createShared(QIODevice *)
PUBLIC e3b80 0 QNonContiguousByteDeviceFactory::createShared(QSharedPointer<QRingBuffer>)
PUBLIC e3c70 0 QtSharedPointer::ExternalRefCountWithContiguousData<QNonContiguousByteDeviceBufferImpl>::deleter(QtSharedPointer::ExternalRefCountData *)
PUBLIC e3c80 0 QtSharedPointer::ExternalRefCountWithContiguousData<QNonContiguousByteDeviceIoDeviceImpl>::deleter(QtSharedPointer::ExternalRefCountData *)
PUBLIC e3c90 0 QNonContiguousByteDevice::disableReset()
PUBLIC e3ca0 0 QByteDeviceWrappingIoDevice::isSequential()
PUBLIC e3cc0 0 QByteDeviceWrappingIoDevice::readData(char *,__int64)
PUBLIC e3d30 0 QNonContiguousByteDeviceBufferImpl::readPointer(__int64,__int64 &)
PUBLIC e3d50 0 QNonContiguousByteDeviceByteArrayImpl::readPointer(__int64,__int64 &)
PUBLIC e3e20 0 QNonContiguousByteDeviceIoDeviceImpl::readPointer(__int64,__int64 &)
PUBLIC e4040 0 QNonContiguousByteDeviceRingBufferImpl::readPointer(__int64,__int64 &)
PUBLIC e40d0 0 QRingBuffer::readPointerAtPosition(__int64,__int64 &)
PUBLIC e4180 0 QByteDeviceWrappingIoDevice::reset()
PUBLIC e4190 0 QNonContiguousByteDeviceBufferImpl::reset()
PUBLIC e41b0 0 QNonContiguousByteDeviceByteArrayImpl::reset()
PUBLIC e41d0 0 QNonContiguousByteDeviceIoDeviceImpl::reset()
PUBLIC e4280 0 QNonContiguousByteDeviceRingBufferImpl::reset()
PUBLIC e42a0 0 QByteDeviceWrappingIoDevice::size()
PUBLIC e42c0 0 QNonContiguousByteDeviceBufferImpl::size()
PUBLIC e42d0 0 QNonContiguousByteDeviceByteArrayImpl::size()
PUBLIC e42e0 0 QNonContiguousByteDeviceIoDeviceImpl::size()
PUBLIC e4310 0 QNonContiguousByteDeviceRingBufferImpl::size()
PUBLIC e4320 0 QNonContiguousByteDeviceFactory::wrap(QNonContiguousByteDevice *)
PUBLIC e4390 0 std::_Lower_bound<CategoriesRangeMapEntry const *,char const *,int,std::less<void> >(CategoriesRangeMapEntry const *,CategoriesRangeMapEntry const *,char const * const &,std::less<void>,int *)
PUBLIC e43f0 0 std::lower_bound<CategoriesRangeMapEntry const *,char const *>(CategoriesRangeMapEntry const *,CategoriesRangeMapEntry const *,char const * const &)
PUBLIC e4420 0 qDeleteAll<QRegExpLookahead * const *>(QRegExpLookahead * const *,QRegExpLookahead * const *)
PUBLIC e4480 0 QMap<int,int>::QMap<int,int>(QMap<int,int> const &)
PUBLIC e44f0 0 QVector<int>::QVector<int>(int)
PUBLIC e4550 0 QVector<QRegExpAtom>::QVector<QRegExpAtom>(QVector<QRegExpAtom> const &)
PUBLIC e4600 0 QRegExpEngine::Box::Box(QRegExpEngine *)
PUBLIC e4720 0 QRegExp::QRegExp(QRegExp const &)
PUBLIC e4770 0 QRegExp::QRegExp(QString const &,Qt::CaseSensitivity,QRegExp::PatternSyntax)
PUBLIC e4820 0 QRegExp::QRegExp()
PUBLIC e4860 0 QRegExpCharClass::QRegExpCharClass()
PUBLIC e4940 0 QRegExpEngine::QRegExpEngine(QRegExpEngineKey const &)
PUBLIC e4a70 0 QRegExpEngine::QRegExpEngine(Qt::CaseSensitivity,bool)
PUBLIC e4b20 0 QRegExpPrivate::QRegExpPrivate(QRegExpEngineKey const &)
PUBLIC e4b80 0 QRegExpPrivate::QRegExpPrivate()
PUBLIC e4c20 0 QScopedPointer<QRegExpCharClass,QScopedPointerDeleter<QRegExpCharClass> >::~QScopedPointer<QRegExpCharClass,QScopedPointerDeleter<QRegExpCharClass> >()
PUBLIC e4c40 0 QForeachContainer<QVector<QStaticPlugin> >::~QForeachContainer<QVector<QStaticPlugin> >()
PUBLIC e4c70 0 QVector<QRegExpAutomatonState>::~QVector<QRegExpAutomatonState>()
PUBLIC e4cd0 0 QVector<QRegExpCharClass>::~QVector<QRegExpCharClass>()
PUBLIC e4d20 0 QRegExpEngine::Box::~Box()
PUBLIC e4f80 0 QRegExp::~QRegExp()
PUBLIC e4fd0 0 QRegExpAutomatonState::~QRegExpAutomatonState()
PUBLIC e50c0 0 QRegExpCharClass::~QRegExpCharClass()
PUBLIC e5120 0 QRegExpEngine::~QRegExpEngine()
PUBLIC e5320 0 QTimeZonePrivate::Data::~Data()
PUBLIC e5350 0 QRegExpMatchState::~QRegExpMatchState()
PUBLIC e53b0 0 QRegExpPrivate::~QRegExpPrivate()
PUBLIC e54e0 0 QMap<int,int>::operator=(QMap<int,int> const &)
PUBLIC e5540 0 QVector<int>::operator=(QVector<int> const &)
PUBLIC e5590 0 QVector<QRegExpAtom>::operator=(QVector<QRegExpAtom> &&)
PUBLIC e55c0 0 QRegExpEngine::Box::operator=(QRegExpEngine::Box const &)
PUBLIC e5700 0 QRegExp::operator=(QRegExp const &)
PUBLIC e57e0 0 QRegExpCharClass::operator=(QRegExpCharClass const &)
PUBLIC e5880 0 operator<<(QDebug,QRegExp const &)
PUBLIC e59e0 0 QRegExp::operator==(QRegExp const &)
PUBLIC e5a40 0 QVector<QRegExpAtom>::operator[](int)
PUBLIC e5ab0 0 QVector<QRegExpAutomatonState>::operator[](int)
PUBLIC e5b30 0 QRegExpEngine::addAnchors(int,int,int)
PUBLIC e5bd0 0 QRegExpEngine::Box::addAnchorsToEngine(QRegExpEngine::Box const &)
PUBLIC e5e10 0 QRegExpEngine::addCatTransitions(QVector<int> const &,QVector<int> const &)
PUBLIC e5eb0 0 QRegExpCharClass::addCategories(unsigned int)
PUBLIC e5f30 0 QRegExpEngine::addLookahead(QRegExpEngine *,bool)
PUBLIC e5f90 0 QRegExpEngine::addPlusTransitions(QVector<int> const &,QVector<int> const &,int)
PUBLIC e61e0 0 QRegExpCharClass::addRange(unsigned short,unsigned short)
PUBLIC e63e0 0 QRegExpEngine::anchorAlternation(int,int)
PUBLIC e6470 0 QRegExpEngine::anchorConcatenation(int,int)
PUBLIC e64d0 0 QList<QVector<int> >::append(QVector<int> const &)
PUBLIC e6590 0 QVector<QRegExpAnchorAlternation>::append(QRegExpAnchorAlternation const &)
PUBLIC e6610 0 QVector<QRegExpAutomatonState>::append(QRegExpAutomatonState const &)
PUBLIC e6750 0 QVector<QRegExpCharClass>::append(QRegExpCharClass const &)
PUBLIC e6870 0 QRegExpEngine::badCharMatch(QRegExpMatchState &)
PUBLIC e69d0 0 QRegExp::cap(int)
PUBLIC e69f0 0 QRegExp::cap(int)
PUBLIC e6ab0 0 QRegExp::capturedTexts()
PUBLIC e6ad0 0 QRegExp::capturedTexts()
PUBLIC e6ca0 0 QRegExpEngine::Box::cat(QRegExpEngine::Box const &)
PUBLIC e7290 0 QRegExpEngine::Box::catAnchor(int)
PUBLIC e7410 0 QCache<QRegExpEngineKey,QRegExpEngine>::clear()
PUBLIC e7490 0 QVector<QRegExpAtom>::clear()
PUBLIC e7510 0 QRegExpEngine::Box::clear()
PUBLIC e7580 0 QHash<QRegExpEngineKey,QCache<QRegExpEngineKey,QRegExpEngine>::Node>::createNode(unsigned int,QRegExpEngineKey const &,QCache<QRegExpEngineKey,QRegExpEngine>::Node const &,QHashNode<QRegExpEngineKey,QCache<QRegExpEngineKey,QRegExpEngine>::Node> * *)
PUBLIC e7600 0 QRegExpEngine::createState(QRegExpCharClass const &)
PUBLIC e7720 0 QRegExpEngine::createState(QChar)
PUBLIC e77b0 0 QVector<int>::data()
PUBLIC e7810 0 QVector<QRegExpAutomatonState>::defaultConstruct(QRegExpAutomatonState *,QRegExpAutomatonState *)
PUBLIC e7850 0 QVector<QRegExpCharClass>::defaultConstruct(QRegExpCharClass *,QRegExpCharClass *)
PUBLIC e7a80 0 QVector<QRegExpAutomatonState>::destruct(QRegExpAutomatonState *,QRegExpAutomatonState *)
PUBLIC e7ab0 0 QVector<QRegExpCharClass>::destruct(QRegExpCharClass *,QRegExpCharClass *)
PUBLIC e7b30 0 QHash<QRegExpEngineKey,QCache<QRegExpEngineKey,QRegExpEngine>::Node>::detach()
PUBLIC e7b90 0 QList<QVector<int> >::detach_helper(int)
PUBLIC e7c80 0 QList<QVector<int> >::detach_helper_grow(int,int)
PUBLIC e7dd0 0 QHash<QRegExpEngineKey,QCache<QRegExpEngineKey,QRegExpEngine>::Node>::duplicateNode(QHashData::Node *,void *)
PUBLIC e7e30 0 QHash<QRegExpEngineKey,QCache<QRegExpEngineKey,QRegExpEngine>::Node>::end()
PUBLIC e7e90 0 QMap<int,int>::erase(QMap<int,int>::iterator)
PUBLIC e7f40 0 QRegExpEngine::error(char const *)
PUBLIC e7fc0 0 QRegExp::escape(QString const &)
PUBLIC e8170 0 QRegExp::exactMatch(QString const &)
PUBLIC e81e0 0 QHash<QRegExpEngineKey,QCache<QRegExpEngineKey,QRegExpEngine>::Node>::find(QRegExpEngineKey const &)
PUBLIC e8250 0 QMap<int,int>::find(int const &)
PUBLIC e82b0 0 QHash<QRegExpEngineKey,QCache<QRegExpEngineKey,QRegExpEngine>::Node>::findNode(QRegExpEngineKey const &,unsigned int *)
PUBLIC e8350 0 QVector<QRegExpAutomatonState>::freeData(QTypedArrayData<QRegExpAutomatonState> *)
PUBLIC e83a0 0 QRegExpEngine::getChar()
PUBLIC e83d0 0 QRegExpEngine::getEscape()
PUBLIC e92a0 0 QRegExpEngine::getRep(int)
PUBLIC e9320 0 QRegExpEngine::getToken()
PUBLIC e97c0 0 QRegExpEngine::goodStringMatch(QRegExpMatchState &)
PUBLIC e98c0 0 QRegExpEngine::heuristicallyChooseHeuristic()
PUBLIC e9950 0 QRegExpCharClass::in(QChar)
PUBLIC e9a00 0 QRegExp::indexIn(QString const &,int,QRegExp::CaretMode)
PUBLIC e9a70 0 `anonymous namespace'::Q_QGS_globalEngineCache::innerFunction()
PUBLIC e9b50 0 QCache<QRegExpEngineKey,QRegExpEngine>::insert(QRegExpEngineKey const &,QRegExpEngine *,int)
PUBLIC e9c30 0 QHash<QRegExpEngineKey,QCache<QRegExpEngineKey,QRegExpEngine>::Node>::insert(QRegExpEngineKey const &,QCache<QRegExpEngineKey,QRegExpEngine>::Node const &)
PUBLIC e9d10 0 QMap<int,int>::insertMulti(int const &,int const &)
PUBLIC e9dd0 0 QRegExpMatchState::match(QChar const *,int,int,bool,bool,int)
PUBLIC e9f60 0 QRegExpMatchState::matchHere()
PUBLIC ead10 0 QRegExp::matchedLength()
PUBLIC eaf80 0 QList<QVector<int> >::node_copy(QList<QVector<int> >::Node *,QList<QVector<int> >::Node *,QList<QVector<int> >::Node *)
PUBLIC eafc0 0 QList<QVector<int> >::node_destruct(QList<QVector<int> >::Node *,QList<QVector<int> >::Node *)
PUBLIC eb010 0 QList<QVector<int> >::node_destruct(QList<QVector<int> >::Node *)
PUBLIC eb040 0 QRegExpEngine::Box::opt()
PUBLIC eb100 0 QRegExpEngine::Box::orx(QRegExpEngine::Box const &)
PUBLIC eb2c0 0 QRegExpEngine::parse(QChar const *,int)
PUBLIC eb9f0 0 QRegExpEngine::parseAtom(QRegExpEngine::Box *)
PUBLIC ebbe0 0 QRegExpEngine::parseExpression(QRegExpEngine::Box *)
PUBLIC ebc80 0 QRegExpEngine::parseFactor(QRegExpEngine::Box *)
PUBLIC ec0e0 0 QRegExpEngine::parseTerm(QRegExpEngine::Box *)
PUBLIC ec190 0 QRegExp::pattern()
PUBLIC ec350 0 QRegExpMatchState::prepareForMatch(QRegExpEngine *)
PUBLIC ec480 0 qt_regexp_toCanonical(QString const &,QRegExp::PatternSyntax)
PUBLIC ec510 0 QVector<QRegExpAutomatonState>::reallocData(int,int,QFlags<QArrayData::AllocationOption>)
PUBLIC ec850 0 QVector<QRegExpCharClass>::reallocData(int,int,QFlags<QArrayData::AllocationOption>)
PUBLIC ecad0 0 QHash<QRegExpEngineKey,QCache<QRegExpEngineKey,QRegExpEngine>::Node>::remove(QRegExpEngineKey const &)
PUBLIC ecbb0 0 QVector<int>::resize(int)
PUBLIC ecc00 0 QRegExpEngine::Box::set(QRegExpCharClass const &)
PUBLIC ecd00 0 QRegExpEngine::Box::set(int)
PUBLIC ecdf0 0 QRegExpEngine::Box::set(QChar)
PUBLIC ecef0 0 QRegExpCharClass::setNegative(bool)
PUBLIC ecf70 0 QRegExpEngine::setup()
PUBLIC ed070 0 QRegExpEngine::Box::setupHeuristics()
PUBLIC ed2a0 0 QRegExpEngine::setupState(int)
PUBLIC ed330 0 QRegExpEngine::skipChars(int)
PUBLIC ed370 0 QRegExpEngine::startAtom(bool)
PUBLIC ed410 0 QRegExpEngine::startTokenizer(QChar const *,int)
PUBLIC ed500 0 QCache<QRegExpEngineKey,QRegExpEngine>::take(QRegExpEngineKey const &)
PUBLIC ed550 0 QRegExpMatchState::testAnchor(int,int,int const *)
PUBLIC ed7d0 0 QCache<QRegExpEngineKey,QRegExpEngine>::trim(int)
PUBLIC ed850 0 QMap<int,int>::unite(QMap<int,int> const &)
PUBLIC ed960 0 QCache<QRegExpEngineKey,QRegExpEngine>::unlink(QCache<QRegExpEngineKey,QRegExpEngine>::Node &)
PUBLIC ed9c0 0 QList<QString>::value(int)
PUBLIC edf30 0 qIsEffectiveTLD(QString const &)
PUBLIC ee150 0 QThreadStorageData::QThreadStorageData(void (*)(void *))
PUBLIC ee2f0 0 QThreadStorageData::~QThreadStorageData()
PUBLIC ee390 0 QVector<void *>::operator=(QVector<void *> &&)
PUBLIC ee3c0 0 QVector<int>::operator[](int)
PUBLIC ee430 0 QVector<void *>::clear()
PUBLIC ee4b0 0 QThreadStorageData::finish(void * *)
PUBLIC ee6b0 0 QThreadStorageData::get()
PUBLIC ee760 0 `anonymous namespace'::Q_QGS_destructors::innerFunction()
PUBLIC ee820 0 QThreadStorageData::set(void *)
PUBLIC ee970 0 QFileDevice::QFileDevice(QFileDevicePrivate &,QObject *)
PUBLIC ee990 0 QFileDevicePrivate::QFileDevicePrivate()
PUBLIC eea30 0 QFileDevice::~QFileDevice()
PUBLIC eea90 0 QFileDevicePrivate::~QFileDevicePrivate()
PUBLIC eeb50 0 QFileDevice::`vector deleting destructor'(unsigned int)
PUBLIC eebc0 0 QFileDevicePrivate::`vector deleting destructor'(unsigned int)
PUBLIC eec50 0 QFileDevice::atEnd()
PUBLIC eecf0 0 QFileDevice::close()
PUBLIC eee00 0 QFileDevicePrivate::engine()
PUBLIC eee70 0 QFileDevice::error()
PUBLIC eee80 0 QFileDevice::flush()
PUBLIC ef050 0 QFileDevice::handle()
PUBLIC ef080 0 QFileDevice::isSequential()
PUBLIC ef0a0 0 QFileDevice::permissions()
PUBLIC ef0d0 0 QBuffer::pos()
PUBLIC ef0e0 0 QFileDevicePrivate::putCharHelper(char)
PUBLIC ef230 0 QFileDevice::readData(char *,__int64)
PUBLIC ef3b0 0 QFileDevice::readLineData(char *,__int64)
PUBLIC ef440 0 QFileDevice::resize(__int64)
PUBLIC ef580 0 QFileDevice::seek(__int64)
PUBLIC ef6d0 0 QFileDevicePrivate::setError(QFileDevice::FileError,QString const &)
PUBLIC ef6f0 0 QFileDevice::setPermissions(QFlags<QFileDevice::Permission>)
PUBLIC ef800 0 QFileDevice::size()
PUBLIC ef850 0 QFileDevice::unsetError()
PUBLIC ef8a0 0 QFileDevice::writeData(char const *,__int64)
PUBLIC efa60 0 QFileInfo::QFileInfo(QFile const &)
PUBLIC efb30 0 QFileInfo::QFileInfo(QString const &)
PUBLIC efbb0 0 QFileInfo::QFileInfo(QFileInfoPrivate *)
PUBLIC efbd0 0 QFileInfo::QFileInfo()
PUBLIC efc40 0 QFileInfoPrivate::QFileInfoPrivate(QFileInfoPrivate const &)
PUBLIC efd90 0 QFileInfoPrivate::QFileInfoPrivate(QFileSystemEntry const &,QFileSystemMetaData const &,QAbstractFileEngine *)
PUBLIC efed0 0 QFileInfoPrivate::QFileInfoPrivate(QString const &)
PUBLIC f0010 0 QFileInfoPrivate::QFileInfoPrivate()
PUBLIC f00f0 0 QVector<QDateTime>::~QVector<QDateTime>()
PUBLIC f0150 0 QFileInfo::~QFileInfo()
PUBLIC f0180 0 QFileInfoPrivate::~QFileInfoPrivate()
PUBLIC f0220 0 QFileInfo::operator=(QFileInfo const &)
PUBLIC f0270 0 QVector<QDateTime>::operator[](int)
PUBLIC f02e0 0 QFileInfo::absolutePath()
PUBLIC f0380 0 QFileInfo::baseName()
PUBLIC f03c0 0 QFileSystemEngine::bundleName(QFileSystemEntry const &)
PUBLIC f03e0 0 QFileInfo::canonicalFilePath()
PUBLIC f0420 0 QVector<QDateTime>::defaultConstruct(QDateTime *,QDateTime *)
PUBLIC f0490 0 QVector<QDateTime>::destruct(QDateTime *,QDateTime *)
PUBLIC f04c0 0 QSharedDataPointer<QFileInfoPrivate>::detach_helper()
PUBLIC f0560 0 QFileInfo::dir()
PUBLIC f0600 0 QFileInfo::exists()
PUBLIC f0660 0 QFileInfo::exists(QString const &)
PUBLIC f07e0 0 QFileInfo::fileName()
PUBLIC f0820 0 QFileInfo::filePath()
PUBLIC f0860 0 QVector<QDateTime>::freeData(QTypedArrayData<QDateTime> *)
PUBLIC f08b0 0 QFileInfoPrivate::getFileFlags(QFlags<QAbstractFileEngine::FileFlag>)
PUBLIC f0990 0 QFileInfoPrivate::getFileName(QAbstractFileEngine::FileName)
PUBLIC f0d40 0 QFileInfoPrivate::getFileTime(QAbstractFileEngine::FileTime)
PUBLIC f0e80 0 QFileInfo::isDir()
PUBLIC f0ee0 0 QFileInfo::isExecutable()
PUBLIC f0f50 0 QFileInfo::isFile()
PUBLIC f0fb0 0 QFileInfo::isHidden()
PUBLIC f1010 0 QFileInfo::isReadable()
PUBLIC f1080 0 QFileInfo::isRelative()
PUBLIC f10b0 0 QFileInfo::isSymLink()
PUBLIC f1120 0 QFileInfo::isWritable()
PUBLIC f1190 0 QFileInfo::lastModified()
PUBLIC f1230 0 QFileInfo::path()
PUBLIC f1270 0 QFileInfo::readLink()
PUBLIC f12b0 0 QVector<QDateTime>::reallocData(int,int,QFlags<QArrayData::AllocationOption>)
PUBLIC f1500 0 QFileInfo::setFile(QString const &)
PUBLIC f15d0 0 QFileInfo::size()
PUBLIC f1660 0 qDecodeDataUrl(QUrl const &,QString &,QByteArray &)
PUBLIC f1ab0 0 QList<bool (*)(void * *)>::QList<bool (*)(void * *)>(QList<bool (*)(void * *)> const &)
PUBLIC f1b70 0 std::bad_alloc::bad_alloc(std::bad_alloc const &)
PUBLIC f1c00 0 std::bad_alloc::~bad_alloc()
PUBLIC f1c10 0 QVector<QList<bool (*)(void * *)> >::operator[](int)
PUBLIC f1c80 0 std::bad_alloc::`vector deleting destructor'(unsigned int)
PUBLIC f1cb0 0 QInternal::activateCallbacks(QInternal::Callback,void * *)
PUBLIC f1db0 0 QVector<QList<bool (*)(void * *)> >::defaultConstruct(QList<bool (*)(void * *)> *,QList<bool (*)(void * *)> *)
PUBLIC f1de0 0 QVector<QList<bool (*)(void * *)> >::destruct(QList<bool (*)(void * *)> *,QList<bool (*)(void * *)> *)
PUBLIC f1e30 0 `anonymous namespace'::Q_QGS_global_callback_table::innerFunction()
PUBLIC f1ef0 0 qBadAlloc()
PUBLIC f1f30 0 qEnvironmentVariableIsEmpty(char const *)
PUBLIC f1f60 0 qEnvironmentVariableIsSet(char const *)
PUBLIC f1f90 0 qTerminate()
PUBLIC f1fa0 0 qgetenv(char const *)
PUBLIC f20d0 0 qrand()
PUBLIC f20e0 0 qt_error_string(int)
PUBLIC f2310 0 QVector<QList<bool (*)(void * *)> >::reallocData(int,int,QFlags<QArrayData::AllocationOption>)
PUBLIC f26a0 0 QSysInfo::windowsVersion()
PUBLIC f2830 0 qbswap<unsigned __int64>(unsigned __int64)
PUBLIC f28c0 0 QDataStream::QDataStream(QByteArray const &)
PUBLIC f2980 0 QDataStream::QDataStream(QByteArray *,QFlags<QIODevice::OpenModeFlag>)
PUBLIC f2a30 0 QDataStream::~QDataStream()
PUBLIC f2a90 0 QDataStream::operator>>(short &)
PUBLIC f2af0 0 QDataStream::operator>>(int &)
PUBLIC f2b70 0 QDataStream::operator<<(signed char)
PUBLIC f2ba0 0 QDataStream::operator<<(short)
PUBLIC f2c00 0 QDataStream::operator<<(int)
PUBLIC f2c70 0 QDataStream::operator<<(__int64)
PUBLIC f2cf0 0 QDataStream::readRawData(char *,int)
PUBLIC f2d10 0 QDataStream::setByteOrder(QDataStream::ByteOrder)
PUBLIC f2d30 0 QDataStream::skipRawData(int)
PUBLIC f2e60 0 QDataStream::writeBytes(char const *,unsigned int)
PUBLIC f2ea0 0 QDataStream::writeRawData(char const *,int)
PUBLIC f3020 0 QCryptographicHash::QCryptographicHash(QCryptographicHash::Algorithm)
PUBLIC f3070 0 QCryptographicHash::~QCryptographicHash()
PUBLIC fef00 0 SHA256Input(SHA256Context *,unsigned char const *,unsigned int)
PUBLIC ff840 0 SHA512Input(SHA512Context *,unsigned char const *,unsigned int)
PUBLIC ffa40 0 QCryptographicHash::addData(QByteArray const &)
PUBLIC ffa60 0 QCryptographicHash::addData(char const *,int)
PUBLIC 100450 0 QCryptographicHash::hash(QByteArray const &,QCryptographicHash::Algorithm)
PUBLIC 100720 0 QCryptographicHash::reset()
PUBLIC 1008d0 0 QCryptographicHash::result()
PUBLIC 101f70 0 operator+=<QStringBuilder<QStringBuilder<QStringBuilder<QStringBuilder<QStringBuilder<QString,QLatin1Char>,QString>,QLatin1Char>,QString>,QLatin1Char>,QString>(QString &,QStringBuilder<QStringBuilder<QStringBuilder<QStringBuilder<QStringBuilder<QStringBuilder<QString,QLatin1Char>,QString>,QLatin1Char>,QString>,QLatin1Char>,QString> const &)
PUBLIC 102170 0 QIPAddressUtils::parseIp4(unsigned int &,QChar const *,QChar const *)
PUBLIC 102310 0 QIPAddressUtils::parseIp6(unsigned char (&)[16],QChar const *,QChar const *)
PUBLIC 1025d0 0 QVarLengthArray<char,64>::realloc(int,int)
PUBLIC 102670 0 QIPAddressUtils::toString(QString &,unsigned int)
PUBLIC 102850 0 QIPAddressUtils::toString(QString &,unsigned char * const)
PUBLIC 102af0 0 QSystemLibrary::load(wchar_t const *,bool)
PUBLIC 103030 0 QVarLengthArray<wchar_t,260>::realloc(int,int)
PUBLIC 1030f0 0 qDeleteAll<QFileSystemIterator * const *>(QFileSystemIterator * const *,QFileSystemIterator * const *)
PUBLIC 103140 0 QDirIterator::QDirIterator(QString const &,QStringList const &,QFlags<QDir::Filter>,QFlags<QDirIterator::IteratorFlag>)
PUBLIC 1031f0 0 QDirIteratorPrivate::QDirIteratorPrivate(QFileSystemEntry const &,QStringList const &,QFlags<QDir::Filter>,QFlags<QDirIterator::IteratorFlag>,bool)
PUBLIC 1035b0 0 QFileInfoPrivate::QFileInfoPrivate(QFileSystemEntry const &,QFileSystemMetaData const &)
PUBLIC 103740 0 QDirIteratorPrivateIteratorStack<QAbstractFileEngineIterator>::~QDirIteratorPrivateIteratorStack<QAbstractFileEngineIterator>()
PUBLIC 1037c0 0 QDirIteratorPrivateIteratorStack<QFileSystemIterator>::~QDirIteratorPrivateIteratorStack<QFileSystemIterator>()
PUBLIC 103850 0 QVector<QRegExp>::~QVector<QRegExp>()
PUBLIC 1038b0 0 QDirIterator::~QDirIterator()
PUBLIC 1038d0 0 QDirIteratorPrivate::~QDirIteratorPrivate()
PUBLIC 103a60 0 QDirIteratorPrivate::advance()
PUBLIC 103e20 0 QVector<QRegExp>::append(QRegExp const &)
PUBLIC 103ef0 0 QDirIteratorPrivate::checkAndPushDirectory(QFileInfo const &)
PUBLIC 104060 0 QHash<QString,QCache<QString,QHostInfoCache::QHostInfoCacheElement>::Node>::contains(QString const &)
PUBLIC 1040e0 0 QVector<QRegExp>::defaultConstruct(QRegExp *,QRegExp *)
PUBLIC 104150 0 QVector<QRegExp>::destruct(QRegExp *,QRegExp *)
PUBLIC 104180 0 QDirIterator::fileName()
PUBLIC 1041a0 0 QDirIterator::filePath()
PUBLIC 1041c0 0 QVector<QRegExp>::freeData(QTypedArrayData<QRegExp> *)
PUBLIC 104210 0 QDirIterator::hasNext()
PUBLIC 104230 0 QDirIteratorPrivate::matchesFilters(QString const &,QFileInfo const &)
PUBLIC 104490 0 QDirIterator::next()
PUBLIC 1044c0 0 QDirIteratorPrivate::pushDirectory(QFileInfo const &)
PUBLIC 104680 0 QVector<QRegExp>::reallocData(int,int,QFlags<QArrayData::AllocationOption>)
PUBLIC 1048d0 0 QStack<QAbstractFileEngineIterator *>::top()
PUBLIC 104990 0 QByteArrayMatcher::QByteArrayMatcher(QByteArray const &)
PUBLIC 104a30 0 QByteArrayMatcher::QByteArrayMatcher(char const *,int)
PUBLIC 104ab0 0 QArgumentType::~QArgumentType()
PUBLIC 104c00 0 QByteArrayMatcher::indexIn(QByteArray const &,int)
PUBLIC 104c40 0 qFindByteArray(char const *,int,int,char const *,int)
PUBLIC 104e80 0 QThread::qt_static_metacall(QObject *,QMetaObject::Call,int,void * *)
PUBLIC 104f50 0 QThread::finished(QThread::QPrivateSignal)
PUBLIC 104f70 0 QThread::metaObject()
PUBLIC 104f90 0 QThread::qt_metacall(QMetaObject::Call,int,void * *)
PUBLIC 104ff0 0 QThread::qt_metacast(char const *)
PUBLIC 105050 0 QThread::started(QThread::QPrivateSignal)
PUBLIC 105070 0 QNonContiguousByteDevice::qt_static_metacall(QObject *,QMetaObject::Call,int,void * *)
PUBLIC 105160 0 QNonContiguousByteDevice::metaObject()
PUBLIC 105180 0 QNonContiguousByteDeviceBufferImpl::metaObject()
PUBLIC 1051a0 0 QNonContiguousByteDeviceIoDeviceImpl::metaObject()
PUBLIC 1051c0 0 QNonContiguousByteDevice::qt_metacall(QMetaObject::Call,int,void * *)
PUBLIC 105220 0 QNonContiguousByteDeviceBufferImpl::qt_metacall(QMetaObject::Call,int,void * *)
PUBLIC 105280 0 QNonContiguousByteDevice::qt_metacast(char const *)
PUBLIC 1052e0 0 QNonContiguousByteDeviceBufferImpl::qt_metacast(char const *)
PUBLIC 105340 0 QNonContiguousByteDeviceIoDeviceImpl::qt_metacast(char const *)
PUBLIC 1053a0 0 QNonContiguousByteDevice::readProgress(__int64,__int64)
PUBLIC 1053f0 0 QNonContiguousByteDevice::readyRead()
PUBLIC 105410 0 std::_Upper_bound<QList<QPair<QRunnable *,int> >::const_iterator,int,int,std::less<void> >(QList<QPair<QRunnable *,int> >::const_iterator,QList<QPair<QRunnable *,int> >::const_iterator,int const &,std::less<void>,int *)
PUBLIC 105470 0 QThreadPool::QThreadPool(QObject *)
PUBLIC 1054f0 0 QThreadPoolPrivate::QThreadPoolPrivate()
PUBLIC 1055a0 0 QScopedPointer<QThreadPoolThread,QScopedPointerDeleter<QThreadPoolThread> >::~QScopedPointer<QThreadPoolThread,QScopedPointerDeleter<QThreadPoolThread> >()
PUBLIC 1055b0 0 QThreadPool::~QThreadPool()
PUBLIC 105620 0 QThreadPoolPrivate::~QThreadPoolPrivate()
PUBLIC 105720 0 QThreadPool::`vector deleting destructor'(unsigned int)
PUBLIC 1057b0 0 QThreadPoolPrivate::`vector deleting destructor'(unsigned int)
PUBLIC 1057d0 0 QThreadPoolThread::`vector deleting destructor'(unsigned int)
PUBLIC 105840 0 QThreadPool::activeThreadCount()
PUBLIC 105890 0 QList<QPair<QRunnable *,int> >::detach_helper(int)
PUBLIC 105980 0 QList<QPair<QRunnable *,int> >::detach_helper_grow(int,int)
PUBLIC 105ae0 0 QHash<int,QHashDummyValue>::duplicateNode(QHashData::Node *,void *)
PUBLIC 105b00 0 QThreadPoolPrivate::enqueueTask(QRunnable *,int)
PUBLIC 105ba0 0 QList<QThreadPoolThread *>::erase(QList<QThreadPoolThread *>::iterator)
PUBLIC 105c20 0 QThreadPool::globalInstance()
PUBLIC 105c40 0 `anonymous namespace'::Q_QGS_theInstance::innerFunction()
PUBLIC 105d10 0 QList<QPair<QRunnable *,int> >::insert(int,QPair<QRunnable *,int> const &)
PUBLIC 105dc0 0 QThreadPool::maxThreadCount()
PUBLIC 105dd0 0 QList<QPair<QRunnable *,int> >::node_copy(QList<QPair<QRunnable *,int> >::Node *,QList<QPair<QRunnable *,int> >::Node *,QList<QPair<QRunnable *,int> >::Node *)
PUBLIC 105e80 0 QThreadPoolThread::registerThreadInactive()
PUBLIC 105ea0 0 QList<QThreadPoolThread *>::removeOne(QThreadPoolThread * const &)
PUBLIC 105f20 0 QThreadPoolPrivate::reset()
PUBLIC 1061c0 0 QThreadPoolThread::run()
PUBLIC 106480 0 QThreadPool::setExpiryTimeout(int)
PUBLIC 1064a0 0 QThreadPool::setMaxThreadCount(int)
PUBLIC 106520 0 QThreadPool::start(QRunnable *,int)
PUBLIC 1065d0 0 QThreadPoolPrivate::startThread(QRunnable *)
PUBLIC 106700 0 QQueue<QThreadPoolThread *>::dequeue()
PUBLIC 106760 0 QThreadPoolPrivate::tryStart(QRunnable *)
PUBLIC 106830 0 QThreadPoolPrivate::tryToStartMoreThreads()
PUBLIC 106900 0 QThreadPool::waitForDone(int)
PUBLIC 106930 0 QThreadPoolPrivate::waitForDone(int)
PUBLIC 106a50 0 QAbstractEventDispatcher::QAbstractEventDispatcher(QAbstractEventDispatcherPrivate &,QObject *)
PUBLIC 106a70 0 QAbstractEventDispatcher::~QAbstractEventDispatcher()
PUBLIC 106a80 0 QAbstractEventDispatcherPrivate::~QAbstractEventDispatcherPrivate()
PUBLIC 106b00 0 QAbstractEventDispatcher::`vector deleting destructor'(unsigned int)
PUBLIC 106b30 0 QFreeList<void,QtTimerIdFreeListConstants>::allocate(int,int)
PUBLIC 106c30 0 QAbstractEventDispatcher::filterNativeEvent(QByteArray const &,void *,long *)
PUBLIC 106ce0 0 `anonymous namespace'::Q_QGS_timerIdFreeList::innerFunction()
PUBLIC 106dd0 0 QAbstractEventDispatcher::instance(QThread *)
PUBLIC 106df0 0 QFreeList<void,QtTimerIdFreeListConstants>::next()
PUBLIC 106e90 0 QAbstractEventDispatcher::registerTimer(int,Qt::TimerType,QObject *)
PUBLIC 106ed0 0 QFreeList<void,QtTimerIdFreeListConstants>::release(int)
PUBLIC 106f30 0 QAbstractEventDispatcherPrivate::releaseTimerId(int)
PUBLIC 106f50 0 QSocketNotifier::qt_static_metacall(QObject *,QMetaObject::Call,int,void * *)
PUBLIC 106fe0 0 QSocketNotifier::activated(int,QSocketNotifier::QPrivateSignal)
PUBLIC 107010 0 QSocketNotifier::metaObject()
PUBLIC 107030 0 QSocketNotifier::qt_metacall(QMetaObject::Call,int,void * *)
PUBLIC 107090 0 QSocketNotifier::qt_metacast(char const *)
PUBLIC 1070f0 0 QSocketNotifier::QSocketNotifier(int,QSocketNotifier::Type,QObject *)
PUBLIC 107210 0 QSocketNotifier::~QSocketNotifier()
PUBLIC 107270 0 QSocketNotifier::`vector deleting destructor'(unsigned int)
PUBLIC 1072f0 0 QSocketNotifier::event(QEvent *)
PUBLIC 107390 0 QSocketNotifier::isEnabled()
PUBLIC 1073a0 0 QSocketNotifier::setEnabled(bool)
PUBLIC 107430 0 QSocketNotifier::type()
PUBLIC 1075a0 0 z_inflate
PUBLIC 108c50 0 z_inflateCopy
PUBLIC 108db0 0 z_inflateEnd
PUBLIC 108e00 0 z_inflateGetHeader
PUBLIC 108e30 0 z_inflateInit2_
PUBLIC 108ef0 0 z_inflateInit_
PUBLIC 108f10 0 z_inflateMark
PUBLIC 108f70 0 z_inflatePrime
PUBLIC 108fe0 0 z_inflateReset
PUBLIC 109090 0 z_inflateReset2
PUBLIC 109120 0 z_inflateSetDictionary
PUBLIC 109200 0 z_inflateSync
PUBLIC 1092e0 0 z_inflateSyncPoint
PUBLIC 109310 0 z_inflateUndermine
PUBLIC 10a4d0 0 z_deflate
PUBLIC 10ad10 0 z_deflateBound
PUBLIC 10adf0 0 z_deflateCopy
PUBLIC 10afa0 0 z_deflateEnd
PUBLIC 10b070 0 z_deflateInit2_
PUBLIC 10b2a0 0 z_deflateInit_
PUBLIC 10b2d0 0 z_deflateParams
PUBLIC 10b3c0 0 z_deflatePrime
PUBLIC 10b400 0 z_deflateReset
PUBLIC 10b4c0 0 z_deflateSetDictionary
PUBLIC 10b5b0 0 z_deflateSetHeader
PUBLIC 10b5e0 0 z_deflateTune
PUBLIC 10b620 0 qIsFinite(double)
PUBLIC 10b650 0 qIsInf(double)
PUBLIC 10b680 0 QTextCodec::QTextCodec()
PUBLIC 10b730 0 QTextCodec::ConverterState::~ConverterState()
PUBLIC 10b750 0 QTextCodec::~QTextCodec()
PUBLIC 10b760 0 QList<QByteArray>::operator+=(QList<QByteArray> const &)
PUBLIC 10b850 0 QBig5Codec::`vector deleting destructor'(unsigned int)
PUBLIC 10b870 0 QIsciiCodec::`vector deleting destructor'(unsigned int)
PUBLIC 10b890 0 QLatin15Codec::`vector deleting destructor'(unsigned int)
PUBLIC 10b8b0 0 QLatin1Codec::`vector deleting destructor'(unsigned int)
PUBLIC 10b8d0 0 QTsciiCodec::`vector deleting destructor'(unsigned int)
PUBLIC 10b8f0 0 QUtf16BECodec::`vector deleting destructor'(unsigned int)
PUBLIC 10b910 0 QUtf32BECodec::`vector deleting destructor'(unsigned int)
PUBLIC 10b930 0 QUtf8Codec::`vector deleting destructor'(unsigned int)
PUBLIC 10b950 0 QBig5Codec::aliases()
PUBLIC 10b970 0 QCP949Codec::aliases()
PUBLIC 10b990 0 QTextCodec::codecForLocale()
PUBLIC 10b9b0 0 QTextCodec::codecForMib(int)
PUBLIC 10bba0 0 QTextCodec::codecForName(QByteArray const &)
PUBLIC 10be70 0 QTextCodec::codecForUtfText(QByteArray const &,QTextCodec *)
PUBLIC 10bf40 0 QHash<QByteArray,QTextCodec *>::createNode(unsigned int,QByteArray const &,QTextCodec * const &,QHashNode<QByteArray,QTextCodec *> * *)
PUBLIC 10bfb0 0 QHash<QByteArray,QTextCodec *>::duplicateNode(QHashData::Node *,void *)
PUBLIC 10bff0 0 QHash<QByteArray,QTextCodec *>::findNode(QByteArray const &,unsigned int *)
PUBLIC 10c070 0 `anonymous namespace'::Q_QGS_textCodecsMutex::innerFunction()
PUBLIC 10c140 0 QHash<QByteArray,QTextCodec *>::insert(QByteArray const &,QTextCodec * const &)
PUBLIC 10c210 0 QBig5Codec::mibEnum()
PUBLIC 10c220 0 QBig5hkscsCodec::mibEnum()
PUBLIC 10c230 0 QCP949Codec::mibEnum()
PUBLIC 10c240 0 QEucKrCodec::mibEnum()
PUBLIC 10c250 0 QBig5Codec::name()
PUBLIC 10c270 0 QBig5hkscsCodec::name()
PUBLIC 10c290 0 QCP949Codec::name()
PUBLIC 10c2b0 0 QEucKrCodec::name()
PUBLIC 10c2d0 0 qTextCodecNameMatch(char const *,char const *)
PUBLIC 10ce90 0 QHash<QByteArray,QTextCodec *>::value(QByteArray const &)
PUBLIC 10cf10 0 QDateTime::QDateTime(QDateTime const &)
PUBLIC 10cf30 0 QRegularExpression::QRegularExpression()
PUBLIC 10cfa0 0 QRegularExpressionPrivate::QRegularExpressionPrivate()
PUBLIC 10d040 0 QRegularExpression::~QRegularExpression()
PUBLIC 10d070 0 QRegularExpressionPrivate::~QRegularExpressionPrivate()
PUBLIC 10d130 0 operator<<(QDebug,QRegularExpression const &)
PUBLIC 10d2a0 0 operator<<(QDebug,QFlags<QRegularExpression::PatternOption>)
PUBLIC 10d4e0 0 QRegularExpression::operator==(QRegularExpression const &)
PUBLIC 10d520 0 QRegularExpression::pattern()
PUBLIC 10d550 0 QUtf8Functions::fromUtf8<QUtf8BaseTraits,unsigned short *,unsigned char const *>(unsigned char,unsigned short * &,unsigned char const * &,unsigned char const *)
PUBLIC 10d6c0 0 QUtf8Functions::toUtf8<QUtf8BaseTraits,unsigned char *,unsigned short const *>(unsigned short,unsigned char * &,unsigned short const * &,unsigned short const *)
PUBLIC 10d7d0 0 QUtf16Codec::~QUtf16Codec()
PUBLIC 10d7e0 0 QUtf32Codec::~QUtf32Codec()
PUBLIC 10d7f0 0 QUtf8Codec::~QUtf8Codec()
PUBLIC 10d800 0 QTextCodec::aliases()
PUBLIC 10d820 0 QUtf8BaseTraits::appendUcs4(unsigned short * &,unsigned int)
PUBLIC 10d860 0 QUtf16::convertFromUnicode(QChar const *,int,QTextCodec::ConverterState *,DataEndianness)
PUBLIC 10d9e0 0 QUtf16Codec::convertFromUnicode(QChar const *,int,QTextCodec::ConverterState *)
PUBLIC 10da10 0 QUtf32::convertFromUnicode(QChar const *,int,QTextCodec::ConverterState *,DataEndianness)
PUBLIC 10dc40 0 QUtf32Codec::convertFromUnicode(QChar const *,int,QTextCodec::ConverterState *)
PUBLIC 10dc70 0 QUtf8::convertFromUnicode(QChar const *,int)
PUBLIC 10dd80 0 QUtf8::convertFromUnicode(QChar const *,int,QTextCodec::ConverterState *)
PUBLIC 10df80 0 QUtf8Codec::convertFromUnicode(QChar const *,int,QTextCodec::ConverterState *)
PUBLIC 10dfb0 0 QUtf16::convertToUnicode(char const *,int,QTextCodec::ConverterState *,DataEndianness)
PUBLIC 10e1c0 0 QUtf16Codec::convertToUnicode(char const *,int,QTextCodec::ConverterState *)
PUBLIC 10e1f0 0 QUtf32::convertToUnicode(char const *,int,QTextCodec::ConverterState *,DataEndianness)
PUBLIC 10e480 0 QUtf32Codec::convertToUnicode(char const *,int,QTextCodec::ConverterState *)
PUBLIC 10e4b0 0 QUtf8::convertToUnicode(char const *,int)
PUBLIC 10e610 0 QUtf8::convertToUnicode(char const *,int,QTextCodec::ConverterState *)
PUBLIC 10e980 0 QUtf8Codec::convertToUnicode(char const *,int,QTextCodec::ConverterState *)
PUBLIC 10e9b0 0 QUtf16BECodec::mibEnum()
PUBLIC 10e9c0 0 QUtf16Codec::mibEnum()
PUBLIC 10e9d0 0 QUtf16LECodec::mibEnum()
PUBLIC 10e9e0 0 QUtf32BECodec::mibEnum()
PUBLIC 10e9f0 0 QUtf32Codec::mibEnum()
PUBLIC 10ea00 0 QUtf32LECodec::mibEnum()
PUBLIC 10ea10 0 QUtf8Codec::mibEnum()
PUBLIC 10ea20 0 QUtf16BECodec::name()
PUBLIC 10ea50 0 QUtf16Codec::name()
PUBLIC 10ea80 0 QUtf16LECodec::name()
PUBLIC 10eab0 0 QUtf32BECodec::name()
PUBLIC 10eae0 0 QUtf32Codec::name()
PUBLIC 10eb10 0 QUtf32LECodec::name()
PUBLIC 10eb40 0 QUtf8Codec::name()
PUBLIC 10eca0 0 QFile::metaObject()
PUBLIC 10ecc0 0 QFile::qt_metacall(QMetaObject::Call,int,void * *)
PUBLIC 10ecd0 0 QFile::qt_metacast(char const *)
PUBLIC 10ed30 0 QAbstractFileEngine::QAbstractFileEngine(QAbstractFileEnginePrivate &)
PUBLIC 10ed50 0 QAbstractFileEngineIterator::QAbstractFileEngineIterator(QFlags<QDir::Filter>,QStringList const &)
PUBLIC 10ee00 0 QScopedPointer<QAbstractFileEngineIteratorPrivate,QScopedPointerDeleter<QAbstractFileEngineIteratorPrivate> >::~QScopedPointer<QAbstractFileEngineIteratorPrivate,QScopedPointerDeleter<QAbstractFileEngineIteratorPrivate> >()
PUBLIC 10ee20 0 QAbstractFileEngine::~QAbstractFileEngine()
PUBLIC 10ee40 0 QAbstractFileEngineHandlerList::~QAbstractFileEngineHandlerList()
PUBLIC 10ef00 0 QAbstractFileEngineIterator::~QAbstractFileEngineIterator()
PUBLIC 10ef20 0 QAbstractFileEngineIteratorPrivate::~QAbstractFileEngineIteratorPrivate()
PUBLIC 10efe0 0 QAbstractFileEnginePrivate::~QAbstractFileEnginePrivate()
PUBLIC 10f020 0 QAbstractFileEngine::`vector deleting destructor'(unsigned int)
PUBLIC 10f050 0 QAbstractFileEngineIterator::`vector deleting destructor'(unsigned int)
PUBLIC 10f090 0 QAbstractFileEnginePrivate::`vector deleting destructor'(unsigned int)
PUBLIC 10f0e0 0 QAbstractFileEngine::atEnd()
PUBLIC 10f100 0 QAbstractFileEngine::create(QString const &)
PUBLIC 10f260 0 QAbstractFileEngineIterator::currentFileInfo()
PUBLIC 10f370 0 QAbstractFileEngineIterator::currentFilePath()
PUBLIC 10f470 0 QAbstractFileEngineIterator::entryInfo(QAbstractFileEngineIterator::EntryInfoType)
PUBLIC 10f490 0 QAbstractFileEngine::entryList(QFlags<QDir::Filter>,QStringList const &)
PUBLIC 10f610 0 QAbstractFileEngine::error()
PUBLIC 10f620 0 QAbstractFileEngine::errorString()
PUBLIC 10f650 0 QAbstractFileEngine::extension(QAbstractFileEngine::Extension,QAbstractFileEngine::ExtensionOption const *,QAbstractFileEngine::ExtensionReturn *)
PUBLIC 10f660 0 QAbstractFileEngine::fileFlags(QFlags<QAbstractFileEngine::FileFlag>)
PUBLIC 10f670 0 QAbstractFileEngine::fileName(QAbstractFileEngine::FileName)
PUBLIC 10f690 0 QAbstractFileEngineIterator::filters()
PUBLIC 10f6a0 0 QDateTimeParser::cursorPosition()
PUBLIC 10f6b0 0 `anonymous namespace'::Q_QGS_fileEngineHandlerMutex::innerFunction()
PUBLIC 10f780 0 `anonymous namespace'::Q_QGS_fileEngineHandlers::innerFunction()
PUBLIC 10f840 0 QAbstractFileEngineIterator::nameFilters()
PUBLIC 10f870 0 QMetaType::createExtended(void const *)
PUBLIC 10f880 0 QAbstractFileEngineIterator::path()
PUBLIC 10f8b0 0 qt_custom_file_engine_handler_create(QString const &)
PUBLIC 10f9a0 0 QAbstractFileEngine::readLine(char *,__int64)
PUBLIC 10fa50 0 QAbstractFileEngine::copy(QString const &)
PUBLIC 10fa60 0 QAbstractFileEngine::setError(QFileDevice::FileError,QString const &)
PUBLIC 10fa80 0 QAbstractFileEngineIterator::setPath(QString const &)
PUBLIC 10fa90 0 QIODevice::bytesToWrite()
PUBLIC 10faa0 0 QAbstractFileEngine::read(char *,__int64)
PUBLIC 10fab0 0 QStringBuilder<QStringBuilder<QString,QChar>,QString>::convertTo<QString>()
PUBLIC 10fb80 0 QFileSystemEntry::QFileSystemEntry(QString const &)
PUBLIC 10fbb0 0 QFileSystemEntry::QFileSystemEntry(QString const &,QFileSystemEntry::FromInternalPath)
PUBLIC 10fbf0 0 QFileSystemEntry::QFileSystemEntry(QString const &,QFileSystemEntry::FromNativePath)
PUBLIC 10fc30 0 QFileSystemEntry::QFileSystemEntry()
PUBLIC 10fc50 0 QStringBuilder<QStringBuilder<QString,QChar>,QString>::operator QString()
PUBLIC 10fc70 0 QFileSystemEntry::baseName()
PUBLIC 10fcf0 0 QFileSystemEntry::fileName()
PUBLIC 10fd60 0 QFileSystemEntry::filePath()
PUBLIC 10fda0 0 QFileSystemEntry::findFileNameSeparators()
PUBLIC 10ff50 0 QFileSystemEntry::findLastSeparator()
PUBLIC 110130 0 QFileSystemEntry::isAbsolute()
PUBLIC 1101c0 0 QFileSystemEntry::isClean()
PUBLIC 110250 0 QFileSystemEntry::isDriveRoot()
PUBLIC 1102b0 0 QFileSystemEntry::isEmpty()
PUBLIC 1102d0 0 QCharRef::isLetter()
PUBLIC 110320 0 QFileSystemEntry::isRelative()
PUBLIC 110390 0 QFileSystemEntry::isRoot()
PUBLIC 110540 0 QFileSystemEntry::nativeFilePath()
PUBLIC 110580 0 QFileSystemEntry::path()
PUBLIC 110630 0 QFileSystemEntry::resolveFilePath()
PUBLIC 1106f0 0 QFileSystemEntry::resolveNativeFilePath()
PUBLIC 110870 0 QFSFileEngine::QFSFileEngine(QString const &)
PUBLIC 1109a0 0 QFSFileEngine::QFSFileEngine()
PUBLIC 110a20 0 QFSFileEnginePrivate::QFSFileEnginePrivate()
PUBLIC 110b00 0 QFSFileEnginePrivate::~QFSFileEnginePrivate()
PUBLIC 110bb0 0 QFSFileEngine::`vector deleting destructor'(unsigned int)
PUBLIC 110c50 0 QFSFileEnginePrivate::`vector deleting destructor'(unsigned int)
PUBLIC 110c70 0 QFSFileEngine::beginEntryList(QFlags<QDir::Filter>,QStringList const &)
PUBLIC 110ce0 0 QFSFileEngine::close()
PUBLIC 110cf0 0 QFSFileEnginePrivate::closeFdFh()
PUBLIC 110e20 0 QFSFileEngine::extension(QAbstractFileEngine::Extension,QAbstractFileEngine::ExtensionOption const *,QAbstractFileEngine::ExtensionReturn *)
PUBLIC 110ea0 0 QFSFileEngine::flush()
PUBLIC 110ec0 0 QFSFileEnginePrivate::flushFh()
PUBLIC 110fb0 0 QFSFileEngine::handle()
PUBLIC 110fc0 0 QFSFileEngine::isSequential()
PUBLIC 111000 0 QFSFileEngine::open(QFlags<QIODevice::OpenModeFlag>)
PUBLIC 111130 0 QFSFileEngine::pos()
PUBLIC 111140 0 QFSFileEnginePrivate::posFdFh()
PUBLIC 111170 0 QFSFileEngine::read(char *,__int64)
PUBLIC 1111a0 0 QFSFileEnginePrivate::readFdFh(char *,__int64)
PUBLIC 1113e0 0 QFSFileEngine::readLine(char *,__int64)
PUBLIC 111410 0 QFSFileEnginePrivate::readLineFdFh(char *,__int64)
PUBLIC 111580 0 QFSFileEngine::seek(__int64)
PUBLIC 1115a0 0 QFSFileEnginePrivate::seekFdFh(__int64)
PUBLIC 111710 0 QFSFileEngine::setFileName(QString const &)
PUBLIC 111840 0 QFSFileEngine::size()
PUBLIC 111850 0 QFSFileEngine::supportsExtension(QAbstractFileEngine::Extension)
PUBLIC 111890 0 QFSFileEngine::syncToDisk()
PUBLIC 1118b0 0 QFSFileEnginePrivate::unmapAll()
PUBLIC 111970 0 QFSFileEngine::write(char const *,__int64)
PUBLIC 1119a0 0 QFSFileEnginePrivate::writeFdFh(char const *,__int64)
PUBLIC 111b80 0 QStringBuilder<QLatin1String,QString>::convertTo<QString>()
PUBLIC 111c40 0 QVarLengthArray<wchar_t,64>::QVarLengthArray<wchar_t,64>(int)
PUBLIC 111c90 0 QVarLengthArray<char,256>::~QVarLengthArray<char,256>()
PUBLIC 111cb0 0 QStringBuilder<QLatin1String,QString>::operator QString()
PUBLIC 111cd0 0 QFileSystemEngine::absoluteName(QFileSystemEntry const &)
PUBLIC 112030 0 QFileSystemMetaData::accessTime()
PUBLIC 112050 0 QFileSystemEngine::canonicalName(QFileSystemEntry const &,QFileSystemMetaData &)
PUBLIC 112190 0 QFileSystemEngine::clearWinStatData(QFileSystemMetaData &)
PUBLIC 1121f0 0 QFileSystemEngine::copyFile(QFileSystemEntry const &,QFileSystemEntry const &,QSystemError &)
PUBLIC 1122f0 0 QFileSystemEngine::createDirectory(QFileSystemEntry const &,bool)
PUBLIC 112650 0 QFileSystemMetaData::creationTime()
PUBLIC 112670 0 QFileSystemEngine::currentPath()
PUBLIC 112980 0 QFileSystemMetaData::fillFromFindData(_WIN32_FIND_DATAW &,bool,bool)
PUBLIC 112a60 0 QFileSystemMetaData::fillFromFindInfo(_BY_HANDLE_FILE_INFORMATION &)
PUBLIC 112b10 0 QFileSystemEngine::fillMetaData(QFileSystemEntry const &,QFileSystemMetaData &,QFlags<QFileSystemMetaData::MetaDataFlag>)
PUBLIC 112f50 0 QFileSystemEngine::fillMetaData(int,QFileSystemMetaData &,QFlags<QFileSystemMetaData::MetaDataFlag>)
PUBLIC 112f90 0 QFileSystemEngine::fillMetaData(void *,QFileSystemMetaData &,QFlags<QFileSystemMetaData::MetaDataFlag>)
PUBLIC 113060 0 QFileSystemEngine::fillPermissions(QFileSystemEntry const &,QFileSystemMetaData &,QFlags<QFileSystemMetaData::MetaDataFlag>)
PUBLIC 113600 0 QFileSystemEngine::getLinkTarget(QFileSystemEntry const &,QFileSystemMetaData &)
PUBLIC 113720 0 QFileSystemEngine::homePath()
PUBLIC 113bd0 0 `anonymous namespace'::Q_QGS_initSidCleanup::innerFunction()
PUBLIC 113ee0 0 QFileSystemMetaData::modificationTime()
PUBLIC 113f00 0 QFileSystemEngine::nativeAbsoluteFilePath(QString const &)
PUBLIC 1140e0 0 QFileSystemEngine::owner(QFileSystemEntry const &,QAbstractFileEngine::FileOwner)
PUBLIC 114960 0 QVarLengthArray<wchar_t,64>::realloc(int,int)
PUBLIC 114a20 0 QFileSystemEngine::removeDirectory(QFileSystemEntry const &,bool)
PUBLIC 114cf0 0 QFileSystemEngine::removeFile(QFileSystemEntry const &,QSystemError &)
PUBLIC 114da0 0 QFileSystemEngine::renameFile(QFileSystemEntry const &,QFileSystemEntry const &,QSystemError &)
PUBLIC 1152e0 0 QFileSystemEngine::rootPath()
PUBLIC 115400 0 QFileSystemEngine::setPermissions(QFileSystemEntry const &,QFlags<QFileDevice::Permission>,QSystemError &,QFileSystemMetaData *)
PUBLIC 115520 0 QFileSystemEngine::tempPath()
PUBLIC 115a40 0 QFileSystemEngine::uncListSharesOnServer(QString const &,QStringList *)
PUBLIC 115d40 0 QHash<unsigned char *,unsigned long>::operator[](unsigned char * const &)
PUBLIC 115e30 0 QFSFileEngine::copy(QString const &)
PUBLIC 115f60 0 QFSFileEnginePrivate::doStat(QFlags<QFileSystemMetaData::MetaDataFlag>)
PUBLIC 116000 0 QFSFileEngine::fileFlags(QFlags<QAbstractFileEngine::FileFlag>)
PUBLIC 116100 0 QFSFileEngine::fileName(QAbstractFileEngine::FileName)
PUBLIC 116790 0 QFSFileEngine::fileTime(QAbstractFileEngine::FileTime)
PUBLIC 1167f0 0 QFileSystemMetaData::fileTime(QAbstractFileEngine::FileTime)
PUBLIC 116850 0 QFSFileEngine::isRelativePath()
PUBLIC 116860 0 QFSFileEngine::link(QString const &)
PUBLIC 116b00 0 QFSFileEnginePrivate::longFileName(QString const &)
PUBLIC 116cc0 0 QFSFileEnginePrivate::map(__int64,__int64,QFileDevice::MemoryMapFlags)
PUBLIC 116f40 0 QFSFileEngine::mkdir(QString const &,bool)
PUBLIC 117000 0 QFSFileEnginePrivate::nativeClose()
PUBLIC 117130 0 QFSFileEnginePrivate::nativeFlush()
PUBLIC 117140 0 QFSFileEnginePrivate::nativeHandle()
PUBLIC 117190 0 QFSFileEnginePrivate::nativeIsSequential()
PUBLIC 1171e0 0 QFSFileEnginePrivate::nativeOpen(QFlags<QIODevice::OpenModeFlag>)
PUBLIC 117340 0 QFSFileEnginePrivate::nativePos()
PUBLIC 117420 0 QFSFileEnginePrivate::nativeRead(char *,__int64)
PUBLIC 1175c0 0 QFSFileEnginePrivate::nativeReadLine(char *,__int64)
PUBLIC 117610 0 QFSFileEnginePrivate::nativeSeek(__int64)
PUBLIC 117700 0 QFSFileEnginePrivate::nativeSize()
PUBLIC 117800 0 QFSFileEnginePrivate::nativeSyncToDisk()
PUBLIC 117820 0 QFSFileEnginePrivate::nativeWrite(char const *,__int64)
PUBLIC 117950 0 QFSFileEngine::owner(QAbstractFileEngine::FileOwner)
PUBLIC 117980 0 QFSFileEngine::ownerId(QAbstractFileEngine::FileOwner)
PUBLIC 117990 0 QHash<int,QSockNot *>::remove(int const &)
PUBLIC 117a50 0 QFSFileEngine::remove()
PUBLIC 117b10 0 QFSFileEngine::rename(QString const &)
PUBLIC 117c40 0 QFSFileEngine::renameOverwrite(QString const &)
PUBLIC 117e00 0 QFSFileEngine::rmdir(QString const &,bool)
PUBLIC 117ec0 0 QFSFileEngine::setPermissions(unsigned int)
PUBLIC 117f80 0 QFSFileEngine::setSize(__int64)
PUBLIC 118150 0 QFSFileEnginePrivate::unmap(unsigned char *)
PUBLIC 1186a0 0 QFileSystemEngine::resolveEntryAndCreateLegacyEngine(QFileSystemEntry &,QFileSystemMetaData &)
PUBLIC 118800 0 QFileSystemEngine::slowCanonicalized(QString const &)
PUBLIC 118e00 0 QFileInfo::symLinkTarget()
PUBLIC 118e20 0 QResource::QResource(QString const &,QLocale const &)
PUBLIC 118ee0 0 QResourceFileEngine::QResourceFileEngine(QString const &)
PUBLIC 119010 0 QResourceFileEnginePrivate::QResourceFileEnginePrivate()
PUBLIC 1190e0 0 QForeachContainer<QList<QLoggingCategory *> >::~QForeachContainer<QList<QLoggingCategory *> >()
PUBLIC 119110 0 QScopedPointer<QResourcePrivate,QScopedPointerDeleter<QResourcePrivate> >::~QScopedPointer<QResourcePrivate,QScopedPointerDeleter<QResourcePrivate> >()
PUBLIC 1191a0 0 QResourceFileEnginePrivate::~QResourceFileEnginePrivate()
PUBLIC 119260 0 QResourcePrivate::~QResourcePrivate()
PUBLIC 119380 0 QResourceFileEngine::`vector deleting destructor'(unsigned int)
PUBLIC 1193b0 0 QResourceFileEnginePrivate::`vector deleting destructor'(unsigned int)
PUBLIC 1193d0 0 QResource::absoluteFilePath()
PUBLIC 119410 0 QResourceFileEngine::atEnd()
PUBLIC 119460 0 QResourceFileEngine::beginEntryList(QFlags<QDir::Filter>,QStringList const &)
PUBLIC 1194d0 0 QResourceFileEngine::caseSensitive()
PUBLIC 1194e0 0 QResource::children()
PUBLIC 119510 0 QResourceRoot::children(int)
PUBLIC 119750 0 QResourcePrivate::clear()
PUBLIC 119870 0 QResourceFileEngine::close()
PUBLIC 119890 0 QResourceRoot::data(int,__int64 *)
PUBLIC 119960 0 QResourcePrivate::ensureChildren()
PUBLIC 119cc0 0 QResourcePrivate::ensureInitialized()
PUBLIC 11a0d0 0 QFSFileEngine::entryList(QFlags<QDir::Filter>,QStringList const &)
PUBLIC 11a100 0 QResourceFileEngine::extension(QAbstractFileEngine::Extension,QAbstractFileEngine::ExtensionOption const *,QAbstractFileEngine::ExtensionReturn *)
PUBLIC 11a140 0 QResourceFileEngine::fileFlags(QFlags<QAbstractFileEngine::FileFlag>)
PUBLIC 11a250 0 QResource::fileName()
PUBLIC 11a290 0 QResourceFileEngine::fileName(QAbstractFileEngine::FileName)
PUBLIC 11a5d0 0 QAbstractFileEngine::fileTime(QAbstractFileEngine::FileTime)
PUBLIC 11a5f0 0 QResourceRoot::findNode(QString const &,QLocale const &)
PUBLIC 11adf0 0 `anonymous namespace'::Q_QGS_resourceList::innerFunction()
PUBLIC 11aeb0 0 `anonymous namespace'::Q_QGS_resourceMutex::innerFunction()
PUBLIC 11afb0 0 `anonymous namespace'::Q_QGS_resourceSearchPaths::innerFunction()
PUBLIC 11b070 0 QResource::isValid()
PUBLIC 11b090 0 QResourcePrivate::load(QString const &)
PUBLIC 11b3b0 0 QResourceFileEnginePrivate::map(__int64,__int64,QFileDevice::MemoryMapFlags)
PUBLIC 11b4b0 0 QResourceRoot::mappingRootSubdir(QString const &,QString *)
PUBLIC 11b750 0 QHttpSocketEngine::bind(QHostAddress const &,unsigned short)
PUBLIC 11b760 0 QResourceRoot::name(int)
PUBLIC 11b8e0 0 QStringSplitter::next()
PUBLIC 11b920 0 QResourceFileEngine::open(QFlags<QIODevice::OpenModeFlag>)
PUBLIC 11b9d0 0 QResourceFileEngine::pos()
PUBLIC 11b9e0 0 QResourceFileEngine::read(char *,__int64)
PUBLIC 11ba90 0 QResourceFileEngine::seek(__int64)
PUBLIC 11bae0 0 QResourceFileEngine::setFileName(QString const &)
PUBLIC 11bb00 0 QResourceFileEngine::size()
PUBLIC 11bb60 0 QResourceFileEngine::supportsExtension(QAbstractFileEngine::Extension)
PUBLIC 11bb80 0 QReadWriteLock::QReadWriteLock(QReadWriteLock::RecursionMode)
PUBLIC 11bc00 0 QReadWriteLockPrivate::QReadWriteLockPrivate(QReadWriteLock::RecursionMode)
PUBLIC 11bc90 0 QReadWriteLock::~QReadWriteLock()
PUBLIC 11bcb0 0 QReadWriteLockPrivate::~QReadWriteLockPrivate()
PUBLIC 11bd50 0 QHash<int,QSockNot *>::detach()
PUBLIC 11bdb0 0 QHash<int,QSocks5BindData *>::erase(QHash<int,QSocks5BindData *>::iterator)
PUBLIC 11be80 0 QHash<void *,int>::find(void * const &)
PUBLIC 11bf30 0 QReadWriteLock::lockForRead()
PUBLIC 11c040 0 QReadWriteLock::lockForWrite()
PUBLIC 11c100 0 QReadWriteLock::unlock()
PUBLIC 11c210 0 QCoreGlobalData::QCoreGlobalData()
PUBLIC 11c280 0 QForeachContainer<QSet<QByteArray> >::~QForeachContainer<QSet<QByteArray> >()
PUBLIC 11c2b0 0 QMap<QString,QStringList>::~QMap<QString,QStringList>()
PUBLIC 11c300 0 QCoreGlobalData::~QCoreGlobalData()
PUBLIC 11c440 0 `anonymous namespace'::Q_QGS_globalInstance::innerFunction()
PUBLIC 11c510 0 QCoreGlobalData::instance()
PUBLIC 11c530 0 QJsonArray::QJsonArray()
PUBLIC 11c540 0 QJsonArray::~QJsonArray()
PUBLIC 11c580 0 operator<<(QDebug,QJsonObject const &)
PUBLIC 11c6b0 0 QJsonObject::operator==(QJsonObject const &)
PUBLIC 11c810 0 QJsonPrivate::Entry::key()
PUBLIC 11c850 0 QJsonPrivate::Latin1String::toString()
PUBLIC 11c880 0 QJsonPrivate::String::toString()
PUBLIC 11c8b0 0 QJsonObject::value(QString const &)
PUBLIC 11c920 0 operator<<(QDebug,QJsonDocument const &)
PUBLIC 11ca70 0 QJsonDocument::operator==(QJsonDocument const &)
PUBLIC 11cbf0 0 QJsonDocument::fromBinaryData(QByteArray const &,QJsonDocument::DataValidation)
PUBLIC 11cd10 0 QAuthenticator::isNull()
PUBLIC 11cd20 0 QJsonDocument::object()
PUBLIC 11cd70 0 std::_Adjust_heap<QList<QByteArray>::iterator,int,QByteArray,std::less<void> >(QList<QByteArray>::iterator,int,int,QByteArray &&,std::less<void>)
PUBLIC 11ce10 0 std::_Insertion_sort1<QList<QByteArray>::iterator,std::less<void>,QByteArray>(QList<QByteArray>::iterator,QList<QByteArray>::iterator,std::less<void>,QByteArray *)
PUBLIC 11cf60 0 std::_Make_heap<QList<QByteArray>::iterator,int,QByteArray,std::less<void> >(QList<QByteArray>::iterator,QList<QByteArray>::iterator,std::less<void>,int *,QByteArray *)
PUBLIC 11d030 0 std::_Med3<QList<QByteArray>::iterator,std::less<void> >(QList<QByteArray>::iterator,QList<QByteArray>::iterator,QList<QByteArray>::iterator,std::less<void>)
PUBLIC 11d0a0 0 std::_Median<QList<QByteArray>::iterator,std::less<void> >(QList<QByteArray>::iterator,QList<QByteArray>::iterator,QList<QByteArray>::iterator,std::less<void>)
PUBLIC 11d1a0 0 std::_Move_backward<QList<QByteArray>::iterator,QList<QByteArray>::iterator>(QList<QByteArray>::iterator,QList<QByteArray>::iterator,QList<QByteArray>::iterator,std::_Nonscalar_ptr_iterator_tag)
PUBLIC 11d1e0 0 std::_Pop_heap_0<QList<QByteArray>::iterator,QByteArray,std::less<void> >(QList<QByteArray>::iterator,QList<QByteArray>::iterator,std::less<void>,QByteArray *)
PUBLIC 11d290 0 std::_Push_heap<QList<QByteArray>::iterator,int,QByteArray,std::less<void> >(QList<QByteArray>::iterator,int,int,QByteArray &&,std::less<void>)
PUBLIC 11d300 0 std::_Sort<QList<QByteArray>::iterator,int,std::less<void> >(QList<QByteArray>::iterator,QList<QByteArray>::iterator,int,std::less<void>)
PUBLIC 11d440 0 std::_Sort_heap<QList<QByteArray>::iterator,std::less<void> >(QList<QByteArray>::iterator,QList<QByteArray>::iterator,std::less<void>)
PUBLIC 11d490 0 std::_Unguarded_partition<QList<QByteArray>::iterator,std::less<void> >(QList<QByteArray>::iterator,QList<QByteArray>::iterator,std::less<void>)
PUBLIC 11d6a0 0 QTimeZone::QTimeZone(QByteArray const &)
PUBLIC 11d7f0 0 QTimeZone::QTimeZone(int)
PUBLIC 11d8b0 0 QTimeZoneSingleton::QTimeZoneSingleton()
PUBLIC 11d920 0 QSharedDataPointer<QTimeZonePrivate>::~QSharedDataPointer<QTimeZonePrivate>()
PUBLIC 11d940 0 QHash<QByteArray,QHashDummyValue>::createNode(unsigned int,QByteArray const &,QHashDummyValue const &,QHashNode<QByteArray,QHashDummyValue> * *)
PUBLIC 11d9a0 0 QHash<QByteArray,QTextCodec *>::deleteNode2(QHashData::Node *)
PUBLIC 11d9d0 0 QHash<QByteArray,QHashDummyValue>::detach()
PUBLIC 11da30 0 QTimeZone::id()
PUBLIC 11da60 0 `anonymous namespace'::Q_QGS_global_tz::innerFunction()
PUBLIC 11db30 0 QHash<QByteArray,QHashDummyValue>::insert(QByteArray const &,QHashDummyValue const &)
PUBLIC 11dbf0 0 QTimeZone::isValid()
PUBLIC 11dc00 0 QTimeZone::systemTimeZoneId()
PUBLIC 11dc70 0 QSet<QByteArray>::unite(QSet<QByteArray> const &)
PUBLIC 11dd70 0 QTimeZonePrivate::QTimeZonePrivate(QTimeZonePrivate const &)
PUBLIC 11dda0 0 QTimeZonePrivate::QTimeZonePrivate()
PUBLIC 11ddc0 0 QUtcTimeZonePrivate::QUtcTimeZonePrivate(QUtcTimeZonePrivate const &)
PUBLIC 11de50 0 QUtcTimeZonePrivate::QUtcTimeZonePrivate(QByteArray const &)
PUBLIC 11e050 0 QUtcTimeZonePrivate::QUtcTimeZonePrivate(int)
PUBLIC 11e1f0 0 QTimeZonePrivate::~QTimeZonePrivate()
PUBLIC 11e230 0 QUtcTimeZonePrivate::~QUtcTimeZonePrivate()
PUBLIC 11e2f0 0 QTimeZonePrivate::Data::operator=(QTimeZonePrivate::Data const &)
PUBLIC 11e350 0 QTimeZonePrivate::`vector deleting destructor'(unsigned int)
PUBLIC 11e3a0 0 QUtcTimeZonePrivate::`vector deleting destructor'(unsigned int)
PUBLIC 11e3c0 0 QTimeZonePrivate::abbreviation(__int64)
PUBLIC 11e3e0 0 QUtcTimeZonePrivate::abbreviation(__int64)
PUBLIC 11e410 0 QTimeZonePrivate::availableTimeZoneIds(int)
PUBLIC 11e7f0 0 QTimeZonePrivate::availableTimeZoneIds(QLocale::Country)
PUBLIC 11eb70 0 QTimeZonePrivate::availableTimeZoneIds()
PUBLIC 11eb90 0 QUtcTimeZonePrivate::availableTimeZoneIds(int)
PUBLIC 11ec70 0 QUtcTimeZonePrivate::availableTimeZoneIds(QLocale::Country)
PUBLIC 11eca0 0 QUtcTimeZonePrivate::availableTimeZoneIds()
PUBLIC 11ed80 0 QSharedDataPointer<QTimeZonePrivate>::clone()
PUBLIC 11ed90 0 QTimeZonePrivate::clone()
PUBLIC 11edd0 0 QUtcTimeZonePrivate::clone()
PUBLIC 11edf0 0 QUtcTimeZonePrivate::comment()
PUBLIC 11ee20 0 QTimeZonePrivate::country()
PUBLIC 11ef50 0 QUtcTimeZonePrivate::country()
PUBLIC 11ef60 0 QTimeZonePrivate::data(__int64)
PUBLIC 11ef80 0 QTimeZonePrivate::dataForLocalTime(__int64)
PUBLIC 11f4f0 0 QAbstractFileEngine::beginEntryList(QFlags<QDir::Filter>,QStringList const &)
PUBLIC 11f500 0 QTimeZonePrivate::displayName(QTimeZone::TimeType,QTimeZone::NameType,QLocale const &)
PUBLIC 11f520 0 QTimeZonePrivate::displayName(__int64,QTimeZone::NameType,QLocale const &)
PUBLIC 11f590 0 QUtcTimeZonePrivate::displayName(QTimeZone::TimeType,QTimeZone::NameType,QLocale const &)
PUBLIC 11f620 0 QTimeZonePrivate::ianaIdToWindowsId(QByteArray const &)
PUBLIC 11f770 0 QTimeZonePrivate::id()
PUBLIC 11f7a0 0 QTimeZonePrivate::invalidData()
PUBLIC 11f7e0 0 QTimeZonePrivate::isValid()
PUBLIC 11f7f0 0 QTimeZonePrivate::isoOffsetFormat(int)
PUBLIC 11f9a0 0 QTimeZonePrivate::offsetFromUtc(__int64)
PUBLIC 11f9d0 0 QHash<QByteArray,QHashDummyValue>::reserve(int)
PUBLIC 11fa50 0 QTimeZonePrivate::serialize(QDataStream &)
PUBLIC 11fae0 0 QUtcTimeZonePrivate::serialize(QDataStream &)
PUBLIC 11fc00 0 QTimeZonePrivate::daylightTimeOffset(__int64)
PUBLIC 11fc10 0 QUtcTimeZonePrivate::standardTimeOffset(__int64)
PUBLIC 11fc20 0 QTimeZonePrivate::comment()
PUBLIC 11fc40 0 QUtcTimeZonePrivate::systemTimeZoneId()
PUBLIC 11fc60 0 QList<QByteArray>::toSet()
PUBLIC 11feb0 0 QTimeZonePrivate::windowsIdToDefaultIanaId(QByteArray const &)
PUBLIC 11ff10 0 QTimeZonePrivate::windowsIdToDefaultIanaId(QByteArray const &,QLocale::Country)
PUBLIC 120000 0 QTimeZonePrivate::windowsIdToIanaIds(QByteArray const &)
PUBLIC 1201c0 0 QTimeZonePrivate::windowsIdToIanaIds(QByteArray const &,QLocale::Country)
PUBLIC 1202b0 0 QVector<QDateTimeParser::SectionNode>::QVector<QDateTimeParser::SectionNode>(QVector<QDateTimeParser::SectionNode> const &)
PUBLIC 120370 0 QDateTimeParser::StateNode::~StateNode()
PUBLIC 1203f0 0 QVector<QDateTimeParser::SectionNode>::operator[](int)
PUBLIC 120470 0 QDateTimeParser::absoluteMax(int,QDateTime const &)
PUBLIC 1206d0 0 QDateTimeParser::absoluteMin(int)
PUBLIC 120880 0 QVector<QDateTimeParser::SectionNode>::append(QDateTimeParser::SectionNode const &)
PUBLIC 120a50 0 QVector<QDateTimeParser::SectionNode>::defaultConstruct(QDateTimeParser::SectionNode *,QDateTimeParser::SectionNode *)
PUBLIC 120a80 0 QDateTimeParser::fieldInfo(int)
PUBLIC 120c60 0 QDateTimeParser::findAmPm(QString &,int,int *)
PUBLIC 121060 0 QDateTimeParser::findDay(QString const &,int,int,QString *,int *)
PUBLIC 1213f0 0 QDateTimeParser::findMonth(QString const &,int,int,QString *,int *)
PUBLIC 1217e0 0 QDateTimeParser::fromString(QString const &,QDate *,QTime *)
PUBLIC 121990 0 QDateTimeParser::getAmPmText(QDateTimeParser::AmPm,QDateTimeParser::Case)
PUBLIC 1219e0 0 QDateTimeParser::getDigit(QDateTime const &,int)
PUBLIC 121d50 0 QDateTimeParser::getMaximum()
PUBLIC 121da0 0 QDateTimeParser::getMinimum()
PUBLIC 121df0 0 QDateTimeParser::maxChange(int)
PUBLIC 122060 0 QDateTimeParser::parse(QString &,int &,QDateTime const &,bool)
PUBLIC 123570 0 QDateTimeParser::parseFormat(QString const &)
PUBLIC 123f70 0 QDateTimeParser::parseSection(QDateTime const &,int,QString &,int &,int,QDateTimeParser::State &,int *)
PUBLIC 124800 0 QDateTimeParser::potentialValue(QString const &,int,int,int,QDateTime const &,int)
PUBLIC 124ac0 0 QVector<QDateTimeParser::SectionNode>::reallocData(int,int,QFlags<QArrayData::AllocationOption>)
PUBLIC 124c50 0 QDateTimeParser::sectionMaxSize(QDateTimeParser::Section,int)
PUBLIC 1250a0 0 QDateTimeParser::sectionName(int)
PUBLIC 125320 0 QDateTimeParser::sectionNode(int)
PUBLIC 1253a0 0 QDateTimeParser::sectionPos(QDateTimeParser::SectionNode const &)
PUBLIC 125520 0 QDateTimeParser::sectionSize(int)
PUBLIC 1256f0 0 QDateTimeParser::sectionText(QString const &,int,int)
PUBLIC 125750 0 QDateTimeParser::setDigit(QDateTime &,int,int)
PUBLIC 125b80 0 QDateTimeParser::skipToNextSection(int,QDateTime const &,QString const &)
PUBLIC 125ce0 0 QLocale::toString(int)
PUBLIC 125e60 0 QDeviceClosedNotifier::qt_static_metacall(QObject *,QMetaObject::Call,int,void * *)
PUBLIC 125e80 0 QDeviceClosedNotifier::metaObject()
PUBLIC 125ea0 0 QDeviceClosedNotifier::qt_metacall(QMetaObject::Call,int,void * *)
PUBLIC 125f00 0 QDeviceClosedNotifier::qt_metacast(char const *)
PUBLIC 125f60 0 QFileDevice::metaObject()
PUBLIC 125f80 0 QFileDevice::qt_metacall(QMetaObject::Call,int,void * *)
PUBLIC 125f90 0 QFileDevice::qt_metacast(char const *)
PUBLIC 125ff0 0 QUtf8Functions::fromUtf8<`anonymous namespace'::QUrlUtf8Traits,unsigned int *,unsigned short const *>(unsigned char,unsigned int * &,unsigned short const * &,unsigned short const *)
PUBLIC 126220 0 QUtf8Functions::toUtf8<`anonymous namespace'::QUrlUtf8Traits,unsigned short *,unsigned short const *>(unsigned short,unsigned short * &,unsigned short const * &,unsigned short const *)
PUBLIC 126380 0 `anonymous namespace'::QUrlUtf8Traits::appendByte(unsigned short * &,unsigned char)
PUBLIC 1267e0 0 `anonymous namespace'::QUrlUtf8Traits::peekByte(unsigned short const *,int)
PUBLIC 126810 0 qt_urlRecode(QString &,QChar const *,QChar const *,QFlags<QUrl::ComponentFormattingOption>,unsigned short const *)
PUBLIC 129120 0 qt_ACE_do(QString const &,AceOperation,AceLeadingDot)
PUBLIC 129840 0 qt_check_std3rules(QChar const *,int)
PUBLIC 1299f0 0 qt_nameprep(QString *,int)
PUBLIC 129cf0 0 qt_punycodeDecoder(QString const &)
PUBLIC 12a050 0 qt_punycodeEncoder(QChar const *,int,QString *)
PUBLIC 12a2b0 0 z_compress
PUBLIC 12a2d0 0 z_compress2
PUBLIC 12a380 0 z_compressBound
PUBLIC 12a3a0 0 z_uncompress
PUBLIC 12a450 0 QSemaphore::QSemaphore(int)
PUBLIC 12a4d0 0 QSemaphore::~QSemaphore()
PUBLIC 12a540 0 QSemaphore::acquire(int)
PUBLIC 12a5e0 0 QSemaphore::release(int)
PUBLIC 12a660 0 QEventLoop::qt_static_metacall(QObject *,QMetaObject::Call,int,void * *)
PUBLIC 12a680 0 QEventLoop::metaObject()
PUBLIC 12a6a0 0 QEventLoop::qt_metacall(QMetaObject::Call,int,void * *)
PUBLIC 12a700 0 QEventLoop::qt_metacast(char const *)
PUBLIC 12a760 0 QCoreApplication::qt_static_metacall(QObject *,QMetaObject::Call,int,void * *)
PUBLIC 12a890 0 QCoreApplication::aboutToQuit(QCoreApplication::QPrivateSignal)
PUBLIC 12a8b0 0 QCoreApplication::applicationNameChanged()
PUBLIC 12a8d0 0 QCoreApplication::applicationVersionChanged()
PUBLIC 12a8f0 0 QCoreApplication::metaObject()
PUBLIC 12a910 0 QCoreApplication::organizationDomainChanged()
PUBLIC 12a930 0 QCoreApplication::organizationNameChanged()
PUBLIC 12a950 0 QCoreApplication::qt_metacall(QMetaObject::Call,int,void * *)
PUBLIC 12ab90 0 QCoreApplication::qt_metacast(char const *)
PUBLIC 12abf0 0 QCoreApplicationPrivate::appName()
PUBLIC 12acb0 0 qAppFileName()
PUBLIC 12ade0 0 qWinAppInst()
PUBLIC 12adf0 0 QCoreApplicationPrivate::removePostedTimerEvent(QObject *,int)
PUBLIC 12aef0 0 QVector<QLoggingRule>::QVector<QLoggingRule>(QVector<QLoggingRule> const &)
PUBLIC 12af90 0 QLoggingRegistry::QLoggingRegistry()
PUBLIC 12afd0 0 QForeachContainer<QVector<QLoggingRule> >::~QForeachContainer<QVector<QLoggingRule> >()
PUBLIC 12b020 0 QLoggingRegistry::~QLoggingRegistry()
PUBLIC 12b1b0 0 QLoggingSettingsParser::~QLoggingSettingsParser()
PUBLIC 12b230 0 QVector<QLoggingRule>::operator=(QVector<QLoggingRule> &&)
PUBLIC 12b260 0 QVector<QLoggingRule>::operator+(QVector<QLoggingRule> const &)
PUBLIC 12b310 0 QVector<QLoggingRule>::operator+=(QVector<QLoggingRule> const &)
PUBLIC 12b3e0 0 QVector<QLoggingRule>::append(QLoggingRule const &)
PUBLIC 12b510 0 QVector<QLoggingRule>::clear()
PUBLIC 12b5c0 0 QHash<int,QSockNot *>::contains(int const &)
PUBLIC 12b620 0 QVector<QLoggingRule>::copyConstruct(QLoggingRule const *,QLoggingRule const *,QLoggingRule *)
PUBLIC 12b680 0 QLoggingRegistry::defaultCategoryFilter(QLoggingCategory *)
PUBLIC 12b8b0 0 QVector<QLoggingRule>::defaultConstruct(QLoggingRule *,QLoggingRule *)
PUBLIC 12b8f0 0 QVector<QLoggingRule>::destruct(QLoggingRule *,QLoggingRule *)
PUBLIC 12b940 0 QList<void (*)(void)>::detach_helper(int)
PUBLIC 12ba10 0 QLoggingRegistry::init()
PUBLIC 12c050 0 `anonymous namespace'::Q_QGS_qtLoggingRegistry::innerFunction()
PUBLIC 12c120 0 QHash<int,QSockNot *>::insert(int const &,QSockNot * const &)
PUBLIC 12c220 0 QLoggingRegistry::instance()
PUBLIC 12c240 0 QHash<unsigned char *,unsigned long>::keys()
PUBLIC 12c310 0 QLoggingRule::parse(QStringRef const &)
PUBLIC 12c4c0 0 QLoggingRule::pass(QString const &,QtMsgType)
PUBLIC 12c5d0 0 QVector<QLoggingRule>::reallocData(int,int,QFlags<QArrayData::AllocationOption>)
PUBLIC 12c850 0 QLoggingRegistry::registerCategory(QLoggingCategory *,QtMsgType)
PUBLIC 12c8f0 0 QLoggingSettingsParser::rules()
PUBLIC 12c910 0 QLoggingSettingsParser::setContent(QTextStream &)
PUBLIC 12cca0 0 QLoggingRegistry::unregisterCategory(QLoggingCategory *)
PUBLIC 12cd20 0 QLoggingRegistry::updateRules()
PUBLIC 12cf60 0 QEventDispatcherWin32::QEventDispatcherWin32(QObject *)
PUBLIC 12cfe0 0 QEventDispatcherWin32Private::QEventDispatcherWin32Private()
PUBLIC 12d0c0 0 QWindowsMessageWindowClassContext::QWindowsMessageWindowClassContext()
PUBLIC 12d350 0 QZeroTimerEvent::QZeroTimerEvent(int)
PUBLIC 12d380 0 QForeachContainer<QSet<QThreadPoolThread *> >::~QForeachContainer<QSet<QThreadPoolThread *> >()
PUBLIC 12d3b0 0 QList<QPair<int,int> >::~QList<QPair<int,int> >()
PUBLIC 12d410 0 QEventDispatcherWin32Private::~QEventDispatcherWin32Private()
PUBLIC 12d5e0 0 QSet<int>::operator+(QSet<int> const &)
PUBLIC 12d6d0 0 QEventDispatcherWin32::`vector deleting destructor'(unsigned int)
PUBLIC 12d700 0 QEventDispatcherWin32Private::`vector deleting destructor'(unsigned int)
PUBLIC 12d720 0 QZeroTimerEvent::`vector deleting destructor'(unsigned int)
PUBLIC 12d740 0 QList<QAbstractEventDispatcher::TimerInfo>::append(QAbstractEventDispatcher::TimerInfo const &)
PUBLIC 12d7f0 0 QList<tagMSG>::append(tagMSG const &)
PUBLIC 12d8e0 0 QEventDispatcherWin32::closingDown()
PUBLIC 12da70 0 QList<QWinEventNotifier *>::contains(QWinEventNotifier * const &)
PUBLIC 12dab0 0 QEventDispatcherWin32::createInternalHwnd()
PUBLIC 12def0 0 QHash<int,QHashDummyValue>::detach()
PUBLIC 12df50 0 QList<tagMSG>::detach_helper(int)
PUBLIC 12e040 0 QList<void (*)(void)>::detach_helper_grow(int,int)
PUBLIC 12e160 0 QList<QAbstractEventDispatcher::TimerInfo>::detach_helper_grow(int,int)
PUBLIC 12e2c0 0 QList<tagMSG>::detach_helper_grow(int,int)
PUBLIC 12e420 0 QEventDispatcherWin32Private::doWsaAsyncSelect(int)
PUBLIC 12e490 0 QHash<int,QSockNot *>::duplicateNode(QHashData::Node *,void *)
PUBLIC 12e4c0 0 QEventDispatcherWin32::event(QEvent *)
PUBLIC 12e600 0 QEventDispatcherWin32::hasPendingEvents()
PUBLIC 12e630 0 QList<QObject *>::indexOf(QObject * const &,int)
PUBLIC 12e6c0 0 `anonymous namespace'::Q_QGS_qWindowsMessageWindowClassContext::innerFunction()
PUBLIC 12e790 0 QHash<int,QHashDummyValue>::insert(int const &,QHashDummyValue const &)
PUBLIC 12e870 0 QEventDispatcherWin32::installMessageHook()
PUBLIC 12e990 0 QEventDispatcherWin32::interrupt()
PUBLIC 12e9a0 0 QHash<int,QSockNot *>::keys()
PUBLIC 12ea70 0 QList<tagMSG>::node_copy(QList<tagMSG>::Node *,QList<tagMSG>::Node *,QList<tagMSG>::Node *)
PUBLIC 12eb30 0 QEventDispatcherWin32::processEvents(QFlags<QEventLoop::ProcessEventsFlag>)
PUBLIC 12f280 0 qt_GetMessageHook(int,unsigned int,long)
PUBLIC 12f400 0 qt_fast_timer_proc(unsigned int,unsigned int,unsigned long,unsigned long,unsigned long)
PUBLIC 12f480 0 qt_internal_proc(HWND__ *,unsigned int,unsigned int,long)
PUBLIC 12f710 0 QVarLengthArray<tagMSG,256>::realloc(int,int)
PUBLIC 12f800 0 QEventDispatcherWin32::registerEventNotifier(QWinEventNotifier *)
PUBLIC 12f910 0 QEventDispatcherWin32::registerSocketNotifier(QSocketNotifier *)
PUBLIC 12fa10 0 QEventDispatcherWin32::registerTimer(int,int,Qt::TimerType,QObject *)
PUBLIC 12fa90 0 QEventDispatcherWin32Private::registerTimer(WinTimerInfo *)
PUBLIC 12fbc0 0 QEventDispatcherWin32::registeredTimers(QObject *)
PUBLIC 12fcf0 0 QEventDispatcherWin32::remainingTime(int)
PUBLIC 12fd80 0 QHash<int,QHashDummyValue>::reserve(int)
PUBLIC 12ff50 0 QEventDispatcherWin32::sendPostedEvents()
PUBLIC 12ff70 0 QEventDispatcherWin32Private::sendTimerEvent(int)
PUBLIC 130030 0 QList<QWinEventNotifier *>::takeAt(int)
PUBLIC 130070 0 QSet<int>::toList()
PUBLIC 130140 0 QList<int>::toSet()
PUBLIC 1301f0 0 QSet<int>::unite(QSet<int> const &)
PUBLIC 1302f0 0 QEventDispatcherWin32::unregisterEventNotifier(QWinEventNotifier *)
PUBLIC 1303b0 0 QEventDispatcherWin32::unregisterSocketNotifier(QSocketNotifier *)
PUBLIC 130450 0 QEventDispatcherWin32::unregisterTimer(int)
PUBLIC 1304c0 0 QEventDispatcherWin32Private::unregisterTimer(WinTimerInfo *)
PUBLIC 130520 0 QEventDispatcherWin32::unregisterTimers(QObject *)
PUBLIC 130620 0 QHash<int,QSockNot *>::value(int const &)
PUBLIC 130680 0 QEventDispatcherWin32::wakeUp()
PUBLIC 1306c0 0 QBitArray::QBitArray(int,bool)
PUBLIC 1307d0 0 operator<<(QDebug,QBitArray const &)
PUBLIC 130960 0 operator<<(QDebug,QPoint const &)
PUBLIC 130a70 0 operator<<(QDebug,QPointF const &)
PUBLIC 130bb0 0 QVector<TCBPoint>::QVector<TCBPoint>(QVector<TCBPoint> const &)
PUBLIC 130c50 0 BackEase::BackEase(QEasingCurveFunction::Type)
PUBLIC 130c90 0 BezierEase::BezierEase()
PUBLIC 130d70 0 BounceEase::BounceEase(QEasingCurveFunction::Type)
PUBLIC 130db0 0 ElasticEase::ElasticEase(QEasingCurveFunction::Type)
PUBLIC 130df0 0 QEasingCurve::QEasingCurve(QEasingCurve const &)
PUBLIC 130e90 0 QEasingCurve::QEasingCurve(QEasingCurve::Type)
PUBLIC 130f10 0 QVector<TCBPoint>::~QVector<TCBPoint>()
PUBLIC 130f40 0 BezierEase::~BezierEase()
PUBLIC 130fb0 0 QEasingCurve::~QEasingCurve()
PUBLIC 130fd0 0 QEasingCurveFunction::~QEasingCurveFunction()
PUBLIC 131040 0 operator<<(QDebug,QEasingCurve const &)
PUBLIC 131400 0 QVector<TCBPoint>::operator==(QVector<TCBPoint> const &)
PUBLIC 131470 0 QEasingCurve::operator==(QEasingCurve const &)
PUBLIC 131610 0 QEasingCurveFunction::operator==(QEasingCurveFunction const &)
PUBLIC 131790 0 TCBPoint::operator==(TCBPoint const &)
PUBLIC 131910 0 QVector<BezierEase::SingleCubicBezier>::operator[](int)
PUBLIC 131980 0 BackEase::`vector deleting destructor'(unsigned int)
PUBLIC 1319a0 0 BezierEase::`vector deleting destructor'(unsigned int)
PUBLIC 1319c0 0 BackEase::copy()
PUBLIC 131ab0 0 BezierEase::copy()
PUBLIC 131b90 0 BounceEase::copy()
PUBLIC 131c80 0 ElasticEase::copy()
PUBLIC 131d70 0 QEasingCurveFunction::copy()
PUBLIC 131e50 0 QVector<TCBPoint>::copyConstruct(TCBPoint const *,TCBPoint const *,TCBPoint *)
PUBLIC 1322a0 0 QVector<BezierEase::SingleCubicBezier>::defaultConstruct(BezierEase::SingleCubicBezier *,BezierEase::SingleCubicBezier *)
PUBLIC 133610 0 BezierEase::getBezierSegment(BezierEase::SingleCubicBezier * &,double)
PUBLIC 1336f0 0 BezierEase::init()
PUBLIC 133c50 0 QVector<double>::reallocData(int,int,QFlags<QArrayData::AllocationOption>)
PUBLIC 133df0 0 QVector<BezierEase::SingleCubicBezier>::reallocData(int,int,QFlags<QArrayData::AllocationOption>)
PUBLIC 133fa0 0 QEasingCurvePrivate::setType_helper(QEasingCurve::Type)
PUBLIC 1342c0 0 BezierEase::singleRealSolutionForCubic(double,double,double)
PUBLIC 1346c0 0 BackEase::value(double)
PUBLIC 134840 0 BezierEase::value(double)
PUBLIC 1349c0 0 BounceEase::value(double)
PUBLIC 134ac0 0 ElasticEase::value(double)
PUBLIC 134bc0 0 QEasingCurveFunction::value(double)
PUBLIC 134bd0 0 TCBEase::value(double)
PUBLIC 134c30 0 _q_fromHex<unsigned short,unsigned char>(unsigned short const * &,unsigned char &)
PUBLIC 134c90 0 _q_fromHex<unsigned short,unsigned short>(unsigned short const * &,unsigned short &)
PUBLIC 134cf0 0 _q_fromHex<unsigned short,unsigned int>(unsigned short const * &,unsigned int &)
PUBLIC 134d50 0 _q_toHex<unsigned short,unsigned int>(unsigned short * &,unsigned int)
PUBLIC 134e30 0 _q_uuidFromHex<unsigned short>(unsigned short const * &,unsigned int &,unsigned short &,unsigned short &,unsigned char (&)[8])
PUBLIC 134f70 0 _q_uuidToHex<unsigned short>(unsigned short * &,unsigned int const &,unsigned short const &,unsigned short const &,unsigned char const (&)[8])
PUBLIC 135100 0 QUuid::QUuid(QString const &)
PUBLIC 135190 0 operator<<(QDebug,QUuid const &)
PUBLIC 1352d0 0 QUuid::isNull()
PUBLIC 135320 0 QUuid::toString()
PUBLIC 135370 0 QVector<int>::QVector<int>(QVector<int> const &)
PUBLIC 135420 0 QPersistentModelIndex::~QPersistentModelIndex()
PUBLIC 135460 0 operator<<(QDebug,QModelIndex const &)
PUBLIC 1355e0 0 QVector<QVector<QPersistentModelIndexData *> >::defaultConstruct(QVector<QPersistentModelIndexData *> *,QVector<QPersistentModelIndexData *> *)
PUBLIC 135610 0 QVector<QVector<QPersistentModelIndexData *> >::destruct(QVector<QPersistentModelIndexData *> *,QVector<QPersistentModelIndexData *> *)
PUBLIC 135660 0 QHash<QModelIndex,QPersistentModelIndexData *>::detach()
PUBLIC 1356c0 0 QHash<QModelIndex,QPersistentModelIndexData *>::duplicateNode(QHashData::Node *,void *)
PUBLIC 1356f0 0 QHash<QModelIndex,QPersistentModelIndexData *>::findNode(QModelIndex const &,unsigned int *)
PUBLIC 135780 0 QVector<QVector<QPersistentModelIndexData *> >::reallocData(int,int,QFlags<QArrayData::AllocationOption>)
PUBLIC 1359b0 0 QHash<QModelIndex,QPersistentModelIndexData *>::remove(QModelIndex const &)
PUBLIC 135a50 0 QAbstractItemModelPrivate::removePersistentIndexData(QPersistentModelIndexData *)
PUBLIC 135dd0 0 qFromLittleEndian<unsigned __int64>(unsigned char const *)
PUBLIC 135e40 0 QJsonValue::QJsonValue(QJsonPrivate::Data *,QJsonPrivate::Base *,QJsonPrivate::Value const &)
PUBLIC 135f90 0 QJsonValue::QJsonValue(QJsonValue const &)
PUBLIC 135fe0 0 QJsonValue::QJsonValue(QLatin1String)
PUBLIC 136050 0 QJsonValue::QJsonValue(QJsonValue::Type)
PUBLIC 136070 0 QJsonValue::~QJsonValue()
PUBLIC 1360e0 0 operator<<(QDebug,QJsonValue const &)
PUBLIC 136400 0 QJsonValue::operator==(QJsonValue const &)
PUBLIC 1366b0 0 QJsonValue::operator!=(QJsonValue const &)
PUBLIC 1366d0 0 QJsonValue::toArray(QJsonArray const &)
PUBLIC 136720 0 QJsonValue::toArray()
PUBLIC 1367a0 0 QJsonValue::toBool(bool)
PUBLIC 1367b0 0 QJsonValue::toDouble(double)
PUBLIC 1367d0 0 QJsonPrivate::Value::toDouble(QJsonPrivate::Base const *)
PUBLIC 136820 0 QJsonValue::toObject(QJsonObject const &)
PUBLIC 136870 0 QJsonValue::toObject()
PUBLIC 1368f0 0 QJsonValue::toString(QString const &)
PUBLIC 136950 0 QJsonPrivate::Value::toString(QJsonPrivate::Base const *)
PUBLIC 136990 0 QJsonValue::type()
PUBLIC 1369a0 0 QJsonArray::QJsonArray(QJsonPrivate::Data *,QJsonPrivate::Array *)
PUBLIC 1369c0 0 QJsonArray::QJsonArray(QJsonArray const &)
PUBLIC 1369f0 0 operator<<(QDebug,QJsonArray const &)
PUBLIC 136b20 0 QJsonArray::operator==(QJsonArray const &)
PUBLIC 136c60 0 QJsonArray::at(int)
PUBLIC 136cc0 0 QJsonArray::size()
PUBLIC 136ce0 0 operator<<(QDebug,QSize const &)
PUBLIC 136df0 0 operator<<(QDebug,QSizeF const &)
PUBLIC 136f20 0 operator<<(QDebug,QRect const &)
PUBLIC 1370b0 0 operator<<(QDebug,QRectF const &)
PUBLIC 137280 0 operator<<(QDebug,QLine const &)
PUBLIC 1373e0 0 operator<<(QDebug,QLineF const &)
PUBLIC 137530 0 qFreeAligned(void *)
PUBLIC 137550 0 qMallocAligned(unsigned int,unsigned int)
PUBLIC 1376b0 0 qDetectCpuFeatures()
PUBLIC 137870 0 QLibrary::metaObject()
PUBLIC 137890 0 QLibrary::qt_metacall(QMetaObject::Call,int,void * *)
PUBLIC 137990 0 QLibrary::qt_metacast(char const *)
PUBLIC 1379f0 0 QLibraryPrivate::load_sys()
PUBLIC 138070 0 QLibraryPrivate::resolve_sys(char const *)
PUBLIC 1382b0 0 QLibraryPrivate::unload_sys()
PUBLIC 138480 0 QLoggingCategory::QLoggingCategory(char const *)
PUBLIC 1384d0 0 QLoggingCategory::defaultCategory()
PUBLIC 1384f0 0 `anonymous namespace'::Q_QGS_qtDefaultCategory::innerFunction()
PUBLIC 1385c0 0 QLoggingCategory::isEnabled(QtMsgType)
PUBLIC 138660 0 QLoggingCategory::setEnabled(QtMsgType,bool)
PUBLIC 1386b0 0 QStringBuilder<QStringBuilder<QLatin1Char,QString>,QLatin1Char>::convertTo<QString>()
PUBLIC 138760 0 qvariant_cast<QSystemLocale::CurrencyToStringArgument>(QVariant const &)
PUBLIC 138780 0 QVariant::value<QSystemLocale::CurrencyToStringArgument>()
PUBLIC 1387a0 0 QStringBuilder<QStringBuilder<QLatin1Char,QString>,QLatin1Char>::operator QString()
PUBLIC 1387c0 0 QSystemLocalePrivate::amText()
PUBLIC 1388a0 0 QSystemLocalePrivate::currencySymbol(QLocale::CurrencySymbolFormat)
PUBLIC 138b60 0 QSystemLocalePrivate::dateFormat(QLocale::FormatType)
PUBLIC 138d00 0 QSystemLocalePrivate::dateTimeFormat(QLocale::FormatType)
PUBLIC 138ec0 0 QSystemLocalePrivate::dayName(int,QLocale::FormatType)
PUBLIC 139030 0 QSystemLocale::fallbackUiLocale()
PUBLIC 139110 0 QSystemLocalePrivate::firstDayOfWeek()
PUBLIC 1391f0 0 QSystemLocalePrivate::getLocaleInfo(unsigned long,int)
PUBLIC 139360 0 QSystemLocalePrivate::getLocaleInfo_int(unsigned long,int)
PUBLIC 139400 0 QSystemLocalePrivate::getLocaleInfo_qchar(unsigned long)
PUBLIC 139940 0 `anonymous namespace'::Q_QGS_systemLocalePrivate::innerFunction()
PUBLIC 139a20 0 QtPrivate::MetaTypeInvoker<QtPrivate::QVariantValueHelper<QSystemLocale::CurrencyToStringArgument>,QVariant const &,QSystemLocale::CurrencyToStringArgument>::invoke(QVariant const &)
PUBLIC 139a40 0 QSystemLocalePrivate::measurementSystem()
PUBLIC 139b60 0 QtPrivate::QVariantValueHelper<QSystemLocale::CurrencyToStringArgument>::metaType(QVariant const &)
PUBLIC 139ce0 0 QSystemLocalePrivate::monthName(int,QLocale::FormatType)
PUBLIC 139db0 0 QSystemLocalePrivate::nativeCountryName()
PUBLIC 139ea0 0 QSystemLocalePrivate::nativeLanguageName()
PUBLIC 139f90 0 QSystemLocalePrivate::pmText()
PUBLIC 13a070 0 QSystemLocale::query(QSystemLocale::QueryType,QVariant)
PUBLIC 13a5a0 0 QSystemLocalePrivate::substituteDigits(QString &)
PUBLIC 13a640 0 QSystemLocalePrivate::substitution()
PUBLIC 13a740 0 QSystemLocalePrivate::timeFormat(QLocale::FormatType)
PUBLIC 13a900 0 QSystemLocalePrivate::toCurrencyString(QSystemLocale::CurrencyToStringArgument const &)
PUBLIC 13af30 0 QSystemLocalePrivate::toString(QDate const &,QLocale::FormatType)
PUBLIC 13b0c0 0 QSystemLocalePrivate::toString(QDateTime const &,QLocale::FormatType)
PUBLIC 13b2a0 0 QSystemLocalePrivate::toString(QTime const &,QLocale::FormatType)
PUBLIC 13b450 0 QSystemLocalePrivate::uiLanguages()
PUBLIC 13b930 0 QSystemLocalePrivate::update()
PUBLIC 13bd30 0 QSystemLocalePrivate::winToQtFormat(QString const &)
PUBLIC 13c080 0 QSystemLocalePrivate::zeroDigit()
PUBLIC 13d420 0 decimalForm(QChar,QChar,QChar,QString &,int,unsigned int,PrecisionMode,bool,bool)
PUBLIC 13d6e0 0 exponentForm(QChar,QChar,QChar,QChar,QChar,QChar,QString &,int,unsigned int,PrecisionMode,bool)
PUBLIC 13deb0 0 qdtoa(double,int,int,int *,int *,char * *,char * *)
PUBLIC 13df20 0 qlltoa(__int64,int,QChar)
PUBLIC 13df60 0 qstrtod(char const *,char const * *,bool *)
PUBLIC 13f440 0 qstrtoll(char const *,char const * *,int,bool *)
PUBLIC 13f640 0 qstrtoull(char const *,char const * *,int,bool *)
PUBLIC 13f840 0 qulltoa(unsigned __int64,int,QChar)
PUBLIC 13fe00 0 QFactoryLoader::metaObject()
PUBLIC 13fe20 0 QFactoryLoader::qt_metacast(char const *)
PUBLIC 13fe80 0 QTimer::qt_static_metacall(QObject *,QMetaObject::Call,int,void * *)
PUBLIC 13ff10 0 QTimer::metaObject()
PUBLIC 13ff30 0 QTimer::qt_metacall(QMetaObject::Call,int,void * *)
PUBLIC 1400c0 0 QTimer::qt_metacast(char const *)
PUBLIC 140120 0 QTimer::timeout(QTimer::QPrivateSignal)
PUBLIC 140140 0 QFileSystemIterator::QFileSystemIterator(QFileSystemEntry const &,QFlags<QDir::Filter>,QStringList const &,QFlags<QDirIterator::IteratorFlag>)
PUBLIC 1402f0 0 QFileSystemIterator::~QFileSystemIterator()
PUBLIC 1403e0 0 QFileSystemIterator::advance(QFileSystemEntry &,QFileSystemMetaData &)
PUBLIC 140840 0 QThreadPool::metaObject()
PUBLIC 140860 0 QThreadPool::qt_metacall(QMetaObject::Call,int,void * *)
PUBLIC 140950 0 QThreadPool::qt_metacast(char const *)
PUBLIC 1409b0 0 qDeleteAll<QList<QWaitConditionEvent *>::const_iterator>(QList<QWaitConditionEvent *>::const_iterator,QList<QWaitConditionEvent *>::const_iterator)
PUBLIC 1409f0 0 QWaitCondition::QWaitCondition()
PUBLIC 140a80 0 QWaitCondition::~QWaitCondition()
PUBLIC 140b30 0 QWaitConditionPrivate::~QWaitConditionPrivate()
PUBLIC 140be0 0 QList<unsigned char *>::append(unsigned char * const &)
PUBLIC 140c70 0 QList<QWaitConditionEvent *>::insert(int,QWaitConditionEvent * const &)
PUBLIC 140d00 0 QWaitConditionPrivate::post(QWaitConditionEvent *,bool)
PUBLIC 140d90 0 QWaitConditionPrivate::pre()
PUBLIC 140e50 0 QList<WinTimerInfo *>::removeAll(WinTimerInfo * const &)
PUBLIC 140f20 0 QWaitCondition::wait(QMutex *,unsigned long)
PUBLIC 140fc0 0 QWaitCondition::wakeAll()
PUBLIC 141040 0 QWaitCondition::wakeOne()
PUBLIC 1410c0 0 QAbstractEventDispatcher::qt_static_metacall(QObject *,QMetaObject::Call,int,void * *)
PUBLIC 141140 0 QAbstractEventDispatcher::aboutToBlock()
PUBLIC 141160 0 QAbstractEventDispatcher::awake()
PUBLIC 141180 0 QAbstractEventDispatcher::metaObject()
PUBLIC 1411a0 0 QAbstractEventDispatcher::qt_metacall(QMetaObject::Call,int,void * *)
PUBLIC 141200 0 QAbstractEventDispatcher::qt_metacast(char const *)
PUBLIC 141300 0 z_adler32
PUBLIC 141570 0 z_adler32_combine
PUBLIC 141a20 0 z_crc32
PUBLIC 141a40 0 z_crc32_combine
PUBLIC 141a50 0 z_get_crc_table
PUBLIC 141a60 0 z_zError
PUBLIC 141a80 0 z_zcalloc
PUBLIC 141aa0 0 z_zcfree
PUBLIC 141ab0 0 z_zlibCompileFlags
PUBLIC 141ac0 0 z_zlibVersion
PUBLIC 141ad0 0 z_inflate_table
PUBLIC 141f90 0 z_inflate_fast
PUBLIC 1438b0 0 z__tr_align
PUBLIC 143a90 0 z__tr_flush_block
PUBLIC 143c90 0 z__tr_init
PUBLIC 143d00 0 z__tr_stored_block
PUBLIC 143db0 0 QLatin15Codec::~QLatin15Codec()
PUBLIC 143dc0 0 QLatin1Codec::~QLatin1Codec()
PUBLIC 143dd0 0 QLatin15Codec::aliases()
PUBLIC 143e80 0 QLatin1Codec::aliases()
PUBLIC 144070 0 QLatin15Codec::convertFromUnicode(QChar const *,int,QTextCodec::ConverterState *)
PUBLIC 1442b0 0 QLatin1Codec::convertFromUnicode(QChar const *,int,QTextCodec::ConverterState *)
PUBLIC 1443f0 0 QLatin15Codec::convertToUnicode(char const *,int,QTextCodec::ConverterState *)
PUBLIC 144580 0 QLatin1Codec::convertToUnicode(char const *,int,QTextCodec::ConverterState *)
PUBLIC 1445c0 0 QLatin15Codec::mibEnum()
PUBLIC 1445d0 0 QLatin1Codec::mibEnum()
PUBLIC 1445e0 0 QLatin15Codec::name()
PUBLIC 144610 0 QLatin1Codec::name()
PUBLIC 144640 0 QTsciiCodec::~QTsciiCodec()
PUBLIC 144650 0 QTsciiCodec::convertFromUnicode(QChar const *,int,QTextCodec::ConverterState *)
PUBLIC 144830 0 QTsciiCodec::convertToUnicode(char const *,int,QTextCodec::ConverterState *)
PUBLIC 144b50 0 QTsciiCodec::mibEnum()
PUBLIC 144b60 0 QTsciiCodec::name()
PUBLIC 144c50 0 QIsciiCodec::~QIsciiCodec()
PUBLIC 144c60 0 QIsciiCodec::convertFromUnicode(QChar const *,int,QTextCodec::ConverterState *)
PUBLIC 144e90 0 QIsciiCodec::convertToUnicode(char const *,int,QTextCodec::ConverterState *)
PUBLIC 145020 0 QIsciiCodec::mibEnum()
PUBLIC 145030 0 QIsciiCodec::name()
PUBLIC 145060 0 QWindowsLocalCodec::QWindowsLocalCodec()
PUBLIC 145080 0 QWindowsLocalCodec::`vector deleting destructor'(unsigned int)
PUBLIC 1450b0 0 QWindowsLocalCodec::convertFromUnicode(QChar const *,int,QTextCodec::ConverterState *)
PUBLIC 145220 0 QWindowsLocalCodec::convertToUnicode(char const *,int,QTextCodec::ConverterState *)
PUBLIC 145550 0 QWindowsLocalCodec::convertToUnicodeCharByChar(char const *,int,QTextCodec::ConverterState *)
PUBLIC 145700 0 QWindowsLocalCodec::name()
PUBLIC 145730 0 QVarLengthArray<wchar_t,4096>::realloc(int,int)
PUBLIC 1457f0 0 QSimpleTextCodec::QSimpleTextCodec(int)
PUBLIC 145820 0 QSimpleTextCodec::`vector deleting destructor'(unsigned int)
PUBLIC 145890 0 QSimpleTextCodec::aliases()
PUBLIC 145b10 0 QSimpleTextCodec::convertFromUnicode(QChar const *,int,QTextCodec::ConverterState *)
PUBLIC 145cc0 0 QSimpleTextCodec::convertToUnicode(char const *,int,QTextCodec::ConverterState *)
PUBLIC 145de0 0 QSimpleTextCodec::mibEnum()
PUBLIC 145df0 0 QSimpleTextCodec::name()
PUBLIC 145e20 0 QGb18030Codec::QGb18030Codec()
PUBLIC 145e40 0 QGb2312Codec::QGb2312Codec()
PUBLIC 145e60 0 QGbkCodec::QGbkCodec()
PUBLIC 145e80 0 QGb18030Codec::`vector deleting destructor'(unsigned int)
PUBLIC 145ea0 0 QBig5hkscsCodec::_aliases()
PUBLIC 145ec0 0 QGbkCodec::_aliases()
PUBLIC 146010 0 QGb18030Codec::_name()
PUBLIC 146030 0 QGb2312Codec::_name()
PUBLIC 146050 0 QGbkCodec::_name()
PUBLIC 146070 0 QGbkCodec::aliases()
PUBLIC 146090 0 QGb18030Codec::convertFromUnicode(QChar const *,int,QTextCodec::ConverterState *)
PUBLIC 1462d0 0 QGb2312Codec::convertFromUnicode(QChar const *,int,QTextCodec::ConverterState *)
PUBLIC 146480 0 QGbkCodec::convertFromUnicode(QChar const *,int,QTextCodec::ConverterState *)
PUBLIC 146620 0 QGb18030Codec::convertToUnicode(char const *,int,QTextCodec::ConverterState *)
PUBLIC 146930 0 QGb2312Codec::convertToUnicode(char const *,int,QTextCodec::ConverterState *)
PUBLIC 146b40 0 QGbkCodec::convertToUnicode(char const *,int,QTextCodec::ConverterState *)
PUBLIC 146de0 0 QGb18030Codec::mibEnum()
PUBLIC 146df0 0 QGb2312Codec::mibEnum()
PUBLIC 146e00 0 QGbkCodec::mibEnum()
PUBLIC 146e10 0 QGb18030Codec::name()
PUBLIC 146e30 0 QGb2312Codec::name()
PUBLIC 146e50 0 QGbkCodec::name()
PUBLIC 1472c0 0 qt_UnicodeToGbk(unsigned int,unsigned char *)
PUBLIC 1473e0 0 QEucJpCodec::QEucJpCodec()
PUBLIC 147440 0 QEucJpCodec::`vector deleting destructor'(unsigned int)
PUBLIC 1474c0 0 QEucJpCodec::_name()
PUBLIC 1474e0 0 QBig5hkscsCodec::aliases()
PUBLIC 147500 0 QEucJpCodec::convertFromUnicode(QChar const *,int,QTextCodec::ConverterState *)
PUBLIC 147720 0 QEucJpCodec::convertToUnicode(char const *,int,QTextCodec::ConverterState *)
PUBLIC 1479c0 0 QJpUnicodeConv::jisx0201ToUnicode(unsigned int)
PUBLIC 1479e0 0 QEucJpCodec::mibEnum()
PUBLIC 1479f0 0 QEucJpCodec::name()
PUBLIC 147a10 0 QJisCodec::QJisCodec()
PUBLIC 147a70 0 QJisCodec::`vector deleting destructor'(unsigned int)
PUBLIC 147af0 0 QJisCodec::_aliases()
PUBLIC 147ba0 0 QJisCodec::_name()
PUBLIC 147bc0 0 QJisCodec::aliases()
PUBLIC 147be0 0 QJisCodec::convertFromUnicode(QChar const *,int,QTextCodec::ConverterState *)
PUBLIC 147e00 0 QJisCodec::convertToUnicode(char const *,int,QTextCodec::ConverterState *)
PUBLIC 148260 0 QJisCodec::mibEnum()
PUBLIC 148270 0 QJisCodec::name()
PUBLIC 148290 0 QSjisCodec::QSjisCodec()
PUBLIC 1482f0 0 QSjisCodec::`vector deleting destructor'(unsigned int)
PUBLIC 148370 0 QSjisCodec::_aliases()
PUBLIC 148470 0 QSjisCodec::_name()
PUBLIC 148490 0 QSjisCodec::aliases()
PUBLIC 1484b0 0 QSjisCodec::convertFromUnicode(QChar const *,int,QTextCodec::ConverterState *)
PUBLIC 1486c0 0 QSjisCodec::convertToUnicode(char const *,int,QTextCodec::ConverterState *)
PUBLIC 1489b0 0 QSjisCodec::mibEnum()
PUBLIC 1489c0 0 QSjisCodec::name()
PUBLIC 1489e0 0 std::_Lower_bound<unsigned short const *,unsigned short,int,std::less<void> >(unsigned short const *,unsigned short const *,unsigned short const &,std::less<void>,int *)
PUBLIC 148a30 0 QCP949Codec::_aliases()
PUBLIC 148ae0 0 QCP949Codec::_mibEnum()
PUBLIC 148af0 0 QEucKrCodec::_mibEnum()
PUBLIC 148b00 0 QCP949Codec::_name()
PUBLIC 148b20 0 QEucKrCodec::_name()
PUBLIC 148b40 0 QCP949Codec::convertFromUnicode(QChar const *,int,QTextCodec::ConverterState *)
PUBLIC 148da0 0 QEucKrCodec::convertFromUnicode(QChar const *,int,QTextCodec::ConverterState *)
PUBLIC 148f20 0 QCP949Codec::convertToUnicode(char const *,int,QTextCodec::ConverterState *)
PUBLIC 1491a0 0 QEucKrCodec::convertToUnicode(char const *,int,QTextCodec::ConverterState *)
PUBLIC 149580 0 QBig5Codec::_aliases()
PUBLIC 149690 0 QBig5Codec::_mibEnum()
PUBLIC 1496a0 0 QBig5hkscsCodec::_mibEnum()
PUBLIC 1496b0 0 QBig5Codec::_name()
PUBLIC 1496d0 0 QBig5hkscsCodec::_name()
PUBLIC 1496f0 0 QBig5Codec::convertFromUnicode(QChar const *,int,QTextCodec::ConverterState *)
PUBLIC 149880 0 QBig5hkscsCodec::convertFromUnicode(QChar const *,int,QTextCodec::ConverterState *)
PUBLIC 1499f0 0 QBig5Codec::convertToUnicode(char const *,int,QTextCodec::ConverterState *)
PUBLIC 149bd0 0 QBig5hkscsCodec::convertToUnicode(char const *,int,QTextCodec::ConverterState *)
PUBLIC 14a3d0 0 pcre16_free_study
PUBLIC 14a400 0 _pcre16_jit_free
PUBLIC 14a570 0 QListData::dispose(QListData::Data *)
PUBLIC 14a580 0 QFSFileEngineIterator::QFSFileEngineIterator(QFlags<QDir::Filter>,QStringList const &)
PUBLIC 14a600 0 QScopedPointer<QFileSystemIterator,QScopedPointerDeleter<QFileSystemIterator> >::~QScopedPointer<QFileSystemIterator,QScopedPointerDeleter<QFileSystemIterator> >()
PUBLIC 14a620 0 QFSFileEngineIterator::`vector deleting destructor'(unsigned int)
PUBLIC 14a6c0 0 QFSFileEngineIterator::advance()
PUBLIC 14a820 0 QFSFileEngineIterator::currentFileInfo()
PUBLIC 14a840 0 QFSFileEngineIterator::currentFileName()
PUBLIC 14a860 0 QFSFileEngineIterator::hasNext()
PUBLIC 14a9d0 0 QFSFileEngineIterator::next()
PUBLIC 14aba0 0 QSystemError::toString()
PUBLIC 14ad70 0 QResourceFileEngineIterator::QResourceFileEngineIterator(QFlags<QDir::Filter>,QStringList const &)
PUBLIC 14ada0 0 QResourceFileEngineIterator::~QResourceFileEngineIterator()
PUBLIC 14ae40 0 QResourceFileEngineIterator::`vector deleting destructor'(unsigned int)
PUBLIC 14ae60 0 QResourceFileEngineIterator::currentFileName()
PUBLIC 14aec0 0 QResourceFileEngineIterator::hasNext()
PUBLIC 14aff0 0 QResourceFileEngineIterator::next()
PUBLIC 14b030 0 QJsonPrivate::Entry::operator==(QString const &)
PUBLIC 14b090 0 QJsonPrivate::Object::indexOf(QString const &,bool *)
PUBLIC 14b1e0 0 QJsonPrivate::Array::isValid()
PUBLIC 14b240 0 QJsonPrivate::Object::isValid()
PUBLIC 14b2c0 0 QJsonPrivate::Value::isValid(QJsonPrivate::Base const *)
PUBLIC 14b340 0 QJsonPrivate::Value::usedStorage(QJsonPrivate::Base const *)
PUBLIC 14b3c0 0 QJsonPrivate::Data::valid()
PUBLIC 14b540 0 QJsonPrivate::Writer::arrayToJson(QJsonPrivate::Array const *,QByteArray &,int,bool)
PUBLIC 14bac0 0 QJsonPrivate::Writer::objectToJson(QJsonPrivate::Object const *,QByteArray &,int,bool)
PUBLIC 14be60 0 QList<QWinTimeZonePrivate::QWinTransitionRule>::QList<QWinTimeZonePrivate::QWinTransitionRule>(QList<QWinTimeZonePrivate::QWinTransitionRule> const &)
PUBLIC 14bf20 0 QWinTimeZonePrivate::QWinTimeZonePrivate(QWinTimeZonePrivate const &)
PUBLIC 14bff0 0 QWinTimeZonePrivate::QWinTimeZonePrivate(QByteArray const &)
PUBLIC 14c080 0 QWinTimeZonePrivate::QWinTimeZonePrivate()
PUBLIC 14c140 0 QForeachContainer<QList<QWinTimeZonePrivate::QWinTransitionRule> >::~QForeachContainer<QList<QWinTimeZonePrivate::QWinTransitionRule> >()
PUBLIC 14c150 0 QWinTimeZonePrivate::~QWinTimeZonePrivate()
PUBLIC 14c280 0 QWinTimeZonePrivate::`vector deleting destructor'(unsigned int)
PUBLIC 14c2a0 0 QWinTimeZonePrivate::abbreviation(__int64)
PUBLIC 14c310 0 QList<QWinTimeZonePrivate::QWinTransitionRule>::append(QWinTimeZonePrivate::QWinTransitionRule const &)
PUBLIC 14c410 0 QWinTimeZonePrivate::availableTimeZoneIds()
PUBLIC 14cc40 0 QWinTimeZonePrivate::clone()
PUBLIC 14ccb0 0 QWinTimeZonePrivate::data(__int64)
PUBLIC 14ce80 0 QWinTimeZonePrivate::daylightTimeOffset(__int64)
PUBLIC 14ced0 0 QList<QWinTimeZonePrivate::QWinTransitionRule>::detach_helper_grow(int,int)
PUBLIC 14d030 0 QWinTimeZonePrivate::displayName(QTimeZone::TimeType,QTimeZone::NameType,QLocale const &)
PUBLIC 14d4e0 0 QWinTimeZonePrivate::hasDaylightTime()
PUBLIC 14d4f0 0 QWinTimeZonePrivate::hasTransitions()
PUBLIC 14d610 0 QWinTimeZonePrivate::init(QByteArray const &)
PUBLIC 14dc90 0 QWinTimeZonePrivate::isDaylightTime(__int64)
PUBLIC 14ddc0 0 QWinTimeZonePrivate::nextTransition(__int64)
PUBLIC 14e020 0 QList<QWinTimeZonePrivate::QWinTransitionRule>::node_construct(QList<QWinTimeZonePrivate::QWinTransitionRule>::Node *,QWinTimeZonePrivate::QWinTransitionRule const &)
PUBLIC 14e070 0 QList<QWinTimeZonePrivate::QWinTransitionRule>::node_copy(QList<QWinTimeZonePrivate::QWinTransitionRule>::Node *,QList<QWinTimeZonePrivate::QWinTransitionRule>::Node *,QList<QWinTimeZonePrivate::QWinTransitionRule>::Node *)
PUBLIC 14e140 0 QList<QPair<QRunnable *,int> >::node_destruct(QList<QPair<QRunnable *,int> >::Node *,QList<QPair<QRunnable *,int> >::Node *)
PUBLIC 14e170 0 QWinTimeZonePrivate::offsetFromUtc(__int64)
PUBLIC 14e1c0 0 QWinTimeZonePrivate::previousTransition(__int64)
PUBLIC 14e570 0 QWinTimeZonePrivate::ruleForYear(int)
PUBLIC 14e5e0 0 QWinTimeZonePrivate::ruleToData(QWinTimeZonePrivate::QWinTransitionRule const &,__int64,QTimeZone::TimeType)
PUBLIC 14e6b0 0 QWinTimeZonePrivate::standardTimeOffset(__int64)
PUBLIC 14e700 0 QWinTimeZonePrivate::systemTimeZoneId()
PUBLIC 14edd0 0 QStandardPaths::isTestModeEnabled()
PUBLIC 14ede0 0 QStandardPaths::locate(QStandardPaths::StandardLocation,QString const &,QFlags<QStandardPaths::LocateOption>)
PUBLIC 14f050 0 QEventDispatcherWin32::metaObject()
PUBLIC 14f070 0 QEventDispatcherWin32::qt_metacall(QMetaObject::Call,int,void * *)
PUBLIC 14f080 0 QEventDispatcherWin32::qt_metacast(char const *)
PUBLIC 14f0e0 0 QWinEventNotifier::setEnabled(bool)
PUBLIC 14f170 0 QAbstractItemModel::qt_static_metacall(QObject *,QMetaObject::Call,int,void * *)
PUBLIC 14f880 0 QtMetaTypePrivate::QSequentialIterableImpl::atImpl<QVector<int> >(void const *,int)
PUBLIC 14f8a0 0 QtMetaTypePrivate::QPairVariantInterfaceImpl::getFirstImpl<QPair<QByteArray,QByteArray> >(void const * const *,int,unsigned int)
PUBLIC 14f8c0 0 QtMetaTypePrivate::QSequentialIterableImpl::moveToBeginImpl<QVector<int> >(void const *,void * *)
PUBLIC 14f8e0 0 QtMetaTypePrivate::QSequentialIterableImpl::moveToEndImpl<QVector<int> >(void const *,void * *)
PUBLIC 14f900 0 QtMetaTypePrivate::QSequentialIterableImpl::sizeImpl<QVector<int> >(void const *)
PUBLIC 14f910 0 QList<QPersistentModelIndex>::~QList<QPersistentModelIndex>()
PUBLIC 14f970 0 QtMetaTypePrivate::QMetaTypeFunctionHelper<QVector<int>,1>::Construct(void *,void const *)
PUBLIC 14f9a0 0 QtMetaTypePrivate::QMetaTypeFunctionHelper<QVector<int>,1>::Create(void const *)
PUBLIC 14f9d0 0 QtMetaTypePrivate::QMetaTypeFunctionHelper<QVector<int>,1>::Delete(void *)
PUBLIC 14fa10 0 QtMetaTypePrivate::QMetaTypeFunctionHelper<QVector<int>,1>::Destruct(void *)
PUBLIC 14fa40 0 QtMetaTypePrivate::IteratorOwner<int const *>::advance(void * *,int)
PUBLIC 14fa60 0 QtMetaTypePrivate::IteratorOwner<int const *>::assign(void * *,void * const *)
PUBLIC 14fa70 0 QAbstractItemModel::columnsAboutToBeInserted(QModelIndex const &,int,int,QAbstractItemModel::QPrivateSignal)
PUBLIC 14fad0 0 QAbstractItemModel::columnsAboutToBeMoved(QModelIndex const &,int,int,QModelIndex const &,int,QAbstractItemModel::QPrivateSignal)
PUBLIC 14fb40 0 QAbstractItemModel::columnsAboutToBeRemoved(QModelIndex const &,int,int,QAbstractItemModel::QPrivateSignal)
PUBLIC 14fba0 0 QAbstractItemModel::columnsInserted(QModelIndex const &,int,int,QAbstractItemModel::QPrivateSignal)
PUBLIC 14fc00 0 QAbstractItemModel::columnsMoved(QModelIndex const &,int,int,QModelIndex const &,int,QAbstractItemModel::QPrivateSignal)
PUBLIC 14fc70 0 QAbstractItemModel::columnsRemoved(QModelIndex const &,int,int,QAbstractItemModel::QPrivateSignal)
PUBLIC 14fcd0 0 QtPrivate::ConverterFunctor<QVector<int>,QtMetaTypePrivate::QSequentialIterableImpl,QtMetaTypePrivate::QSequentialIterableConvertFunctor<QVector<int> > >::convert(QtPrivate::AbstractConverterFunction const *,void const *,void *)
PUBLIC 14fd80 0 QAbstractItemModel::dataChanged(QModelIndex const &,QModelIndex const &,QVector<int> const &)
PUBLIC 14fde0 0 QtMetaTypePrivate::IteratorOwner<int const *>::equal(void * const *,void * const *)
PUBLIC 14fe00 0 QAbstractItemModel::headerDataChanged(Qt::Orientation,int,int)
PUBLIC 14fe60 0 QAbstractItemModel::layoutAboutToBeChanged(QList<QPersistentModelIndex> const &,QAbstractItemModel::LayoutChangeHint)
PUBLIC 14feb0 0 QAbstractItemModel::layoutChanged(QList<QPersistentModelIndex> const &,QAbstractItemModel::LayoutChangeHint)
PUBLIC 14ff00 0 QAbstractItemModel::modelAboutToBeReset(QAbstractItemModel::QPrivateSignal)
PUBLIC 14ff20 0 QAbstractItemModel::modelReset(QAbstractItemModel::QPrivateSignal)
PUBLIC 14ff40 0 QMetaTypeId<QVector<int> >::qt_metatype_id()
PUBLIC 150090 0 QtPrivate::ValueTypeIsMetaType<QVector<int>,1>::registerConverter(int)
PUBLIC 150110 0 QAbstractItemModel::rowsAboutToBeInserted(QModelIndex const &,int,int,QAbstractItemModel::QPrivateSignal)
PUBLIC 150170 0 QAbstractItemModel::rowsAboutToBeMoved(QModelIndex const &,int,int,QModelIndex const &,int,QAbstractItemModel::QPrivateSignal)
PUBLIC 1501e0 0 QAbstractItemModel::rowsAboutToBeRemoved(QModelIndex const &,int,int,QAbstractItemModel::QPrivateSignal)
PUBLIC 150240 0 QAbstractItemModel::rowsInserted(QModelIndex const &,int,int,QAbstractItemModel::QPrivateSignal)
PUBLIC 1502a0 0 QAbstractItemModel::rowsMoved(QModelIndex const &,int,int,QModelIndex const &,int,QAbstractItemModel::QPrivateSignal)
PUBLIC 150310 0 QAbstractItemModel::rowsRemoved(QModelIndex const &,int,int,QAbstractItemModel::QPrivateSignal)
PUBLIC 150370 0 QJpUnicodeConv::`vector deleting destructor'(unsigned int)
PUBLIC 150390 0 QJpUnicodeConv_JISX0221_JISX0201::asciiToUnicode(unsigned int,unsigned int)
PUBLIC 1503a0 0 QJpUnicodeConv::cp932ToUnicode(unsigned int,unsigned int)
PUBLIC 150400 0 QJpUnicodeConv::jisx0201KanaToUnicode(unsigned int,unsigned int)
PUBLIC 150430 0 QJpUnicodeConv::jisx0201LatinToUnicode(unsigned int,unsigned int)
PUBLIC 150460 0 QSpdyProtocolHandler::_q_readyRead()
PUBLIC 1504c0 0 QJpUnicodeConv::jisx0201ToUnicode(unsigned int,unsigned int)
PUBLIC 150570 0 QJpUnicodeConv::jisx0208ToUnicode(unsigned int,unsigned int)
PUBLIC 1505f0 0 QJpUnicodeConv_JISX0221_ASCII::jisx0208ToUnicode(unsigned int,unsigned int)
PUBLIC 150640 0 QJpUnicodeConv_JISX0221_JISX0201::jisx0208ToUnicode(unsigned int,unsigned int)
PUBLIC 150670 0 QJpUnicodeConv_Microsoft::jisx0208ToUnicode(unsigned int,unsigned int)
PUBLIC 1506f0 0 QJpUnicodeConv_Sun::jisx0208ToUnicode(unsigned int,unsigned int)
PUBLIC 150720 0 QJpUnicodeConv::jisx0212ToUnicode(unsigned int,unsigned int)
PUBLIC 1507b0 0 QJpUnicodeConv_Microsoft::jisx0212ToUnicode(unsigned int,unsigned int)
PUBLIC 1507f0 0 QJpUnicodeConv_JISX0221_ASCII::jisx0212ToUnicode(unsigned int,unsigned int)
PUBLIC 150820 0 QJpUnicodeConv::newConverter(int)
PUBLIC 150da0 0 QJpUnicodeConv::sjisToUnicode(unsigned int,unsigned int)
PUBLIC 150e30 0 QJpUnicodeConv::sjisibmvdcToUnicode(unsigned int,unsigned int)
PUBLIC 150e70 0 QJpUnicodeConv::asciiToUnicode(unsigned int,unsigned int)
PUBLIC 150e90 0 QJpUnicodeConv_JISX0221_JISX0201::unicodeToAscii(unsigned int,unsigned int)
PUBLIC 150ea0 0 QJpUnicodeConv_Sun::unicodeToAscii(unsigned int,unsigned int)
PUBLIC 150ee0 0 QJpUnicodeConv::unicodeToCp932(unsigned int,unsigned int)
PUBLIC 150f70 0 QJpUnicodeConv::unicodeToJisx0201(unsigned int,unsigned int)
PUBLIC 150fd0 0 QJpUnicodeConv::unicodeToJisx0201Latin(unsigned int,unsigned int)
PUBLIC 151040 0 QJpUnicodeConv::unicodeToJisx0208(unsigned int,unsigned int)
PUBLIC 1510d0 0 QJpUnicodeConv_JISX0221_ASCII::unicodeToJisx0208(unsigned int,unsigned int)
PUBLIC 151140 0 QJpUnicodeConv_JISX0221_JISX0201::unicodeToJisx0208(unsigned int,unsigned int)
PUBLIC 151180 0 QJpUnicodeConv_Microsoft::unicodeToJisx0208(unsigned int,unsigned int)
PUBLIC 151230 0 QJpUnicodeConv_Sun::unicodeToJisx0208(unsigned int,unsigned int)
PUBLIC 151260 0 QJpUnicodeConv_Unicode_ASCII::unicodeToJisx0208(unsigned int,unsigned int)
PUBLIC 151290 0 QJpUnicodeConv::unicodeToJisx0212(unsigned int,unsigned int)
PUBLIC 151330 0 QJpUnicodeConv_Microsoft::unicodeToJisx0212(unsigned int,unsigned int)
PUBLIC 151380 0 QJpUnicodeConv_JISX0221_ASCII::unicodeToJisx0212(unsigned int,unsigned int)
PUBLIC 1513c0 0 QJpUnicodeConv_Unicode_ASCII::unicodeToJisx0212(unsigned int,unsigned int)
PUBLIC 151400 0 QJpUnicodeConv::unicodeToSjis(unsigned int,unsigned int)
PUBLIC 151490 0 QJpUnicodeConv::unicodeToSjisibmvdc(unsigned int,unsigned int)
PUBLIC 1515a0 0 QStandardPaths::standardLocations(QStandardPaths::StandardLocation)
PUBLIC 151930 0 QStandardPaths::writableLocation(QStandardPaths::StandardLocation)
PUBLIC 151f90 0 QWinEventNotifier::qt_static_metacall(QObject *,QMetaObject::Call,int,void * *)
PUBLIC 152020 0 QWinEventNotifier::activated(void *,QWinEventNotifier::QPrivateSignal)
